 GamePlaza

 Timestamp is 5559c48b (Mon May 18 18:52:59 2015)

 Preferred load address is 00400000

 Start         Length     Name                   Class
 0001:00000000 0017f136H .text                   CODE
 0001:0017f140 0001d62dH .text$x                 CODE
 0001:0019c770 00002e3eH .text$yc                CODE
 0001:0019f5b0 000003acH .text$yd                CODE
 0002:00000000 0000101cH .idata$5                DATA
 0002:0000101c 00000004H .CRT$XCA                DATA
 0002:00001020 00000004H .CRT$XCAA               DATA
 0002:00001024 0000000cH .CRT$XCL                DATA
 0002:00001030 000003c4H .CRT$XCU                DATA
 0002:000013f4 00000004H .CRT$XCZ                DATA
 0002:000013f8 00000004H .CRT$XIA                DATA
 0002:000013fc 00000004H .CRT$XIAA               DATA
 0002:00001400 00000004H .CRT$XIC                DATA
 0002:00001404 00000004H .CRT$XIZ                DATA
 0002:00001410 0001ccb8H .rdata                  DATA
 0002:0001e0c8 0000005bH .rdata$debug            DATA
 0002:0001e128 000046a8H .rdata$r                DATA
 0002:000227d0 000007b4H .rdata$sxdata           DATA
 0002:00022f84 00000004H .rtc$IAA                DATA
 0002:00022f88 00000004H .rtc$IZZ                DATA
 0002:00022f8c 00000004H .rtc$TAA                DATA
 0002:00022f90 00000004H .rtc$TZZ                DATA
 0002:00022f98 00014348H .xdata$x                DATA
 0002:000372e0 00000000H ATL$__a                 DATA
 0002:000372e0 00000000H ATL$__z                 DATA
 0002:000372e0 000001b8H .idata$2                DATA
 0002:00037498 00000014H .idata$3                DATA
 0002:000374ac 0000101cH .idata$4                DATA
 0002:000384c8 0000373eH .idata$6                DATA
 0002:0003bc06 00000000H .edata                  DATA
 0003:00000000 00001f89H .data                   DATA
 0003:00001f90 00a5c9a4H .bss                    DATA
 0004:00000000 00003094H .rsrc$01                DATA
 0004:000030a0 00621d88H .rsrc$02                DATA

  Address         Publics by Value              Rva+Base       Lib:Object

 0000:00000000       __except_list              00000000     <absolute>
 0000:000001ed       ___safe_se_handler_count   000001ed     <absolute>
 0000:00009876       __fltused                  00009876     <absolute>
 0000:00009876       __ldused                   00009876     <absolute>
 0000:00000000       ___ImageBase               00400000     <linker-defined>
 0001:00000000       ?GetExePath@CBmpUtil@@SAXPB_WPA_W@Z 00401000 f   BmpUtil.obj
 0001:000000b0       ?GetExePath@CBmpUtil@@SAAAV?$CStringT@_WV?$StrTraitMFC_DLL@_WV?$ChTraitsCRT@_W@ATL@@@@@ATL@@XZ 004010b0 f   BmpUtil.obj
 0001:00000170       ?wcsrchr@@YAPA_WPA_W_W@Z   00401170 f i BmpUtil.obj
 0001:000001a0       ?GetRuntimeClass@CChongQing11X5@@UBEPAUCRuntimeClass@@XZ 004011a0 f   ChongQing11X5.obj
 0001:000001c0       ??0CChongQing11X5@@QAE@PAVCWnd@@@Z 004011c0 f   ChongQing11X5.obj
 0001:000010e0       ??_GCChongQing11X5@@UAEPAXI@Z 004020e0 f i ChongQing11X5.obj
 0001:000010e0       ??_ECChongQing11X5@@UAEPAXI@Z 004020e0 f i ChongQing11X5.obj
 0001:00001120       ??0IStatusViewSink@@QAE@XZ 00402120 f i ChongQing11X5.obj
 0001:00001140       ??1CChongQing11X5@@UAE@XZ  00402140 f   ChongQing11X5.obj
 0001:00001f60       ?ConnectMainDlg@CChongQing11X5@@QAEXPAVCPlazaViewItem@@@Z 00402f60 f   ChongQing11X5.obj
 0001:00001f90       ?FlushZongjine@CChongQing11X5@@QAEXXZ 00402f90 f   ChongQing11X5.obj
 0001:00001fc0       ?DoDataExchange@CChongQing11X5@@MAEXPAVCDataExchange@@@Z 00402fc0 f   ChongQing11X5.obj
 0001:00002df0       ?GetMessageMap@CChongQing11X5@@MBEPBUAFX_MSGMAP@@XZ 00403df0 f   ChongQing11X5.obj
 0001:00002e10       ?GetThisMessageMap@CChongQing11X5@@KGPBUAFX_MSGMAP@@XZ 00403e10 f   ChongQing11X5.obj
 0001:00002e30       ?OnPaint@CChongQing11X5@@IAEXXZ 00403e30 f   ChongQing11X5.obj
 0001:000030c0       ?OnSize@CChongQing11X5@@IAEXIHH@Z 004040c0 f   ChongQing11X5.obj
 0001:00003130       ?OnShowWindow@CChongQing11X5@@IAEXHI@Z 00404130 f   ChongQing11X5.obj
 0001:000032c0       ?OnTimer@CChongQing11X5@@IAEXI@Z 004042c0 f   ChongQing11X5.obj
 0001:000035b0       ??0CMemDC@@QAE@PAVCDC@@VCRect@@H@Z 004045b0 f i ChongQing11X5.obj
 0001:00003790       ??1CMemDC@@UAE@XZ          00404790 f i ChongQing11X5.obj
 0001:00003880       ??_ECMemDC@@UAEPAXI@Z      00404880 f i ChongQing11X5.obj
 0001:00003880       ??_GCMemDC@@UAEPAXI@Z      00404880 f i ChongQing11X5.obj
 0001:000038c0       ?OnBnClickedBtnHszhx@CChongQing11X5@@IAEXXZ 004048c0 f   ChongQing11X5.obj
 0001:00003910       ?OnBnClickedBtnHszx@CChongQing11X5@@IAEXXZ 00404910 f   ChongQing11X5.obj
 0001:00003960       ?OnBnClickedBtnWxhe@CChongQing11X5@@IAEXXZ 00404960 f   ChongQing11X5.obj
 0001:000039b0       ?OnBnClickedBtnHezx@CChongQing11X5@@IAEXXZ 004049b0 f   ChongQing11X5.obj
 0001:00003a00       ?OnBnClickedBtnDxdsh@CChongQing11X5@@IAEXXZ 00404a00 f   ChongQing11X5.obj
 0001:00003a50       ?OnBnClickedBtnBdw@CChongQing11X5@@IAEXXZ 00404a50 f   ChongQing11X5.obj
 0001:00003aa0       ?OnBnClickedBtnQszhx@CChongQing11X5@@IAEXXZ 00404aa0 f   ChongQing11X5.obj
 0001:00003af0       ?OnBnClickedBtnQszx@CChongQing11X5@@IAEXXZ 00404af0 f   ChongQing11X5.obj
 0001:00003b40       ?OnBnClickedBtnWxqe@CChongQing11X5@@IAEXXZ 00404b40 f   ChongQing11X5.obj
 0001:00003ba0       ?OnBnClickedBtnQezx@CChongQing11X5@@IAEXXZ 00404ba0 f   ChongQing11X5.obj
 0001:00003c00       ?OnBnClickedBtnDwd@CJiangXi11X5@@IAEXXZ 00404c00 f   JiangXi11X5.obj
 0001:00003c00       ?OnBnClickedBtnDwd@CShanDong11X5@@IAEXXZ 00404c00 f   ShanDong11X5.obj
 0001:00003c00       ?OnBnClickedBtnDwd@CGuangDong11X5@@IAEXXZ 00404c00 f   GuangDong11X5.obj
 0001:00003c00       ?OnBnClickedBtnDwd@CChongQing11X5@@IAEXXZ 00404c00 f   ChongQing11X5.obj
 0001:00003c30       ?OnInitDialog@CChongQing11X5@@MAEHXZ 00404c30 f   ChongQing11X5.obj
 0001:00004730       ?SetTextColor@CTextButton@@QAEXK@Z 00405730 f i ChongQing11X5.obj
 0001:00004760       ?OnBnClickedBtnWanQuan@CJiangXi11X5@@IAEXXZ 00405760 f   JiangXi11X5.obj
 0001:00004760       ?OnBnClickedBtnWanQuan@CGuangDong11X5@@IAEXXZ 00405760 f   GuangDong11X5.obj
 0001:00004760       ?OnBnClickedBtnWanQuan@CChongQing11X5@@IAEXXZ 00405760 f   ChongQing11X5.obj
 0001:00004830       ?OnBnClickedBtnWanXiao@CJiangXi11X5@@IAEXXZ 00405830 f   JiangXi11X5.obj
 0001:00004830       ?OnBnClickedBtnWanXiao@CChongQing11X5@@IAEXXZ 00405830 f   ChongQing11X5.obj
 0001:00004830       ?OnBnClickedBtnWanXiao@CGuangDong11X5@@IAEXXZ 00405830 f   GuangDong11X5.obj
 0001:00004900       ?OnBnClickedBtnWanDan@CGuangDong11X5@@IAEXXZ 00405900 f   GuangDong11X5.obj
 0001:00004900       ?OnBnClickedBtnWanDan@CChongQing11X5@@IAEXXZ 00405900 f   ChongQing11X5.obj
 0001:00004900       ?OnBnClickedBtnWanDan@CJiangXi11X5@@IAEXXZ 00405900 f   JiangXi11X5.obj
 0001:000049d0       ?OnBnClickedBtnWanQing@CGuangDong11X5@@IAEXXZ 004059d0 f   GuangDong11X5.obj
 0001:000049d0       ?OnBnClickedBtnWanQing@CJiangXi11X5@@IAEXXZ 004059d0 f   JiangXi11X5.obj
 0001:000049d0       ?OnBnClickedBtnWanQing@CChongQing11X5@@IAEXXZ 004059d0 f   ChongQing11X5.obj
 0001:00004aa0       ?OnBnClickedBtnQianQuan@CJiangXi11X5@@IAEXXZ 00405aa0 f   JiangXi11X5.obj
 0001:00004aa0       ?OnBnClickedBtnQianQuan@CChongQing11X5@@IAEXXZ 00405aa0 f   ChongQing11X5.obj
 0001:00004aa0       ?OnBnClickedBtnQianQuan@CGuangDong11X5@@IAEXXZ 00405aa0 f   GuangDong11X5.obj
 0001:00004b70       ?OnBnClickedBtnQianXiao@CChongQing11X5@@IAEXXZ 00405b70 f   ChongQing11X5.obj
 0001:00004b70       ?OnBnClickedBtnQianXiao@CGuangDong11X5@@IAEXXZ 00405b70 f   GuangDong11X5.obj
 0001:00004b70       ?OnBnClickedBtnQianXiao@CJiangXi11X5@@IAEXXZ 00405b70 f   JiangXi11X5.obj
 0001:00004c40       ?OnBnClickedBtnQianDan@CGuangDong11X5@@IAEXXZ 00405c40 f   GuangDong11X5.obj
 0001:00004c40       ?OnBnClickedBtnQianDan@CJiangXi11X5@@IAEXXZ 00405c40 f   JiangXi11X5.obj
 0001:00004c40       ?OnBnClickedBtnQianDan@CChongQing11X5@@IAEXXZ 00405c40 f   ChongQing11X5.obj
 0001:00004d10       ?OnBnClickedBtnQianShuang@CGuangDong11X5@@IAEXXZ 00405d10 f   GuangDong11X5.obj
 0001:00004d10       ?OnBnClickedBtnQianShuang@CChongQing11X5@@IAEXXZ 00405d10 f   ChongQing11X5.obj
 0001:00004d10       ?OnBnClickedBtnQianShuang@CJiangXi11X5@@IAEXXZ 00405d10 f   JiangXi11X5.obj
 0001:00004de0       ?OnBnClickedBtnQianQing@CJiangXi11X5@@IAEXXZ 00405de0 f   JiangXi11X5.obj
 0001:00004de0       ?OnBnClickedBtnQianQing@CChongQing11X5@@IAEXXZ 00405de0 f   ChongQing11X5.obj
 0001:00004de0       ?OnBnClickedBtnQianQing@CGuangDong11X5@@IAEXXZ 00405de0 f   GuangDong11X5.obj
 0001:00004eb0       ?OnBnClickedBtnShiShuang@CChongQing11X5@@IAEXXZ 00405eb0 f   ChongQing11X5.obj
 0001:00004eb0       ?OnBnClickedBtnShiShuang@CGuangDong11X5@@IAEXXZ 00405eb0 f   GuangDong11X5.obj
 0001:00004eb0       ?OnBnClickedBtnShiShuang@CJiangXi11X5@@IAEXXZ 00405eb0 f   JiangXi11X5.obj
 0001:00004f80       ?OnBnClickedBtnGeShuang@CGuangDong11X5@@IAEXXZ 00405f80 f   GuangDong11X5.obj
 0001:00004f80       ?OnBnClickedBtnGeShuang@CJiangXi11X5@@IAEXXZ 00405f80 f   JiangXi11X5.obj
 0001:00004f80       ?OnBnClickedBtnGeShuang@CChongQing11X5@@IAEXXZ 00405f80 f   ChongQing11X5.obj
 0001:00005050       ?OnBnClickedBtnGeQing@CGuangDong11X5@@IAEXXZ 00406050 f   GuangDong11X5.obj
 0001:00005050       ?OnBnClickedBtnGeQing@CChongQing11X5@@IAEXXZ 00406050 f   ChongQing11X5.obj
 0001:00005050       ?OnBnClickedBtnGeQing@CJiangXi11X5@@IAEXXZ 00406050 f   JiangXi11X5.obj
 0001:00005110       ?OnBnClickedBtnChqAdd@CChongQing11X5@@IAEXXZ 00406110 f   ChongQing11X5.obj
 0001:000082c0       ??0CTimeSpan@ATL@@QAE@JHHH@Z 004092c0 f i ChongQing11X5.obj
 0001:00008340       ??YCTime@ATL@@QAEAAV01@VCTimeSpan@1@@Z 00409340 f i ChongQing11X5.obj
 0001:00008380       ?InitNumberBtns@CChongQing11X5@@AAEXXZ 00409380 f   ChongQing11X5.obj
 0001:00008e70       ?OnBnClickedRioHszhxFushi@CChongQing11X5@@IAEXXZ 00409e70 f   ChongQing11X5.obj
 0001:00008f50       ?OnBnClickedRioRenXuan2@CChongQing11X5@@IAEXXZ 00409f50 f   ChongQing11X5.obj
 0001:00009030       ?OnBnClickedRioHszsFushi@CChongQing11X5@@IAEXXZ 0040a030 f   ChongQing11X5.obj
 0001:00009110       ?OnBnClickedRioQszsFushi@CChongQing11X5@@IAEXXZ 0040a110 f   ChongQing11X5.obj
 0001:000091a0       ?OnBnClickedRioHezhxFushi@CChongQing11X5@@IAEXXZ 0040a1a0 f   ChongQing11X5.obj
 0001:00009280       ?OnBnClickedRioHezxFushi@CChongQing11X5@@IAEXXZ 0040a280 f   ChongQing11X5.obj
 0001:00009360       ?OnBnClickedRioQezhxFushi@CChongQing11X5@@IAEXXZ 0040a360 f   ChongQing11X5.obj
 0001:00009450       ?OnBnClickedRioQezhxDanshi@CChongQing11X5@@IAEXXZ 0040a450 f   ChongQing11X5.obj
 0001:00009510       ?OnBnClickedRioQezxFushi@CChongQing11X5@@IAEXXZ 0040a510 f   ChongQing11X5.obj
 0001:00009600       ?OnBnClickedRioQezxDanshi@CChongQing11X5@@IAEXXZ 0040a600 f   ChongQing11X5.obj
 0001:000096c0       ?OnBnClickedRioDxdsh@CChongQing11X5@@IAEXXZ 0040a6c0 f   ChongQing11X5.obj
 0001:000097a0       ?OnBnClickedRioHsbdw@CChongQing11X5@@IAEXXZ 0040a7a0 f   ChongQing11X5.obj
 0001:00009880       ?OnBnClickedBtnZhuihao@CChongQing11X5@@IAEXXZ 0040a880 f   ChongQing11X5.obj
 0001:00009c30       ?CheckInput@CChongQing11X5@@QAE_NXZ 0040ac30 f   ChongQing11X5.obj
 0001:00009fc0       ?OnBnClickedBtnTouzhu@CChongQing11X5@@IAEXXZ 0040afc0 f   ChongQing11X5.obj
 0001:0000a110       ?OnBnClickedBtnDelSel@CChongQing11X5@@IAEXXZ 0040b110 f   ChongQing11X5.obj
 0001:0000a1e0       ?OnBnClickedBtnClsList@CChongQing11X5@@IAEXXZ 0040b1e0 f   ChongQing11X5.obj
 0001:0000a260       ?OnEnChangeEditBeishu@CChongQing11X5@@IAEXXZ 0040b260 f   ChongQing11X5.obj
 0001:0000a410       ?IsSelect@CNumerButton@@QAE_NXZ 0040b410 f i ChongQing11X5.obj
 0001:0000a430       ?HideAllRio@CChongQing11X5@@AAEXXZ 0040b430 f   ChongQing11X5.obj
 0001:0000a430       ?HideAllRio@CGuangDong11X5@@AAEXXZ 0040b430 f   GuangDong11X5.obj
 0001:0000a430       ?HideAllRio@CShanDong11X5@@AAEXXZ 0040b430 f   ShanDong11X5.obj
 0001:0000a430       ?HideAllRio@CJiangXi11X5@@AAEXXZ 0040b430 f   JiangXi11X5.obj
 0001:0000a620       ?GetWanString@CChongQing11X5@@AAE?AV?$CStringT@_WV?$StrTraitMFC_DLL@_WV?$ChTraitsCRT@_W@ATL@@@@@ATL@@XZ 0040b620 f   ChongQing11X5.obj
 0001:0000a620       ?GetWanString@CJiangXi11X5@@AAE?AV?$CStringT@_WV?$StrTraitMFC_DLL@_WV?$ChTraitsCRT@_W@ATL@@@@@ATL@@XZ 0040b620 f   JiangXi11X5.obj
 0001:0000a620       ?GetWanString@CGuangDong11X5@@AAE?AV?$CStringT@_WV?$StrTraitMFC_DLL@_WV?$ChTraitsCRT@_W@ATL@@@@@ATL@@XZ 0040b620 f   GuangDong11X5.obj
 0001:0000a850       ?Width@CRect@@QBEHXZ       0040b850 f i ChongQing11X5.obj
 0001:0000a870       ?Height@CRect@@QBEHXZ      0040b870 f i ChongQing11X5.obj
 0001:0000a890       ?CopyRect@CRect@@QAEXPBUtagRECT@@@Z 0040b890 f i ChongQing11X5.obj
 0001:0000a8c0       ??8CRect@@QBEHABUtagRECT@@@Z 0040b8c0 f i ChongQing11X5.obj
 0001:0000a8f0       ?GetWanDesc@CChongQing11X5@@AAE?AV?$CStringT@_WV?$StrTraitMFC_DLL@_WV?$ChTraitsCRT@_W@ATL@@@@@ATL@@XZ 0040b8f0 f   ChongQing11X5.obj
 0001:0000a940       ?GetGameKindByDesc@CJiangXi11X5@@AAE?AW4SSCGameKind@1@ABV?$CStringT@_WV?$StrTraitMFC_DLL@_WV?$ChTraitsCRT@_W@ATL@@@@@ATL@@@Z 0040b940 f   JiangXi11X5.obj
 0001:0000a940       ?GetGameKindByDesc@CShanDong11X5@@AAE?AW4SSCGameKind@1@ABV?$CStringT@_WV?$StrTraitMFC_DLL@_WV?$ChTraitsCRT@_W@ATL@@@@@ATL@@@Z 0040b940 f   ShanDong11X5.obj
 0001:0000a940       ?GetGameKindByDesc@CChongQing11X5@@AAE?AW4SSCGameKind@1@ABV?$CStringT@_WV?$StrTraitMFC_DLL@_WV?$ChTraitsCRT@_W@ATL@@@@@ATL@@@Z 0040b940 f   ChongQing11X5.obj
 0001:0000a940       ?GetGameKindByDesc@CGuangDong11X5@@AAE?AW4SSCGameKind@1@ABV?$CStringT@_WV?$StrTraitMFC_DLL@_WV?$ChTraitsCRT@_W@ATL@@@@@ATL@@@Z 0040b940 f   GuangDong11X5.obj
 0001:0000ab20       ?AdjustNumBtn@CChongQing11X5@@AAEXXZ 0040bb20 f   ChongQing11X5.obj
 0001:0000c8c0       ?Width@CNumerButton@@QAEHXZ 0040d8c0 f i ChongQing11X5.obj
 0001:0000c8e0       ?Height@CNumerButton@@QAEHXZ 0040d8e0 f i ChongQing11X5.obj
 0001:0000c900       ?Width@CImgStatic@@QAEHXZ  0040d900 f i ChongQing11X5.obj
 0001:0000c920       ?GetGridBkColor@CGridCtrl@@QBEKXZ 0040d920 f i GridCtrl.obj
 0001:0000c920       ?Height@CImgStatic@@QAEHXZ 0040d920 f i ChongQing11X5.obj
 0001:0000c940       ?RemoveAll@CStringArray@@QAEXXZ 0040d940 f i ChongQing11X5.obj
 0001:0000c960       ?GetAt@CStringArray@@QBEABV?$CStringT@_WV?$StrTraitMFC_DLL@_WV?$ChTraitsCRT@_W@ATL@@@@@ATL@@H@Z 0040d960 f i ChongQing11X5.obj
 0001:0000c960       ?ElementAt@CUIntArray@@QAEAAIH@Z 0040d960 f i GridCtrl.obj
 0001:0000c960       ?ElementAt@CStringArray@@QAEAAV?$CStringT@_WV?$StrTraitMFC_DLL@_WV?$ChTraitsCRT@_W@ATL@@@@@ATL@@H@Z 0040d960 f i ChongQing11X5.obj
 0001:0000c960       ?ElementAt@CObArray@@QAEAAPAVCObject@@H@Z 0040d960 f i GridCtrl.obj
 0001:0000c9a0       ?AdjustNumView@CGuangDong11X5@@AAEXXZ 0040d9a0 f   GuangDong11X5.obj
 0001:0000c9a0       ?AdjustNumView@CChongQing11X5@@AAEXXZ 0040d9a0 f   ChongQing11X5.obj
 0001:0000c9a0       ?AdjustNumView@CJiangXi11X5@@AAEXXZ 0040d9a0 f   JiangXi11X5.obj
 0001:0000cb50       ?Width@CImageButton@@QAEHXZ 0040db50 f i ChongQing11X5.obj
 0001:0000cb50       ?GetFixedColumnSelection@CGridCtrl@@QAEHXZ 0040db50 f i GridCtrl.obj
 0001:0000cb50       ?Width@CTextButton@@QAEHXZ 0040db50 f i ChongQing11X5.obj
 0001:0000cb70       ?GetHeaderSort@CGridCtrl@@QBEHXZ 0040db70 f i GridCtrl.obj
 0001:0000cb70       ?Height@CImageButton@@QAEHXZ 0040db70 f i ChongQing11X5.obj
 0001:0000cb70       ?Height@CTextButton@@QAEHXZ 0040db70 f i ChongQing11X5.obj
 0001:0000cb90       ?AdjustDanShi@CJiangXi11X5@@AAEXXZ 0040db90 f   JiangXi11X5.obj
 0001:0000cb90       ?AdjustDanShi@CChongQing11X5@@AAEXXZ 0040db90 f   ChongQing11X5.obj
 0001:0000cb90       ?AdjustDanShi@CGuangDong11X5@@AAEXXZ 0040db90 f   GuangDong11X5.obj
 0001:0000cbe0       ?HideBaiNums@CChongQing11X5@@AAEXXZ 0040dbe0 f   ChongQing11X5.obj
 0001:0000cd40       ?HideShiNums@CGuangDong11X5@@AAEXXZ 0040dd40 f   GuangDong11X5.obj
 0001:0000cd40       ?HideShiNums@CChongQing11X5@@AAEXXZ 0040dd40 f   ChongQing11X5.obj
 0001:0000cd40       ?HideShiNums@CJiangXi11X5@@AAEXXZ 0040dd40 f   JiangXi11X5.obj
 0001:0000ce80       ?HideGeNums@CChongQing11X5@@AAEXXZ 0040de80 f   ChongQing11X5.obj
 0001:0000ce80       ?HideGeNums@CJiangXi11X5@@AAEXXZ 0040de80 f   JiangXi11X5.obj
 0001:0000ce80       ?HideGeNums@CGuangDong11X5@@AAEXXZ 0040de80 f   GuangDong11X5.obj
 0001:0000cfc0       ?ShowBaiNums@CChongQing11X5@@AAEXXZ 0040dfc0 f   ChongQing11X5.obj
 0001:0000d120       ??3CObject@@SGXPAX@Z       0040e120 f i ChongQing11X5.obj
 0001:0000d140       ?ShowZuXuan@CChongQing11X5@@AAEXXZ 0040e140 f   ChongQing11X5.obj
 0001:0000d190       ?HideDaXiaoDanShuang@CChongQing11X5@@AAEXXZ 0040e190 f   ChongQing11X5.obj
 0001:0000d230       ?CheckWanFaBtn@CGuangDong11X5@@AAEXAAVCTextButton@@@Z 0040e230 f   GuangDong11X5.obj
 0001:0000d230       ?CheckWanFaBtn@CChongQing11X5@@AAEXAAVCTextButton@@@Z 0040e230 f   ChongQing11X5.obj
 0001:0000d230       ?CheckWanFaBtn@CJiangXi11X5@@AAEXAAVCTextButton@@@Z 0040e230 f   JiangXi11X5.obj
 0001:0000d2f0       ?SendToServer@CChongQing11X5@@AAEXH@Z 0040e2f0 f   ChongQing11X5.obj
 0001:0000d490       ?SendQueryLuckyNumCQSSC@CChongQing11X5@@AAEXXZ 0040e490 f   ChongQing11X5.obj
 0001:0000d580       ?LuckyNumCQSSC@CChongQing11X5@@AAE_NXZ 0040e580 f   ChongQing11X5.obj
 0001:0000da60       ?GetKjShjDiff@CChongQing11X5@@AAEJXZ 0040ea60 f   ChongQing11X5.obj
 0001:0000dab0       ?DrawLastKjHaoma@CChongQing11X5@@AAEXPAVCDC@@AAVGraphics@Gdiplus@@@Z 0040eab0 f   ChongQing11X5.obj
 0001:0000e220       ?DrawTopKjHaoma@CChongQing11X5@@AAEXPAVCDC@@AAVGraphics@Gdiplus@@@Z 0040f220 f   ChongQing11X5.obj
 0001:0000e5f0       ?DrawZongZhushuJinE@CChongQing11X5@@AAEXPAVCDC@@@Z 0040f5f0 f   ChongQing11X5.obj
 0001:0000e7d0       ?ResetAllNums@CChongQing11X5@@AAEXXZ 0040f7d0 f   ChongQing11X5.obj
 0001:0000ec30       ??ACObArray@@QAEAAPAVCObject@@H@Z 0040fc30 f i GridCtrl.obj
 0001:0000ec30       ??ACUIntArray@@QAEAAIH@Z   0040fc30 f i GridCtrl.obj
 0001:0000ec30       ??ACStringArray@@QAEAAV?$CStringT@_WV?$StrTraitMFC_DLL@_WV?$ChTraitsCRT@_W@ATL@@@@@ATL@@H@Z 0040fc30 f i ChongQing11X5.obj
 0001:0000ec60       ?GetDanShiHaoma@CChongQing11X5@@AAE_NAAV?$CStringT@_WV?$StrTraitMFC_DLL@_WV?$ChTraitsCRT@_W@ATL@@@@@ATL@@HH@Z 0040fc60 f   ChongQing11X5.obj
 0001:0000f0e0       ?Add@CStringArray@@QAEHABV?$CStringT@_WV?$StrTraitMFC_DLL@_WV?$ChTraitsCRT@_W@ATL@@@@@ATL@@@Z 004100e0 f i ChongQing11X5.obj
 0001:0000f120       ?InitWanFaMoShi@CChongQing11X5@@AAEXXZ 00410120 f   ChongQing11X5.obj
 0001:0000f290       ?OnEventMissionLink@CChongQing11X5@@UAE_NHH@Z 00410290 f   ChongQing11X5.obj
 0001:00010a80       ?_AtlGetConversionACP@ATL@@YGIXZ 00411a80 f i ChongQing11X5.obj
 0001:00010aa0       ?AtlA2WHelper@@YGPA_WPA_WPBDHI@Z 00411aa0 f i ChongQing11X5.obj
 0001:00010b00       ?AtlW2AHelper@@YGPADPADPB_WHI@Z 00411b00 f i ChongQing11X5.obj
 0001:00010b60       ?OnEventMissionRead@CChongQing11X5@@UAE_NUTCP_Command@@PAXG@Z 00411b60 f   ChongQing11X5.obj
 0001:000114c0       ??0CTime@ATL@@QAE@ABU_SYSTEMTIME@@H@Z 004124c0 f i ChongQing11X5.obj
 0001:00011560       ??0CSize@@QAE@UtagSIZE@@@Z 00412560 f i MyCheckBox.obj
 0001:00011560       ??0CTimeSpan@ATL@@QAE@_J@Z 00412560 f i DlgAddtional.obj
 0001:00011560       ??0CTime@ATL@@QAE@_J@Z     00412560 f i ChongQing11X5.obj
 0001:00011590       ??0CTime@ATL@@QAE@HHHHHHH@Z 00412590 f i ChongQing11X5.obj
 0001:00011780       ?AtlThrowImpl@ATL@@YGXJ@Z  00412780 f i ChongQing11X5.obj
 0001:000117b0       ?GetGameHoverIndex@CChongQing11X5@@IAEGVCPoint@@@Z 004127b0 f   ChongQing11X5.obj
 0001:00011850       ?PtInRect@CRect@@QBEHUtagPOINT@@@Z 00412850 f i ChongQing11X5.obj
 0001:00011880       ?OnMouseMove@CChongQing11X5@@IAEXIVCPoint@@@Z 00412880 f   ChongQing11X5.obj
 0001:00011920       ?OnLButtonDown@CChongQing11X5@@IAEXIVCPoint@@@Z 00412920 f   ChongQing11X5.obj
 0001:000119b0       ?OnLButtonUp@CChongQing11X5@@IAEXIVCPoint@@@Z 004129b0 f   ChongQing11X5.obj
 0001:00011a50       ?OnMouseLeave@CChongQing11X5@@IAEJIJ@Z 00412a50 f   ChongQing11X5.obj
 0001:00011a80       ?OnBnClickedRioMouseInput@CChongQing11X5@@AAEXXZ 00412a80 f   ChongQing11X5.obj
 0001:00011e40       ?OnBnClickedRioKeyboardInput@CChongQing11X5@@AAEXXZ 00412e40 f   ChongQing11X5.obj
 0001:00011ed0       ?OnBnClickedBtnLock@CChongQing11X5@@AAEXXZ 00412ed0 f   ChongQing11X5.obj
 0001:00011ff0       ??HATL@@YA?AV?$CStringT@_WV?$StrTraitMFC_DLL@_WV?$ChTraitsCRT@_W@ATL@@@@@0@ABV10@PB_W@Z 00412ff0 f i ChongQing11X5.obj
 0001:000120b0       ??8ATL@@YA_NABV?$CStringT@_WV?$StrTraitMFC_DLL@_WV?$ChTraitsCRT@_W@ATL@@@@@0@0@Z 004130b0 f i ChongQing11X5.obj
 0001:000120e0       ??8ATL@@YA_NABV?$CStringT@_WV?$StrTraitMFC_DLL@_WV?$ChTraitsCRT@_W@ATL@@@@@0@PB_W@Z 004130e0 f i ChongQing11X5.obj
 0001:00012110       ?size@?$vector@V?$basic_string@_WU?$char_traits@_W@std@@V?$allocator@_W@2@@std@@V?$allocator@V?$basic_string@_WU?$char_traits@_W@std@@V?$allocator@_W@2@@std@@@2@@std@@QBEIXZ 00413110 f i ChongQing11X5.obj
 0001:00012150       ??A?$vector@V?$basic_string@_WU?$char_traits@_W@std@@V?$allocator@_W@2@@std@@V?$allocator@V?$basic_string@_WU?$char_traits@_W@std@@V?$allocator@_W@2@@std@@@2@@std@@QAEAAV?$basic_string@_WU?$char_traits@_W@std@@V?$allocator@_W@2@@1@I@Z 00413150 f i ChongQing11X5.obj
 0001:00012190       ??A?$CMap@IINN@@QAEAANI@Z  00413190 f i ChongQing11X5.obj
 0001:00012240       ??A?$CMap@HHV?$CStringT@_WV?$StrTraitMFC_DLL@_WV?$ChTraitsCRT@_W@ATL@@@@@ATL@@AAV12@@@QAEAAV?$CStringT@_WV?$StrTraitMFC_DLL@_WV?$ChTraitsCRT@_W@ATL@@@@@ATL@@H@Z 00413240 f i ChongQing11X5.obj
 0001:000122f0       ?NewAssoc@?$CMap@IINN@@IAEPAVCAssoc@1@I@Z 004132f0 f i ChongQing11X5.obj
 0001:00012460       ??2@YAPAXIPAX@Z            00413460 f i ChongQing11X5.obj
 0001:00012480       ?GetAssocAt@?$CMap@IINN@@IBEPAVCAssoc@1@IAAI0@Z 00413480 f i ChongQing11X5.obj
 0001:00012480       ?GetAssocAt@?$CMap@KKVCCellID@@AAV1@@@IBEPAVCAssoc@1@KAAI0@Z 00413480 f i GridCtrl.obj
 0001:00012510       ?NewAssoc@?$CMap@HHV?$CStringT@_WV?$StrTraitMFC_DLL@_WV?$ChTraitsCRT@_W@ATL@@@@@ATL@@AAV12@@@IAEPAVCAssoc@1@H@Z 00413510 f i ChongQing11X5.obj
 0001:00012680       ?GetAssocAt@?$CMap@HHV?$CStringT@_WV?$StrTraitMFC_DLL@_WV?$ChTraitsCRT@_W@ATL@@@@@ATL@@AAV12@@@IBEPAVCAssoc@1@HAAI0@Z 00413680 f i ChongQing11X5.obj
 0001:00012710       ??0CAssoc@?$CMap@IINN@@QAE@I@Z 00413710 f i ChongQing11X5.obj
 0001:00012740       ??0CAssoc@?$CMap@HHV?$CStringT@_WV?$StrTraitMFC_DLL@_WV?$ChTraitsCRT@_W@ATL@@@@@ATL@@AAV12@@@QAE@H@Z 00413740 f i ChongQing11X5.obj
 0001:00012770       ??0CPair@?$CMap@HHV?$CStringT@_WV?$StrTraitMFC_DLL@_WV?$ChTraitsCRT@_W@ATL@@@@@ATL@@AAV12@@@IAE@H@Z 00413770 f i ChongQing11X5.obj
 0001:000127a0       ??$HashKey@I@@YGII@Z       004137a0 f i ChongQing11X5.obj
 0001:000127a0       ??$HashKey@K@@YGIK@Z       004137a0 f i GridCtrl.obj
 0001:000127a0       ??$HashKey@H@@YGIH@Z       004137a0 f i ChongQing11X5.obj
 0001:000127c0       ??_ECChongQing11X5@@WHE@AEPAXI@Z 004137c0 f i ChongQing11X5.obj
 0001:000127d0       ?AfxGetInstanceHandle@@YGPAUHINSTANCE__@@XZ 004137d0 f i ChongQing11X5.obj
 0001:000127f0       ??0CFont@@QAE@XZ           004137f0 f i ChongQing11X5.obj
 0001:00012820       ??0CGdiObject@@QAE@XZ      00413820 f i ChongQing11X5.obj
 0001:00012860       ??_GCGdiObject@@UAEPAXI@Z  00413860 f i ChongQing11X5.obj
 0001:00012860       ??_ECGdiObject@@UAEPAXI@Z  00413860 f i ChongQing11X5.obj
 0001:000128a0       ??1CGdiObject@@UAE@XZ      004138a0 f i ChongQing11X5.obj
 0001:00012910       ??_ECFont@@UAEPAXI@Z       00413910 f i ChongQing11X5.obj
 0001:00012910       ??_GCFont@@UAEPAXI@Z       00413910 f i ChongQing11X5.obj
 0001:00012950       ??1CFont@@UAE@XZ           00413950 f i ChongQing11X5.obj
 0001:00012980       ?CreateFontW@CFont@@QAEHHHHHHEEEEEEEEPB_W@Z 00413980 f i ChongQing11X5.obj
 0001:000129f0       ??0CBitmap@@QAE@XZ         004139f0 f i ChongQing11X5.obj
 0001:00012a20       ??_GCBitmap@@UAEPAXI@Z     00413a20 f i ChongQing11X5.obj
 0001:00012a20       ??_ECBitmap@@UAEPAXI@Z     00413a20 f i ChongQing11X5.obj
 0001:00012a60       ??1CBitmap@@UAE@XZ         00413a60 f i ChongQing11X5.obj
 0001:00012a90       ?CreateCompatibleBitmap@CBitmap@@QAEHPAVCDC@@HH@Z 00413a90 f i ChongQing11X5.obj
 0001:00012ad0       ?CreateCompatibleDC@CDC@@QAEHPAV1@@Z 00413ad0 f i ChongQing11X5.obj
 0001:00012b00       ?SelectObject@CDC@@QAEPAVCBitmap@@PAV2@@Z 00413b00 f i ChongQing11X5.obj
 0001:00012b30       ?SelectObject@CDC@@QAEPAXPAX@Z 00413b30 f i ChongQing11X5.obj
 0001:00012b70       ?PtVisible@CDC@@UBEHHH@Z   00413b70 f i ChongQing11X5.obj
 0001:00012ba0       ?RectVisible@CDC@@UBEHPBUtagRECT@@@Z 00413ba0 f i ChongQing11X5.obj
 0001:00012bd0       ?BitBlt@CDC@@QAEHHHHHPAV1@HHK@Z 00413bd0 f i ChongQing11X5.obj
 0001:00012c20       ?TextOutW@CDC@@UAEHHHPB_WH@Z 00413c20 f i ChongQing11X5.obj
 0001:00012c60       ?ExtTextOutW@CDC@@UAEHHHIPBUtagRECT@@PB_WIPAH@Z 00413c60 f i ChongQing11X5.obj
 0001:00012ca0       ?TabbedTextOutW@CDC@@UAE?AVCSize@@HHPB_WHHPAHH@Z 00413ca0 f i ChongQing11X5.obj
 0001:00012cf0       ??0CSize@@QAE@K@Z          00413cf0 f i ChongQing11X5.obj
 0001:00012cf0       ??0CPoint@@QAE@J@Z         00413cf0 f i GridCtrl.obj
 0001:00012d30       ?DrawTextW@CDC@@UAEHPB_WHPAUtagRECT@@I@Z 00413d30 f i ChongQing11X5.obj
 0001:00012d70       ?DrawTextW@CDC@@QAEHABV?$CStringT@_WV?$StrTraitMFC_DLL@_WV?$ChTraitsCRT@_W@ATL@@@@@ATL@@PAUtagRECT@@I@Z 00413d70 f i ChongQing11X5.obj
 0001:00012db0       ?DrawTextExW@CDC@@UAEHPA_WHPAUtagRECT@@IPAUtagDRAWTEXTPARAMS@@@Z 00413db0 f i ChongQing11X5.obj
 0001:00012df0       ?GrayStringW@CDC@@UAEHPAVCBrush@@P6GHPAUHDC__@@JH@ZJHHHHH@Z 00413df0 f i ChongQing11X5.obj
 0001:00012e40       ?Escape@CDC@@UAEHHHPBDPAX@Z 00413e40 f i ChongQing11X5.obj
 0001:00012e80       ?GetSafeHwnd@CWnd@@QBEPAUHWND__@@XZ 00413e80 f i ChongQing11X5.obj
 0001:00012e80       ??BCWnd@@QBEPAUHWND__@@XZ  00413e80 f i FanDian.obj
 0001:00012eb0       ?SendMessageW@CWnd@@QAEJIIJ@Z 00413eb0 f i ChongQing11X5.obj
 0001:00012ee0       ?PostMessageW@CWnd@@QAEHIIJ@Z 00413ee0 f i ChongQing11X5.obj
 0001:00012f10       ?GetClientRect@CWnd@@QBEXPAUtagRECT@@@Z 00413f10 f i ChongQing11X5.obj
 0001:00012f40       ?GetDC@CWnd@@QAEPAVCDC@@XZ 00413f40 f i ChongQing11X5.obj
 0001:00012f70       ?ReleaseDC@CWnd@@QAEHPAVCDC@@@Z 00413f70 f i ChongQing11X5.obj
 0001:00012fa0       ?Invalidate@CWnd@@QAEXH@Z  00413fa0 f i ChongQing11X5.obj
 0001:00012fd0       ?InvalidateRect@CWnd@@QAEXPBUtagRECT@@H@Z 00413fd0 f i ChongQing11X5.obj
 0001:00013000       ?IsWindowVisible@CWnd@@QBEHXZ 00414000 f i ChongQing11X5.obj
 0001:00013020       ?RedrawWindow@CWnd@@QAEHPBUtagRECT@@PAVCRgn@@I@Z 00414020 f i ChongQing11X5.obj
 0001:00013060       ?SetTimer@CWnd@@QAEIIIP6GXPAUHWND__@@IIK@Z@Z 00414060 f i ChongQing11X5.obj
 0001:00013090       ?KillTimer@CWnd@@QAEHI@Z   00414090 f i ChongQing11X5.obj
 0001:000130c0       ?GetParent@CWnd@@QBEPAV1@XZ 004140c0 f i ChongQing11X5.obj
 0001:000130f0       ?OnShowWindow@CWnd@@IAEXHI@Z 004140f0 f i ChongQing11X5.obj
 0001:00013110       ?BeginModalState@CWnd@@UAEXXZ 00414110 f i ChongQing11X5.obj
 0001:00013140       ?EndModalState@CWnd@@UAEXXZ 00414140 f i ChongQing11X5.obj
 0001:00013170       ?Create@CDialog@@UAEHIPAVCWnd@@@Z 00414170 f i ChongQing11X5.obj
 0001:000131a0       ??0CStatic@@QAE@XZ         004141a0 f i ChongQing11X5.obj
 0001:000131d0       ??_GCStatic@@UAEPAXI@Z     004141d0 f i ChongQing11X5.obj
 0001:000131d0       ??_ECStatic@@UAEPAXI@Z     004141d0 f i ChongQing11X5.obj
 0001:00013210       ??0CButton@@QAE@XZ         00414210 f i ChongQing11X5.obj
 0001:00013240       ??_ECButton@@UAEPAXI@Z     00414240 f i ChongQing11X5.obj
 0001:00013240       ??_GCButton@@UAEPAXI@Z     00414240 f i ChongQing11X5.obj
 0001:00013280       ?GetCheck@CButton@@QBEHXZ  00414280 f i ChongQing11X5.obj
 0001:000132b0       ?SetCheck@CButton@@QAEXH@Z 004142b0 f i ChongQing11X5.obj
 0001:000132e0       ??0CEdit@@QAE@XZ           004142e0 f i ChongQing11X5.obj
 0001:00013310       ??_ECEdit@@UAEPAXI@Z       00414310 f i ChongQing11X5.obj
 0001:00013310       ??_GCEdit@@UAEPAXI@Z       00414310 f i ChongQing11X5.obj
 0001:00013350       ?GetItemCount@CListCtrl@@QBEHXZ 00414350 f i ChongQing11X5.obj
 0001:00013380       ?InsertItem@CListCtrl@@QAEHHPB_W@Z 00414380 f i ChongQing11X5.obj
 0001:000133b0       ?DeleteItem@CListCtrl@@QAEHH@Z 004143b0 f i ChongQing11X5.obj
 0001:000133e0       ?DeleteAllItems@CListCtrl@@QAEHXZ 004143e0 f i ChongQing11X5.obj
 0001:00013410       ?GetFirstSelectedItemPosition@CListCtrl@@QBEPAU__POSITION@@XZ 00414410 f i ChongQing11X5.obj
 0001:00013440       ?GetNextItem@CListCtrl@@QBEHHH@Z 00414440 f i ChongQing11X5.obj
 0001:00013480       ?GetNextSelectedItem@CListCtrl@@QBEHAAPAU__POSITION@@@Z 00414480 f i ChongQing11X5.obj
 0001:000134c0       ??0CRichEditCtrl@@QAE@XZ   004144c0 f i ChongQing11X5.obj
 0001:000134f0       ??_GCRichEditCtrl@@UAEPAXI@Z 004144f0 f i ChongQing11X5.obj
 0001:000134f0       ??_ECRichEditCtrl@@UAEPAXI@Z 004144f0 f i ChongQing11X5.obj
 0001:00013530       ?LimitText@CRichEditCtrl@@QAEXJ@Z 00414530 f i ChongQing11X5.obj
 0001:00013560       ?SetBackgroundColor@CRichEditCtrl@@QAEKHK@Z 00414560 f i ChongQing11X5.obj
 0001:00013590       ?SetExtendedStyle@CListCtrl@@QAEKK@Z 00414590 f i ChongQing11X5.obj
 0001:000135c0       ?GetExtendedStyle@CListCtrl@@QAEKXZ 004145c0 f i ChongQing11X5.obj
 0001:000135f0       ?data@CPlex@@QAEPAXXZ      004145f0 f i ChongQing11X5.obj
 0001:00013610       ?Lock@CCriticalSection@@QAEHXZ 00414610 f i ChongQing11X5.obj
 0001:000136b0       ?Unlock@CCriticalSection@@UAEHXZ 004146b0 f i ChongQing11X5.obj
 0001:000136e0       ??3GdiplusBase@Gdiplus@@SAXPAX@Z 004146e0 f i ChongQing11X5.obj
 0001:00013700       ??2GdiplusBase@Gdiplus@@SAPAXI@Z 00414700 f i ChongQing11X5.obj
 0001:00013720       ??0Rect@Gdiplus@@QAE@HHHH@Z 00414720 f i ChongQing11X5.obj
 0001:00013720       ??0CRect@@QAE@HHHH@Z       00414720 f i ChongQing11X5.obj
 0001:00013760       ??0Graphics@Gdiplus@@QAE@PAUHDC__@@@Z 00414760 f i ChongQing11X5.obj
 0001:000137a0       ??1Graphics@Gdiplus@@QAE@XZ 004147a0 f i ChongQing11X5.obj
 0001:000137c0       ?DrawImage@Graphics@Gdiplus@@QAE?AW4Status@2@PAVImage@2@HHHH@Z 004147c0 f i ChongQing11X5.obj
 0001:00013820       ?DrawImage@Graphics@Gdiplus@@QAE?AW4Status@2@PAVImage@2@ABVRect@2@HHHHW4Unit@2@PBVImageAttributes@2@P6GHPAX@Z4@Z 00414820 f i ChongQing11X5.obj
 0001:000138c0       ?SetStatus@Graphics@Gdiplus@@IBE?AW4Status@2@W432@@Z 004148c0 f i ChongQing11X5.obj
 0001:000138f0       ?GetWidth@Image@Gdiplus@@QAEIXZ 004148f0 f i ChongQing11X5.obj
 0001:00013930       ?SetStatus@Image@Gdiplus@@IBE?AW4Status@2@W432@@Z 00414930 f i ChongQing11X5.obj
 0001:00013960       ?GetHeight@Image@Gdiplus@@QAEIXZ 00414960 f i ChongQing11X5.obj
 0001:000139a0       ?GetFrameDimensionsCount@Image@Gdiplus@@QAEIXZ 004149a0 f i ChongQing11X5.obj
 0001:000139e0       ?GetFrameDimensionsList@Image@Gdiplus@@QAE?AW4Status@2@PAU_GUID@@I@Z 004149e0 f i ChongQing11X5.obj
 0001:00013a20       ?GetFrameCount@Image@Gdiplus@@QAEIPBU_GUID@@@Z 00414a20 f i ChongQing11X5.obj
 0001:00013a60       ?SelectActiveFrame@Image@Gdiplus@@QAE?AW4Status@2@PBU_GUID@@I@Z 00414a60 f i ChongQing11X5.obj
 0001:00013aa0       ??0Bitmap@Gdiplus@@QAE@PB_WH@Z 00414aa0 f i ChongQing11X5.obj
 0001:00013b50       ??0Image@Gdiplus@@IAE@XZ   00414b50 f i ChongQing11X5.obj
 0001:00013b70       ??_GImage@Gdiplus@@UAEPAXI@Z 00414b70 f i ChongQing11X5.obj
 0001:00013b70       ??_EImage@Gdiplus@@UAEPAXI@Z 00414b70 f i ChongQing11X5.obj
 0001:00013bb0       ??1Image@Gdiplus@@UAE@XZ   00414bb0 f i ChongQing11X5.obj
 0001:00013be0       ?Clone@Image@Gdiplus@@UAEPAV12@XZ 00414be0 f i ChongQing11X5.obj
 0001:00013c90       ??0Image@Gdiplus@@IAE@PAVGpImage@1@W4Status@1@@Z 00414c90 f i ChongQing11X5.obj
 0001:00013cd0       ?SetMinCol@CCellRange@@QAEXH@Z 00414cd0 f i GridCtrl.obj
 0001:00013cd0       ?SetState@CGridCellBase@@UAEXK@Z 00414cd0 f i DlgAddtional.obj
 0001:00013cd0       ?SetNativeImage@Image@Gdiplus@@IAEXPAVGpImage@2@@Z 00414cd0 f i ChongQing11X5.obj
 0001:00013cf0       ??_EBitmap@Gdiplus@@UAEPAXI@Z 00414cf0 f i ChongQing11X5.obj
 0001:00013cf0       ??_GBitmap@Gdiplus@@UAEPAXI@Z 00414cf0 f i ChongQing11X5.obj
 0001:00013d30       ??1Bitmap@Gdiplus@@UAE@XZ  00414d30 f i ChongQing11X5.obj
 0001:00013d50       ??_H@YGXPAXIHP6EPAX0@Z@Z   00414d50 f i ChongQing11X5.obj
 0001:00013d80       ??0MCD_CSTR@@QAE@PB_W@Z    00414d80 f i ChongQing11X5.obj
 0001:00013d80       ??0CPair@?$CMap@IINN@@IAE@I@Z 00414d80 f i ChongQing11X5.obj
 0001:00013da0       ??0MCD_CSTR@@QAE@ABV?$CStringT@_WV?$StrTraitMFC_DLL@_WV?$ChTraitsCRT@_W@ATL@@@@@ATL@@@Z 00414da0 f i ChongQing11X5.obj
 0001:00013dd0       ??0CMarkup@@QAE@XZ         00414dd0 f i ChongQing11X5.obj
 0001:00013e50       ?ResetMainPos@CMarkup@@QAEXXZ 00414e50 f i ChongQing11X5.obj
 0001:00013e80       ?GetChildAttrib@CMarkup@@QBE?AV?$CStringT@_WV?$StrTraitMFC_DLL@_WV?$ChTraitsCRT@_W@ATL@@@@@ATL@@UMCD_CSTR@@@Z 00414e80 f i ChongQing11X5.obj
 0001:00013ed0       ??BImageList_AddMasked_Type@CComCtlWrapper@@QAEP6GHPAU_IMAGELIST@@PAUHBITMAP__@@K@ZXZ 00414ed0 f i GridCtrl.obj
 0001:00013ed0       ??BMCD_CSTR@@QBEPB_WXZ     00414ed0 f i ChongQing11X5.obj
 0001:00013ed0       ??BImageList_GetImageInfo_Type@CComCtlWrapper@@QAEP6GHPAU_IMAGELIST@@HPAU_IMAGEINFO@@@ZXZ 00414ed0 f i GridCellBase.obj
 0001:00013ed0       ??BImageList_Draw_Type@CComCtlWrapper@@QAEP6GHPAU_IMAGELIST@@HPAUHDC__@@HHI@ZXZ 00414ed0 f i GridCellBase.obj
 0001:00013ed0       ?GetMinRow@CCellRange@@QBEHXZ 00414ed0 f i GridCtrl.obj
 0001:00013ef0       ?Combo@@YAXHH@Z            00414ef0 f   ChongQingSSC.obj
 0001:00013fe0       ?GetComboArray@@YAHHHPAHQAY04H@Z 00414fe0 f   ChongQingSSC.obj
 0001:00014080       ?InsertDouhaoAfter@@YAHHAAV?$basic_string@_WU?$char_traits@_W@std@@V?$allocator@_W@2@@std@@@Z 00415080 f   ChongQingSSC.obj
 0001:00014170       ?GetXiaZhuString@@YA?AV?$basic_string@_WU?$char_traits@_W@std@@V?$allocator@_W@2@@std@@HHHQAY04HH@Z 00415170 f   ChongQingSSC.obj
 0001:00014290       ?GetRuntimeClass@CChongQingSSC@@UBEPAUCRuntimeClass@@XZ 00415290 f   ChongQingSSC.obj
 0001:000142b0       ??0CChongQingSSC@@QAE@PAVCWnd@@@Z 004152b0 f   ChongQingSSC.obj
 0001:00015710       ??_GCChongQingSSC@@UAEPAXI@Z 00416710 f i ChongQingSSC.obj
 0001:00015710       ??_ECChongQingSSC@@UAEPAXI@Z 00416710 f i ChongQingSSC.obj
 0001:00015750       ??1CChongQingSSC@@UAE@XZ   00416750 f   ChongQingSSC.obj
 0001:00016b80       ?ConnectMainDlg@CChongQingSSC@@QAEXPAVCPlazaViewItem@@@Z 00417b80 f   ChongQingSSC.obj
 0001:00016bb0       ?FlushZongjine@CChongQingSSC@@QAEXXZ 00417bb0 f   ChongQingSSC.obj
 0001:00016be0       ?DoDataExchange@CChongQingSSC@@MAEXPAVCDataExchange@@@Z 00417be0 f   ChongQingSSC.obj
 0001:000180a0       ?GetMessageMap@CChongQingSSC@@MBEPBUAFX_MSGMAP@@XZ 004190a0 f   ChongQingSSC.obj
 0001:000180c0       ?GetThisMessageMap@CChongQingSSC@@KGPBUAFX_MSGMAP@@XZ 004190c0 f   ChongQingSSC.obj
 0001:000180e0       ?OnPaint@CChongQingSSC@@IAEXXZ 004190e0 f   ChongQingSSC.obj
 0001:00018380       ?OnEraseBkgnd@CZhangHuDlg@@IAEHPAVCDC@@@Z 00419380 f   ZhangHuDlg.obj
 0001:00018380       ?OnEraseBkgnd@CHuiYuanYktjDlg@@IAEHPAVCDC@@@Z 00419380 f   HuiYuanYktjDlg.obj
 0001:00018380       ?OnEraseBkgnd@CFenFenCai@@IAEHPAVCDC@@@Z 00419380 f   FenFenCai.obj
 0001:00018380       ?OnEraseBkgnd@CZhangHuYkMXDlg@@IAEHPAVCDC@@@Z 00419380 f   ZhangHuYkMXDlg.obj
 0001:00018380       ?OnEraseBkgnd@CJiangXi11X5@@IAEHPAVCDC@@@Z 00419380 f   JiangXi11X5.obj
 0001:00018380       ?OnEraseBkgnd@CHuiYuanHyxxDlg@@IAEHPAVCDC@@@Z 00419380 f   HuiYuanHyxxDlg.obj
 0001:00018380       ?OnEraseBkgnd@CHuiYuanTxLogDlg@@IAEHPAVCDC@@@Z 00419380 f   HuiYuanTxLogDlg.obj
 0001:00018380       ?OnEraseBkgnd@CHuiYuanDlg@@IAEHPAVCDC@@@Z 00419380 f   HuiYuanDlg.obj
 0001:00018380       ?OnEraseBkgnd@CGridCtrl@@IAEHPAVCDC@@@Z 00419380 f   GridCtrl.obj
 0001:00018380       ?OnEraseBkgnd@CNumerButton@@IAEHPAVCDC@@@Z 00419380 f   NumerButton.obj
 0001:00018380       ?OnEraseBkgnd@CMessageDlg@@IAEHPAVCDC@@@Z 00419380 f   MessageDlg.obj
 0001:00018380       ?OnEraseBkgnd@CXinJiangSSC@@IAEHPAVCDC@@@Z 00419380 f   XinJiangSSC.obj
 0001:00018380       ?OnEraseBkgnd@CGuangDong11X5@@IAEHPAVCDC@@@Z 00419380 f   GuangDong11X5.obj
 0001:00018380       ?OnEraseBkgnd@CWuFenCai@@IAEHPAVCDC@@@Z 00419380 f   WuFenCai.obj
 0001:00018380       ?OnEraseBkgnd@CChongQing11X5@@IAEHPAVCDC@@@Z 00419380 f   ChongQing11X5.obj
 0001:00018380       ?OnEraseBkgnd@CZhangHuBaseInfoDlg@@IAEHPAVCDC@@@Z 00419380 f   ZhangHuBaseInfoDlg.obj
 0001:00018380       ?OnEraseBkgnd@CXgfdDlg@@IAEHPAVCDC@@@Z 00419380 f   XgfdDlg.obj
 0001:00018380       ?ValidateEdit@CGridCellBase@@UAEHPB_W@Z 00419380 f   GridCellBase.obj
 0001:00018380       ?OnEraseBkgnd@CQrTzhDlg@@IAEHPAVCDC@@@Z 00419380 f   QrTzhDlg.obj
 0001:00018380       ?OnEraseBkgnd@CZhangHuTzhLogDlg@@IAEHPAVCDC@@@Z 00419380 f   ZhangHuTzhLogDlg.obj
 0001:00018380       ?OnEraseBkgnd@CHuiYuanXjtzhtjDlg@@IAEHPAVCDC@@@Z 00419380 f   HuiYuanXjtzhtjDlg.obj
 0001:00018380       ?OnEraseBkgnd@CHuoDongZaJinDanDlg@@IAEHPAVCDC@@@Z 00419380 f   HuoDongZaJinDanDlg.obj
 0001:00018380       ?OnEraseBkgnd@CZhangHuZhhbhDlg@@IAEHPAVCDC@@@Z 00419380 f   ZhangHuZhhbhDlg.obj
 0001:00018380       ?OnEraseBkgnd@CQuKuanDlg@@IAEHPAVCDC@@@Z 00419380 f   QuKuanDlg.obj
 0001:00018380       ?OnEraseBkgnd@CHuiYuanHyshjDlg@@IAEHPAVCDC@@@Z 00419380 f   HuiYuanHyshjDlg.obj
 0001:00018380       ?OnEraseBkgnd@CServerViewItem@@IAEHPAVCDC@@@Z 00419380 f   ServerViewItem.obj
 0001:00018380       ?OnEraseBkgnd@CHuiYuanChkxjtzhDlg@@IAEHPAVCDC@@@Z 00419380 f   HuiYuanChkxjtzhDlg.obj
 0001:00018380       ?OnEraseBkgnd@CHuiYuanTjxjDlg@@IAEHPAVCDC@@@Z 00419380 f   HuiYuanTjxjDlg.obj
 0001:00018380       ?OnEraseBkgnd@CImgRioButton@@IAEHPAVCDC@@@Z 00419380 f   ImgRioButton.obj
 0001:00018380       ?OnEraseBkgnd@CChongQingSSC@@IAEHPAVCDC@@@Z 00419380 f   ChongQingSSC.obj
 0001:00018380       ?OnEraseBkgnd@CZhangHuYkLogDlg@@IAEHPAVCDC@@@Z 00419380 f   ZhangHuYkLogDlg.obj
 0001:00018380       ?OnEraseBkgnd@CTextButton@@IAEHPAVCDC@@@Z 00419380 f   TextButton.obj
 0001:00018380       ?OnEraseBkgnd@CImageButton@@IAEHPAVCDC@@@Z 00419380 f   ImageButton.obj
 0001:00018380       ?OnEraseBkgnd@CZhangHuQPYkDlg@@IAEHPAVCDC@@@Z 00419380 f   ZhangHuQPYkDlg.obj
 0001:00018380       ?OnEraseBkgnd@CZhuanhuanDlg@@IAEHPAVCDC@@@Z 00419380 f   ZhuanhuanDlg.obj
 0001:00018380       ?OnEraseBkgnd@CHuoDongDlg@@IAEHPAVCDC@@@Z 00419380 f   HuoDongDlg.obj
 0001:00018380       ?OnEraseBkgnd@CZhangHuTxLogDlg@@IAEHPAVCDC@@@Z 00419380 f   ZhangHuTxLogDlg.obj
 0001:00018380       ?OnEraseBkgnd@CHuiYuanChzhLogDlg@@IAEHPAVCDC@@@Z 00419380 f   HuiYuanChzhLogDlg.obj
 0001:00018380       ?OnEraseBkgnd@CTiShiDlg@@IAEHPAVCDC@@@Z 00419380 f   TiShiDlg.obj
 0001:00018380       ?OnEraseBkgnd@CHuiYuanYkLogDlg@@IAEHPAVCDC@@@Z 00419380 f   HuiYuanYkLogDlg.obj
 0001:00018380       ?OnEraseBkgnd@CZhangHuChzhLogDlg@@IAEHPAVCDC@@@Z 00419380 f   ZhangHuChzhLogDlg.obj
 0001:00018380       ?OnEraseBkgnd@CTzhxxDlg@@IAEHPAVCDC@@@Z 00419380 f   TzhxxDlg.obj
 0001:00018380       ?OnEraseBkgnd@CZhangHuXgmmDlg@@IAEHPAVCDC@@@Z 00419380 f   ZhangHuXgmmDlg.obj
 0001:00018380       ?OnEraseBkgnd@CShanDong11X5@@IAEHPAVCDC@@@Z 00419380 f   ShanDong11X5.obj
 0001:00018380       ?OnEraseBkgnd@CChongZhiDlg@@IAEHPAVCDC@@@Z 00419380 f   ChongZhiDlg.obj
 0001:00018380       ?OnEraseBkgnd@CZhangHuShZhTkZhhDlg@@IAEHPAVCDC@@@Z 00419380 f   ZhangHuShZhTkZhhDlg.obj
 0001:00018380       ?OnEraseBkgnd@CJiangXiSSC@@IAEHPAVCDC@@@Z 00419380 f   JiangXiSSC.obj
 0001:00018380       ?OnEraseBkgnd@CImgStatic@@IAEHPAVCDC@@@Z 00419380 f   ImgStatic.obj
 0001:000183a0       ?OnSize@CChongQingSSC@@IAEXIHH@Z 004193a0 f   ChongQingSSC.obj
 0001:00018410       ?OnShowWindow@CChongQingSSC@@IAEXHI@Z 00419410 f   ChongQingSSC.obj
 0001:00018500       ?OnTimer@CChongQingSSC@@IAEXI@Z 00419500 f   ChongQingSSC.obj
 0001:00018850       ?OnBnClickedBtnHszhx@CChongQingSSC@@IAEXXZ 00419850 f   ChongQingSSC.obj
 0001:000188c0       ?OnBnClickedBtnNiuNiu@CChongQingSSC@@IAEXXZ 004198c0 f   ChongQingSSC.obj
 0001:00018910       ?OnBnClickedBtnHszx@CChongQingSSC@@IAEXXZ 00419910 f   ChongQingSSC.obj
 0001:00018970       ?OnBnClickedBtnWxhe@CChongQingSSC@@IAEXXZ 00419970 f   ChongQingSSC.obj
 0001:00018a20       ?OnBnClickedBtnHezx@CChongQingSSC@@IAEXXZ 00419a20 f   ChongQingSSC.obj
 0001:00018aa0       ?OnBnClickedBtnDxdsh@CChongQingSSC@@IAEXXZ 00419aa0 f   ChongQingSSC.obj
 0001:00018b00       ?OnBnClickedBtnBdw@CChongQingSSC@@IAEXXZ 00419b00 f   ChongQingSSC.obj
 0001:00018b80       ?OnBnClickedBtnQszhx@CChongQingSSC@@IAEXXZ 00419b80 f   ChongQingSSC.obj
 0001:00018c00       ?OnBnClickedBtnQszx@CChongQingSSC@@IAEXXZ 00419c00 f   ChongQingSSC.obj
 0001:00018c70       ?OnBnClickedBtnWxqe@CChongQingSSC@@IAEXXZ 00419c70 f   ChongQingSSC.obj
 0001:00018cf0       ?OnBnClickedBtnQezx@CChongQingSSC@@IAEXXZ 00419cf0 f   ChongQingSSC.obj
 0001:00018d70       ?OnBnClickedBtnHszhxhzh@CChongQingSSC@@IAEXXZ 00419d70 f   ChongQingSSC.obj
 0001:00018df0       ?OnBnClickedBtnDwd@CChongQingSSC@@IAEXXZ 00419df0 f   ChongQingSSC.obj
 0001:00018e50       ?OnBnClickedBtnQw@CChongQingSSC@@IAEXXZ 00419e50 f   ChongQingSSC.obj
 0001:00018ed0       ?OnInitDialog@CChongQingSSC@@MAEHXZ 00419ed0 f   ChongQingSSC.obj
 0001:00019c80       ?OnBnClickedBtnNiuQuan@CChongQingSSC@@IAEXXZ 0041ac80 f   ChongQingSSC.obj
 0001:00019d40       ?OnBnClickedBtnNiuDa@CChongQingSSC@@IAEXXZ 0041ad40 f   ChongQingSSC.obj
 0001:00019e00       ?OnBnClickedBtnNiuXiao@CChongQingSSC@@IAEXXZ 0041ae00 f   ChongQingSSC.obj
 0001:00019ec0       ?OnBnClickedBtnNiuDan@CChongQingSSC@@IAEXXZ 0041aec0 f   ChongQingSSC.obj
 0001:00019f80       ?OnBnClickedBtnNiuShuang@CChongQingSSC@@IAEXXZ 0041af80 f   ChongQingSSC.obj
 0001:0001a040       ?OnBnClickedBtnNiuQing@CChongQingSSC@@IAEXXZ 0041b040 f   ChongQingSSC.obj
 0001:0001a100       ?OnBnClickedBtnWanQuan@CChongQingSSC@@IAEXXZ 0041b100 f   ChongQingSSC.obj
 0001:0001a1c0       ?OnBnClickedBtnWanDa@CChongQingSSC@@IAEXXZ 0041b1c0 f   ChongQingSSC.obj
 0001:0001a280       ?OnBnClickedBtnWanXiao@CChongQingSSC@@IAEXXZ 0041b280 f   ChongQingSSC.obj
 0001:0001a340       ?OnBnClickedBtnWanDan@CChongQingSSC@@IAEXXZ 0041b340 f   ChongQingSSC.obj
 0001:0001a400       ?OnBnClickedBtnWanShuang@CChongQingSSC@@IAEXXZ 0041b400 f   ChongQingSSC.obj
 0001:0001a4c0       ?OnBnClickedBtnWanQing@CChongQingSSC@@IAEXXZ 0041b4c0 f   ChongQingSSC.obj
 0001:0001a580       ?OnBnClickedBtnQianQuan@CChongQingSSC@@IAEXXZ 0041b580 f   ChongQingSSC.obj
 0001:0001a640       ?OnBnClickedBtnQianDa@CChongQingSSC@@IAEXXZ 0041b640 f   ChongQingSSC.obj
 0001:0001a700       ?OnBnClickedBtnQianXiao@CChongQingSSC@@IAEXXZ 0041b700 f   ChongQingSSC.obj
 0001:0001a7c0       ?OnBnClickedBtnQianDan@CChongQingSSC@@IAEXXZ 0041b7c0 f   ChongQingSSC.obj
 0001:0001a880       ?OnBnClickedBtnQianShuang@CChongQingSSC@@IAEXXZ 0041b880 f   ChongQingSSC.obj
 0001:0001a940       ?OnBnClickedBtnQianQing@CChongQingSSC@@IAEXXZ 0041b940 f   ChongQingSSC.obj
 0001:0001aa00       ?OnBnClickedBtnBaiQuan@CChongQingSSC@@IAEXXZ 0041ba00 f   ChongQingSSC.obj
 0001:0001aac0       ?OnBnClickedBtnBaiDa@CChongQingSSC@@IAEXXZ 0041bac0 f   ChongQingSSC.obj
 0001:0001ab80       ?OnBnClickedBtnBaiXiao@CChongQingSSC@@IAEXXZ 0041bb80 f   ChongQingSSC.obj
 0001:0001ac40       ?OnBnClickedBtnBaiDan@CChongQingSSC@@IAEXXZ 0041bc40 f   ChongQingSSC.obj
 0001:0001ad00       ?OnBnClickedBtnBaiShuang@CChongQingSSC@@IAEXXZ 0041bd00 f   ChongQingSSC.obj
 0001:0001adc0       ?OnBnClickedBtnBaiQing@CChongQingSSC@@IAEXXZ 0041bdc0 f   ChongQingSSC.obj
 0001:0001ae80       ?OnBnClickedBtnShiQuan@CChongQingSSC@@IAEXXZ 0041be80 f   ChongQingSSC.obj
 0001:0001af40       ?OnBnClickedBtnShiDa@CChongQingSSC@@IAEXXZ 0041bf40 f   ChongQingSSC.obj
 0001:0001b000       ?OnBnClickedBtnShiXiao@CChongQingSSC@@IAEXXZ 0041c000 f   ChongQingSSC.obj
 0001:0001b0c0       ?OnBnClickedBtnShiDan@CChongQingSSC@@IAEXXZ 0041c0c0 f   ChongQingSSC.obj
 0001:0001b180       ?OnBnClickedBtnShiShuang@CChongQingSSC@@IAEXXZ 0041c180 f   ChongQingSSC.obj
 0001:0001b240       ?OnBnClickedBtnShiQing@CChongQingSSC@@IAEXXZ 0041c240 f   ChongQingSSC.obj
 0001:0001b300       ?OnBnClickedBtnGeQuan@CChongQingSSC@@IAEXXZ 0041c300 f   ChongQingSSC.obj
 0001:0001b3c0       ?OnBnClickedBtnGeDa@CChongQingSSC@@IAEXXZ 0041c3c0 f   ChongQingSSC.obj
 0001:0001b480       ?OnBnClickedBtnGeXiao@CChongQingSSC@@IAEXXZ 0041c480 f   ChongQingSSC.obj
 0001:0001b540       ?OnBnClickedBtnGeDan@CChongQingSSC@@IAEXXZ 0041c540 f   ChongQingSSC.obj
 0001:0001b600       ?OnBnClickedBtnGeShuang@CChongQingSSC@@IAEXXZ 0041c600 f   ChongQingSSC.obj
 0001:0001b6c0       ?OnBnClickedBtnGeQing@CChongQingSSC@@IAEXXZ 0041c6c0 f   ChongQingSSC.obj
 0001:0001b780       ?OnBnClickedBtnChqAdd@CChongQingSSC@@IAEXXZ 0041c780 f   ChongQingSSC.obj
 0001:00028470       ?Add@CStringArray@@QAEHPB_W@Z 00429470 f i ChongQingSSC.obj
 0001:000284b0       ?InitNumberBtns@CChongQingSSC@@AAEXXZ 004294b0 f   ChongQingSSC.obj
 0001:000294a0       ?InitListCtrl@CChongQingSSC@@AAEXXZ 0042a4a0 f   ChongQingSSC.obj
 0001:00029550       ?OnBnClickedRioHszhxFushi@CChongQingSSC@@IAEXXZ 0042a550 f   ChongQingSSC.obj
 0001:00029630       ?OnBnClickedRioYffs@CChongQingSSC@@IAEXXZ 0042a630 f   ChongQingSSC.obj
 0001:00029700       ?OnBnClickedRioHscs@CChongQingSSC@@IAEXXZ 0042a700 f   ChongQingSSC.obj
 0001:000297d0       ?OnBnClickedRioSxbx@CChongQingSSC@@IAEXXZ 0042a7d0 f   ChongQingSSC.obj
 0001:000298a0       ?OnBnClickedRioSjfc@CChongQingSSC@@IAEXXZ 0042a8a0 f   ChongQingSSC.obj
 0001:00029970       ?OnBnClickedRioQsHezhi@CChongQingSSC@@IAEXXZ 0042a970 f   ChongQingSSC.obj
 0001:00029a30       ?OnBnClickedRioHsHezhi@CChongQingSSC@@IAEXXZ 0042aa30 f   ChongQingSSC.obj
 0001:00029ae0       ?OnBnClickedRioNiuNiu@CChongQingSSC@@IAEXXZ 0042aae0 f   ChongQingSSC.obj
 0001:00029b80       ?OnBnClickedRioWuXingZhx@CChongQingSSC@@IAEXXZ 0042ab80 f   ChongQingSSC.obj
 0001:00029ca0       ?OnBnClickedRioWuXingQs@CChongQingSSC@@IAEXXZ 0042aca0 f   ChongQingSSC.obj
 0001:00029d70       ?OnBnClickedRioWuXingHS@CChongQingSSC@@IAEXXZ 0042ad70 f   ChongQingSSC.obj
 0001:00029e40       ?OnBnClickedRioWuXingZS@CChongQingSSC@@IAEXXZ 0042ae40 f   ChongQingSSC.obj
 0001:00029f20       ?OnBnClickedRioHszhxDanshi@CChongQingSSC@@IAEXXZ 0042af20 f   ChongQingSSC.obj
 0001:0002a030       ?OnBnClickedRioQszhxFushi@CChongQingSSC@@IAEXXZ 0042b030 f   ChongQingSSC.obj
 0001:0002a110       ?OnBnClickedRioQszhxDanshi@CChongQingSSC@@IAEXXZ 0042b110 f   ChongQingSSC.obj
 0001:0002a220       ?OnBnClickedRioRenXuan2@CChongQingSSC@@IAEXXZ 0042b220 f   ChongQingSSC.obj
 0001:0002a320       ?OnBnClickedRioRenXuan3@CChongQingSSC@@IAEXXZ 0042b320 f   ChongQingSSC.obj
 0001:0002a410       ?OnBnClickedRioRenXuan4@CChongQingSSC@@IAEXXZ 0042b410 f   ChongQingSSC.obj
 0001:0002a510       ?OnBnClickedRioHszsFushi@CChongQingSSC@@IAEXXZ 0042b510 f   ChongQingSSC.obj
 0001:0002a630       ?OnBnClickedRioHszsDanshi@CChongQingSSC@@IAEXXZ 0042b630 f   ChongQingSSC.obj
 0001:0002a6e0       ?OnBnClickedRioHszlFushi@CChongQingSSC@@IAEXXZ 0042b6e0 f   ChongQingSSC.obj
 0001:0002a800       ?OnBnClickedRioZszlFushi@CChongQingSSC@@IAEXXZ 0042b800 f   ChongQingSSC.obj
 0001:0002a920       ?OnBnClickedRioZszsFushi@CChongQingSSC@@IAEXXZ 0042b920 f   ChongQingSSC.obj
 0001:0002aa40       ?OnBnClickedRioZuXuan120@CChongQingSSC@@IAEXXZ 0042ba40 f   ChongQingSSC.obj
 0001:0002ab70       ?OnBnClickedRioZuXuan60@CChongQingSSC@@IAEXXZ 0042bb70 f   ChongQingSSC.obj
 0001:0002aca0       ?OnBnClickedRioZuXuan30@CChongQingSSC@@IAEXXZ 0042bca0 f   ChongQingSSC.obj
 0001:0002add0       ?OnBnClickedRioZuXuan20@CChongQingSSC@@IAEXXZ 0042bdd0 f   ChongQingSSC.obj
 0001:0002af00       ?OnBnClickedRioZuXuan10@CChongQingSSC@@IAEXXZ 0042bf00 f   ChongQingSSC.obj
 0001:0002b030       ?OnBnClickedRioZuXuan5@CChongQingSSC@@IAEXXZ 0042c030 f   ChongQingSSC.obj
 0001:0002b160       ?OnBnClickedRioHszlDanshi@CChongQingSSC@@IAEXXZ 0042c160 f   ChongQingSSC.obj
 0001:0002b210       ?OnBnClickedRioQszsFushi@CChongQingSSC@@IAEXXZ 0042c210 f   ChongQingSSC.obj
 0001:0002b330       ?OnBnClickedRioQszsDanshi@CChongQingSSC@@IAEXXZ 0042c330 f   ChongQingSSC.obj
 0001:0002b3e0       ?OnBnClickedRioQszlFushi@CChongQingSSC@@IAEXXZ 0042c3e0 f   ChongQingSSC.obj
 0001:0002b500       ?OnBnClickedRioQszlDanshi@CChongQingSSC@@IAEXXZ 0042c500 f   ChongQingSSC.obj
 0001:0002b5b0       ?OnBnClickedRioHezhxFushi@CChongQingSSC@@IAEXXZ 0042c5b0 f   ChongQingSSC.obj
 0001:0002b680       ?OnBnClickedRioHezhxDanshi@CChongQingSSC@@IAEXXZ 0042c680 f   ChongQingSSC.obj
 0001:0002b750       ?OnBnClickedRioHezxFushi@CChongQingSSC@@IAEXXZ 0042c750 f   ChongQingSSC.obj
 0001:0002b820       ?OnBnClickedRioHezxDanshi@CChongQingSSC@@IAEXXZ 0042c820 f   ChongQingSSC.obj
 0001:0002b8f0       ?OnBnClickedRioQezhxFushi@CChongQingSSC@@IAEXXZ 0042c8f0 f   ChongQingSSC.obj
 0001:0002b9c0       ?OnBnClickedRioQezhxDanshi@CChongQingSSC@@IAEXXZ 0042c9c0 f   ChongQingSSC.obj
 0001:0002ba90       ?OnBnClickedRioQezxFushi@CChongQingSSC@@IAEXXZ 0042ca90 f   ChongQingSSC.obj
 0001:0002bb60       ?OnBnClickedRioQezxDanshi@CChongQingSSC@@IAEXXZ 0042cb60 f   ChongQingSSC.obj
 0001:0002bc30       ?OnBnClickedRioDxdsh@CChongQingSSC@@IAEXXZ 0042cc30 f   ChongQingSSC.obj
 0001:0002bcd0       ?OnBnClickedRioQsbdw@CChongQingSSC@@IAEXXZ 0042ccd0 f   ChongQingSSC.obj
 0001:0002bda0       ?OnBnClickedRioHsbdw@CChongQingSSC@@IAEXXZ 0042cda0 f   ChongQingSSC.obj
 0001:0002be70       ?OnBnClickedRioQsHunhe@CChongQingSSC@@IAEXXZ 0042ce70 f   ChongQingSSC.obj
 0001:0002bf30       ?OnBnClickedRioZsHunhe@CChongQingSSC@@IAEXXZ 0042cf30 f   ChongQingSSC.obj
 0001:0002bff0       ?OnBnClickedRioHsHunhe@CChongQingSSC@@IAEXXZ 0042cff0 f   ChongQingSSC.obj
 0001:0002c0b0       ?OnBnClickedRioDwd@CChongQingSSC@@IAEXXZ 0042d0b0 f   ChongQingSSC.obj
 0001:0002c150       ?OnBnClickedRioHebdw@CChongQingSSC@@IAEXXZ 0042d150 f   ChongQingSSC.obj
 0001:0002c220       ?OnBnClickedRioQebdw@CChongQingSSC@@IAEXXZ 0042d220 f   ChongQingSSC.obj
 0001:0002c2f0       ?OnBnClickedBtnZhuihao@CChongQingSSC@@IAEXXZ 0042d2f0 f   ChongQingSSC.obj
 0001:0002c640       ?CheckInput@CChongQingSSC@@QAE_NXZ 0042d640 f   ChongQingSSC.obj
 0001:0002cf70       ?OnBnClickedBtnTouzhu@CChongQingSSC@@IAEXXZ 0042df70 f   ChongQingSSC.obj
 0001:0002d130       ?OnBnClickedBtnDelSel@CChongQingSSC@@IAEXXZ 0042e130 f   ChongQingSSC.obj
 0001:0002d250       ?OnBnClickedBtnClsList@CChongQingSSC@@QAEXXZ 0042e250 f   ChongQingSSC.obj
 0001:0002d300       ?OnEnChangeEditDanshiInput@CChongQingSSC@@QAEXXZ 0042e300 f   ChongQingSSC.obj
 0001:0002d330       ?OnEnChangeEditBeishu@CChongQingSSC@@QAEXXZ 0042e330 f   ChongQingSSC.obj
 0001:0002d4e0       ?IsNumBtnCheck@CXinJiangSSC@@AAE_NAAVCNumerButton@@@Z 0042e4e0 f   XinJiangSSC.obj
 0001:0002d4e0       ?IsNumBtnCheck@CChongQing11X5@@AAE_NAAVCNumerButton@@@Z 0042e4e0 f   ChongQing11X5.obj
 0001:0002d4e0       ?IsNumBtnCheck@CFenFenCai@@AAE_NAAVCNumerButton@@@Z 0042e4e0 f   FenFenCai.obj
 0001:0002d4e0       ?IsNumBtnCheck@CShanDong11X5@@AAE_NAAVCNumerButton@@@Z 0042e4e0 f   ShanDong11X5.obj
 0001:0002d4e0       ?IsNumBtnCheck@CJiangXiSSC@@AAE_NAAVCNumerButton@@@Z 0042e4e0 f   JiangXiSSC.obj
 0001:0002d4e0       ?IsNumBtnCheck@CGuangDong11X5@@AAE_NAAVCNumerButton@@@Z 0042e4e0 f   GuangDong11X5.obj
 0001:0002d4e0       ?IsNumBtnCheck@CChongQingSSC@@AAE_NAAVCNumerButton@@@Z 0042e4e0 f   ChongQingSSC.obj
 0001:0002d4e0       ?IsNumBtnCheck@CJiangXi11X5@@AAE_NAAVCNumerButton@@@Z 0042e4e0 f   JiangXi11X5.obj
 0001:0002d4e0       ?IsNumBtnCheck@CWuFenCai@@AAE_NAAVCNumerButton@@@Z 0042e4e0 f   WuFenCai.obj
 0001:0002d500       ?HideAllRio@CChongQingSSC@@AAEXXZ 0042e500 f   ChongQingSSC.obj
 0001:0002d850       ?GetNiuString@CChongQingSSC@@AAE?AV?$CStringT@_WV?$StrTraitMFC_DLL@_WV?$ChTraitsCRT@_W@ATL@@@@@ATL@@XZ 0042e850 f   ChongQingSSC.obj
 0001:0002da50       ?GetNiuNumString@CChongQingSSC@@AAE?AV?$CStringT@_WV?$StrTraitMFC_DLL@_WV?$ChTraitsCRT@_W@ATL@@@@@ATL@@XZ 0042ea50 f   ChongQingSSC.obj
 0001:0002dc50       ?GetHezhiString@CChongQingSSC@@AAE?AV?$CStringT@_WV?$StrTraitMFC_DLL@_WV?$ChTraitsCRT@_W@ATL@@@@@ATL@@XZ 0042ec50 f   ChongQingSSC.obj
 0001:0002e100       ?GetWanString@CChongQingSSC@@AAE?AV?$CStringT@_WV?$StrTraitMFC_DLL@_WV?$ChTraitsCRT@_W@ATL@@@@@ATL@@XZ 0042f100 f   ChongQingSSC.obj
 0001:0002e300       ?GetQianString@CChongQingSSC@@AAE?AV?$CStringT@_WV?$StrTraitMFC_DLL@_WV?$ChTraitsCRT@_W@ATL@@@@@ATL@@XZ 0042f300 f   ChongQingSSC.obj
 0001:0002e500       ?GetBaiString@CChongQingSSC@@AAE?AV?$CStringT@_WV?$StrTraitMFC_DLL@_WV?$ChTraitsCRT@_W@ATL@@@@@ATL@@XZ 0042f500 f   ChongQingSSC.obj
 0001:0002e700       ?GetShiString@CChongQingSSC@@AAE?AV?$CStringT@_WV?$StrTraitMFC_DLL@_WV?$ChTraitsCRT@_W@ATL@@@@@ATL@@XZ 0042f700 f   ChongQingSSC.obj
 0001:0002e900       ?GetGeString@CChongQingSSC@@AAE?AV?$CStringT@_WV?$StrTraitMFC_DLL@_WV?$ChTraitsCRT@_W@ATL@@@@@ATL@@XZ 0042f900 f   ChongQingSSC.obj
 0001:0002eb00       ?GetShiDxdshString@CChongQingSSC@@AAE?AV?$CStringT@_WV?$StrTraitMFC_DLL@_WV?$ChTraitsCRT@_W@ATL@@@@@ATL@@XZ 0042fb00 f   ChongQingSSC.obj
 0001:0002ec20       ?GetGeDxdshString@CChongQingSSC@@AAE?AV?$CStringT@_WV?$StrTraitMFC_DLL@_WV?$ChTraitsCRT@_W@ATL@@@@@ATL@@XZ 0042fc20 f   ChongQingSSC.obj
 0001:0002ed40       ?GetWanDesc@CChongQingSSC@@AAE?AV?$CStringT@_WV?$StrTraitMFC_DLL@_WV?$ChTraitsCRT@_W@ATL@@@@@ATL@@XZ 0042fd40 f   ChongQingSSC.obj
 0001:0002ed90       ?AdjustWanFa@CChongQingSSC@@AAEXXZ 0042fd90 f   ChongQingSSC.obj
 0001:0002f1c0       ?AdjustRadio@CChongQingSSC@@AAEXXZ 004301c0 f   ChongQingSSC.obj
 0001:0002fbd0       ?AdjustNumBtn@CChongQingSSC@@AAEXXZ 00430bd0 f   ChongQingSSC.obj
 0001:00032740       ?AdjustNumView@CChongQingSSC@@AAEXXZ 00433740 f   ChongQingSSC.obj
 0001:000328f0       ?AdjustDanShi@CChongQingSSC@@AAEXXZ 004338f0 f   ChongQingSSC.obj
 0001:00032a60       ?AdjustAdd@CChongQingSSC@@AAEXXZ 00433a60 f   ChongQingSSC.obj
 0001:00032b10       ?HideHeZhiNums@CChongQingSSC@@AAEXXZ 00433b10 f   ChongQingSSC.obj
 0001:00032cf0       ?ShowHeZhiNums@CChongQingSSC@@AAEXXZ 00433cf0 f   ChongQingSSC.obj
 0001:00032ed0       ?HideWanNums@CChongQingSSC@@AAEXXZ 00433ed0 f   ChongQingSSC.obj
 0001:00033000       ?HideQianNums@CChongQingSSC@@AAEXXZ 00434000 f   ChongQingSSC.obj
 0001:00033130       ?HideBaiNums@CChongQingSSC@@AAEXXZ 00434130 f   ChongQingSSC.obj
 0001:000332e0       ?HideShiNums@CChongQingSSC@@AAEXXZ 004342e0 f   ChongQingSSC.obj
 0001:00033420       ?HideGeNums@CChongQingSSC@@AAEXXZ 00434420 f   ChongQingSSC.obj
 0001:00033550       ?ShowWanNums@CChongQingSSC@@AAEXXZ 00434550 f   ChongQingSSC.obj
 0001:00033680       ?ShowNiuNums@CChongQingSSC@@AAEXXZ 00434680 f   ChongQingSSC.obj
 0001:000337b0       ?HideNiuNums@CChongQingSSC@@AAEXXZ 004347b0 f   ChongQingSSC.obj
 0001:000338e0       ?ShowQianNums@CChongQingSSC@@AAEXXZ 004348e0 f   ChongQingSSC.obj
 0001:00033a10       ?ShowBaiNums@CChongQingSSC@@AAEXXZ 00434a10 f   ChongQingSSC.obj
 0001:00033bc0       ?ShowShiNums@CChongQingSSC@@AAEXXZ 00434bc0 f   ChongQingSSC.obj
 0001:00033d10       ?ShowGeNums@CChongQingSSC@@AAEXXZ 00434d10 f   ChongQingSSC.obj
 0001:00033e40       ?ShowZuXuan@CChongQingSSC@@AAEXXZ 00434e40 f   ChongQingSSC.obj
 0001:00033ee0       ?ShowDanHao@CChongQingSSC@@AAEXXZ 00434ee0 f   ChongQingSSC.obj
 0001:00033f30       ?ShowErChong1@CChongQingSSC@@AAEXXZ 00434f30 f   ChongQingSSC.obj
 0001:00033f80       ?ShowXuanHao@CChongQingSSC@@AAEXXZ 00434f80 f   ChongQingSSC.obj
 0001:00034020       ?ShowZu120@CChongQingSSC@@AAEXXZ 00435020 f   ChongQingSSC.obj
 0001:000340c0       ?ShowBuDingWei@CChongQingSSC@@AAEXXZ 004350c0 f   ChongQingSSC.obj
 0001:00034160       ?ShowErChong@CChongQingSSC@@AAEXXZ 00435160 f   ChongQingSSC.obj
 0001:00034200       ?ShowSanChong@CChongQingSSC@@AAEXXZ 00435200 f   ChongQingSSC.obj
 0001:000342a0       ?ShowSiChong@CChongQingSSC@@AAEXXZ 004352a0 f   ChongQingSSC.obj
 0001:00034340       ?ShowDaXiaoDanShuang@CChongQingSSC@@AAEXXZ 00435340 f   ChongQingSSC.obj
 0001:00034400       ?HideDaXiaoDanShuang@CChongQingSSC@@AAEXXZ 00435400 f   ChongQingSSC.obj
 0001:000344a0       ?HideDanShiEdit@CChongQingSSC@@AAEXXZ 004354a0 f   ChongQingSSC.obj
 0001:000344d0       ?ShowDanShiEdit@CChongQingSSC@@AAEXXZ 004354d0 f   ChongQingSSC.obj
 0001:00034500       ?ShowRenxuanWeiShu@CChongQingSSC@@AAEXXZ 00435500 f   ChongQingSSC.obj
 0001:000345e0       ?HideRenxuanWeiShu@CChongQingSSC@@AAEXXZ 004355e0 f   ChongQingSSC.obj
 0001:000346c0       ?CheckWanFaBtn@CChongQingSSC@@AAEXAAVCTextButton@@@Z 004356c0 f   ChongQingSSC.obj
 0001:000347c0       ?SendToServer@CChongQingSSC@@AAEXH@Z 004357c0 f   ChongQingSSC.obj
 0001:000348d0       ?LuckyNumCQSSC@CChongQingSSC@@AAE_NXZ 004358d0 f   ChongQingSSC.obj
 0001:00034e10       ?GetKjShjDiff@CChongQingSSC@@AAEJXZ 00435e10 f   ChongQingSSC.obj
 0001:00034e80       ?DrawLastKjHaoma@CChongQingSSC@@AAEXPAVCDC@@AAVGraphics@Gdiplus@@@Z 00435e80 f   ChongQingSSC.obj
 0001:00035610       ?DrawTopKjHaoma@CChongQingSSC@@AAEXPAVCDC@@AAVGraphics@Gdiplus@@@Z 00436610 f   ChongQingSSC.obj
 0001:00035970       ?DrawBigNum@CChongQingSSC@@AAEXAAVGraphics@Gdiplus@@PAVBitmap@3@AAVRect@3@H@Z 00436970 f   ChongQingSSC.obj
 0001:000359d0       ?DrawSmallNum@CChongQingSSC@@AAEXAAVGraphics@Gdiplus@@PAVBitmap@3@AAVRect@3@H@Z 004369d0 f   ChongQingSSC.obj
 0001:00035a30       ?DrawZongZhushuJinE@CChongQingSSC@@AAEXPAVCDC@@@Z 00436a30 f   ChongQingSSC.obj
 0001:00035c10       ?ResetAllNums@CChongQingSSC@@AAEXXZ 00436c10 f   ChongQingSSC.obj
 0001:000362a0       ?SetLockText@CChongQingSSC@@AAEXMM@Z 004372a0 f   ChongQingSSC.obj
 0001:000363a0       ?GetZuSanHaoma@CChongQingSSC@@AAE_NAAVCStringArray@@@Z 004373a0 f   ChongQingSSC.obj
 0001:00036540       ?GetZuSanHaoma@CChongQingSSC@@AAE_NAAV?$CStringT@_WV?$StrTraitMFC_DLL@_WV?$ChTraitsCRT@_W@ATL@@@@@ATL@@AAH@Z 00437540 f   ChongQingSSC.obj
 0001:00036640       ?IsZuSanHaoma@CChongQingSSC@@AAE_NABV?$CStringT@_WV?$StrTraitMFC_DLL@_WV?$ChTraitsCRT@_W@ATL@@@@@ATL@@@Z 00437640 f   ChongQingSSC.obj
 0001:00036640       ?IsZuSanHaoma@CWuFenCai@@AAE_NABV?$CStringT@_WV?$StrTraitMFC_DLL@_WV?$ChTraitsCRT@_W@ATL@@@@@ATL@@@Z 00437640 f   WuFenCai.obj
 0001:00036640       ?IsZuSanHaoma@CJiangXiSSC@@AAE_NABV?$CStringT@_WV?$StrTraitMFC_DLL@_WV?$ChTraitsCRT@_W@ATL@@@@@ATL@@@Z 00437640 f   JiangXiSSC.obj
 0001:00036640       ?IsZuSanHaoma@CFenFenCai@@AAE_NABV?$CStringT@_WV?$StrTraitMFC_DLL@_WV?$ChTraitsCRT@_W@ATL@@@@@ATL@@@Z 00437640 f   FenFenCai.obj
 0001:00036640       ?IsZuSanHaoma@CXinJiangSSC@@AAE_NABV?$CStringT@_WV?$StrTraitMFC_DLL@_WV?$ChTraitsCRT@_W@ATL@@@@@ATL@@@Z 00437640 f   XinJiangSSC.obj
 0001:00036700       ?GetDanShiHaoma@CChongQingSSC@@AAE_NAAV?$CStringT@_WV?$StrTraitMFC_DLL@_WV?$ChTraitsCRT@_W@ATL@@@@@ATL@@HAAHH@Z 00437700 f   ChongQingSSC.obj
 0001:000369c0       ?GetHaomaStrs@CChongQingSSC@@AAE_NAAVCStringArray@@V?$CStringT@_WV?$StrTraitMFC_DLL@_WV?$ChTraitsCRT@_W@ATL@@@@@ATL@@H@Z 004379c0 f   ChongQingSSC.obj
 0001:00036da0       ?InitWanFaMoShi@CChongQingSSC@@AAEXXZ 00437da0 f   ChongQingSSC.obj
 0001:00037350       ?OnEventMissionLink@CChongQingSSC@@UAE_NHH@Z 00438350 f   ChongQingSSC.obj
 0001:00038ba0       ?OnEventMissionShut@CChongQingSSC@@UAE_NE@Z 00439ba0 f   ChongQingSSC.obj
 0001:00038d40       ?OnEventMissionRead@CChongQingSSC@@UAE_NUTCP_Command@@PAXG@Z 00439d40 f   ChongQingSSC.obj
 0001:00039730       ?OnMouseMove@CChongQingSSC@@IAEXIVCPoint@@@Z 0043a730 f   ChongQingSSC.obj
 0001:000397b0       ?OnLButtonDown@CChongQingSSC@@IAEXIVCPoint@@@Z 0043a7b0 f   ChongQingSSC.obj
 0001:000397b0       ?OnLButtonDown@CFenFenCai@@IAEXIVCPoint@@@Z 0043a7b0 f   FenFenCai.obj
 0001:000397b0       ?OnLButtonDown@CWuFenCai@@IAEXIVCPoint@@@Z 0043a7b0 f   WuFenCai.obj
 0001:00039840       ?OnMouseLeave@CChongQingSSC@@IAEJIJ@Z 0043a840 f   ChongQingSSC.obj
 0001:00039870       ?OnBnClickedRioMouseInput@CChongQingSSC@@AAEXXZ 0043a870 f   ChongQingSSC.obj
 0001:00039af0       ?OnBnClickedRioKeyboardInput@CChongQingSSC@@AAEXXZ 0043aaf0 f   ChongQingSSC.obj
 0001:00039bc0       ?SetCheckRenXuan@CChongQingSSC@@AAEX_N@Z 0043abc0 f   ChongQingSSC.obj
 0001:00039c90       ?OnBnClickedChkShi@CChongQingSSC@@AAEXXZ 0043ac90 f   ChongQingSSC.obj
 0001:00039c90       ?OnBnClickedChkQian@CChongQingSSC@@AAEXXZ 0043ac90 f   ChongQingSSC.obj
 0001:00039c90       ?OnBnClickedChkBai@CChongQingSSC@@AAEXXZ 0043ac90 f   ChongQingSSC.obj
 0001:00039c90       ?OnBnClickedChkWan@CChongQingSSC@@AAEXXZ 0043ac90 f   ChongQingSSC.obj
 0001:00039c90       ?OnBnClickedChkge@CChongQingSSC@@AAEXXZ 0043ac90 f   ChongQingSSC.obj
 0001:00039cb0       ?ValidateTips@CChongQingSSC@@AAEXXZ 0043acb0 f   ChongQingSSC.obj
 0001:00039f90       ?OnBnClickedBtnLock@CChongQingSSC@@AAEXXZ 0043af90 f   ChongQingSSC.obj
 0001:0003a0b0       ?GetKeyBoardHaoma@CChongQingSSC@@AAE_NAAV?$CStringT@_WV?$StrTraitMFC_DLL@_WV?$ChTraitsCRT@_W@ATL@@@@@ATL@@HH@Z 0043b0b0 f   ChongQingSSC.obj
 0001:0003a3e0       ?GetKeyHaomaStrs@CChongQingSSC@@AAE_NAAVCStringArray@@V?$CStringT@_WV?$StrTraitMFC_DLL@_WV?$ChTraitsCRT@_W@ATL@@@@@ATL@@HH@Z 0043b3e0 f   ChongQingSSC.obj
 0001:0003b520       ??HATL@@YA?AV?$CStringT@_WV?$StrTraitMFC_DLL@_WV?$ChTraitsCRT@_W@ATL@@@@@0@ABV10@0@Z 0043c520 f i ChongQingSSC.obj
 0001:0003b5e0       ?insert@?$vector@V?$basic_string@_WU?$char_traits@_W@std@@V?$allocator@_W@2@@std@@V?$allocator@V?$basic_string@_WU?$char_traits@_W@std@@V?$allocator@_W@2@@std@@@2@@std@@QAEXV?$_Vector_iterator@V?$basic_string@_WU?$char_traits@_W@std@@V?$allocator@_W@2@@std@@V?$allocator@V?$basic_string@_WU?$char_traits@_W@std@@V?$allocator@_W@2@@std@@@2@@2@IABV?$basic_string@_WU?$char_traits@_W@std@@V?$allocator@_W@2@@2@@Z 0043c5e0 f i ChongQingSSC.obj
 0001:0003b610       ?erase@?$vector@V?$basic_string@_WU?$char_traits@_W@std@@V?$allocator@_W@2@@std@@V?$allocator@V?$basic_string@_WU?$char_traits@_W@std@@V?$allocator@_W@2@@std@@@2@@std@@QAE?AV?$_Vector_iterator@V?$basic_string@_WU?$char_traits@_W@std@@V?$allocator@_W@2@@std@@V?$allocator@V?$basic_string@_WU?$char_traits@_W@std@@V?$allocator@_W@2@@std@@@2@@2@V32@@Z 0043c610 f i ChongQingSSC.obj
 0001:0003b680       ?clear@?$vector@V?$basic_string@_WU?$char_traits@_W@std@@V?$allocator@_W@2@@std@@V?$allocator@V?$basic_string@_WU?$char_traits@_W@std@@V?$allocator@_W@2@@std@@@2@@std@@QAEXXZ 0043c680 f i ChongQingSSC.obj
 0001:0003b6d0       ??H?$_Vector_iterator@V?$basic_string@_WU?$char_traits@_W@std@@V?$allocator@_W@2@@std@@V?$allocator@V?$basic_string@_WU?$char_traits@_W@std@@V?$allocator@_W@2@@std@@@2@@std@@QBE?AV01@H@Z 0043c6d0 f i ChongQingSSC.obj
 0001:0003b710       ?erase@?$vector@V?$basic_string@_WU?$char_traits@_W@std@@V?$allocator@_W@2@@std@@V?$allocator@V?$basic_string@_WU?$char_traits@_W@std@@V?$allocator@_W@2@@std@@@2@@std@@QAE?AV?$_Vector_iterator@V?$basic_string@_WU?$char_traits@_W@std@@V?$allocator@_W@2@@std@@V?$allocator@V?$basic_string@_WU?$char_traits@_W@std@@V?$allocator@_W@2@@std@@@2@@2@V32@0@Z 0043c710 f i ChongQingSSC.obj
 0001:0003b780       ?_Destroy@?$vector@V?$basic_string@_WU?$char_traits@_W@std@@V?$allocator@_W@2@@std@@V?$allocator@V?$basic_string@_WU?$char_traits@_W@std@@V?$allocator@_W@2@@std@@@2@@std@@IAEXPAV?$basic_string@_WU?$char_traits@_W@std@@V?$allocator@_W@2@@2@0@Z 0043c780 f i ChongQingSSC.obj
 0001:0003b7b0       ?_Insert_n@?$vector@V?$basic_string@_WU?$char_traits@_W@std@@V?$allocator@_W@2@@std@@V?$allocator@V?$basic_string@_WU?$char_traits@_W@std@@V?$allocator@_W@2@@std@@@2@@std@@IAEXV?$_Vector_iterator@V?$basic_string@_WU?$char_traits@_W@std@@V?$allocator@_W@2@@std@@V?$allocator@V?$basic_string@_WU?$char_traits@_W@std@@V?$allocator@_W@2@@std@@@2@@2@IABV?$basic_string@_WU?$char_traits@_W@std@@V?$allocator@_W@2@@2@@Z 0043c7b0 f i ChongQingSSC.obj
 0001:0003bb30       ??Y?$_Vector_iterator@V?$basic_string@_WU?$char_traits@_W@std@@V?$allocator@_W@2@@std@@V?$allocator@V?$basic_string@_WU?$char_traits@_W@std@@V?$allocator@_W@2@@std@@@2@@std@@QAEAAV01@H@Z 0043cb30 f i ChongQingSSC.obj
 0001:0003bb60       ?capacity@?$vector@V?$basic_string@_WU?$char_traits@_W@std@@V?$allocator@_W@2@@std@@V?$allocator@V?$basic_string@_WU?$char_traits@_W@std@@V?$allocator@_W@2@@std@@@2@@std@@QBEIXZ 0043cb60 f i ChongQingSSC.obj
 0001:0003bba0       ?max_size@?$vector@V?$basic_string@_WU?$char_traits@_W@std@@V?$allocator@_W@2@@std@@V?$allocator@V?$basic_string@_WU?$char_traits@_W@std@@V?$allocator@_W@2@@std@@@2@@std@@QBEIXZ 0043cba0 f i ChongQingSSC.obj
 0001:0003bbc0       ?_Ufill@?$vector@V?$basic_string@_WU?$char_traits@_W@std@@V?$allocator@_W@2@@std@@V?$allocator@V?$basic_string@_WU?$char_traits@_W@std@@V?$allocator@_W@2@@std@@@2@@std@@IAEPAV?$basic_string@_WU?$char_traits@_W@std@@V?$allocator@_W@2@@2@PAV32@IABV32@@Z 0043cbc0 f i ChongQingSSC.obj
 0001:0003bc00       ?_Xlen@?$vector@HV?$allocator@H@std@@@std@@KAXXZ 0043cc00 f i GridCtrl.obj
 0001:0003bc00       ?_Xlen@?$vector@V?$basic_string@_WU?$char_traits@_W@std@@V?$allocator@_W@2@@std@@V?$allocator@V?$basic_string@_WU?$char_traits@_W@std@@V?$allocator@_W@2@@std@@@2@@std@@KAXXZ 0043cc00 f i ChongQingSSC.obj
 0001:0003bc90       ?deallocate@?$allocator@H@std@@QAEXPAHI@Z 0043cc90 f i GridCtrl.obj
 0001:0003bc90       ?deallocate@?$allocator@U_Node@?$_Tree_nod@V?$_Tmap_traits@HV?$basic_string@DU?$char_traits@D@std@@V?$allocator@D@2@@std@@U?$less@H@2@V?$allocator@U?$pair@$$CBHV?$basic_string@DU?$char_traits@D@std@@V?$allocator@D@2@@std@@@std@@@2@$0A@@std@@@std@@@std@@QAEXPAU_Node@?$_Tree_nod@V?$_Tmap_traits@HV?$basic_string@DU?$char_traits@D@std@@V?$allocator@D@2@@std@@U?$less@H@2@V?$allocator@U?$pair@$$CBHV?$basic_string@DU?$char_traits@D@std@@V?$allocator@D@2@@std@@@std@@@2@$0A@@std@@@2@I@Z 0043cc90 f i TzhxxDlg.obj
 0001:0003bc90       ?deallocate@?$allocator@V?$basic_string@_WU?$char_traits@_W@std@@V?$allocator@_W@2@@std@@@std@@QAEXPAV?$basic_string@_WU?$char_traits@_W@std@@V?$allocator@_W@2@@2@I@Z 0043cc90 f i ChongQingSSC.obj
 0001:0003bcc0       ?allocate@?$allocator@V?$basic_string@_WU?$char_traits@_W@std@@V?$allocator@_W@2@@std@@@std@@QAEPAV?$basic_string@_WU?$char_traits@_W@std@@V?$allocator@_W@2@@2@I@Z 0043ccc0 f i ChongQingSSC.obj
 0001:0003bcf0       ??Y?$_Vector_const_iterator@V?$basic_string@_WU?$char_traits@_W@std@@V?$allocator@_W@2@@std@@V?$allocator@V?$basic_string@_WU?$char_traits@_W@std@@V?$allocator@_W@2@@std@@@2@@std@@QAEAAV01@H@Z 0043ccf0 f i ChongQingSSC.obj
 0001:0003bd60       ??0length_error@std@@QAE@ABV01@@Z 0043cd60 f i ChongQingSSC.obj
 0001:0003bd90       ?max_size@?$allocator@V?$basic_string@_WU?$char_traits@_W@std@@V?$allocator@_W@2@@std@@@std@@QBEIXZ 0043cd90 f i ChongQingSSC.obj
 0001:0003bdd0       ??$unchecked_copy@PAV?$basic_string@_WU?$char_traits@_W@std@@V?$allocator@_W@2@@std@@PAV12@@stdext@@YAPAV?$basic_string@_WU?$char_traits@_W@std@@V?$allocator@_W@2@@std@@PAV12@00@Z 0043cdd0 f i ChongQingSSC.obj
 0001:0003be40       ??$_Destroy_range@V?$basic_string@_WU?$char_traits@_W@std@@V?$allocator@_W@2@@std@@V?$allocator@V?$basic_string@_WU?$char_traits@_W@std@@V?$allocator@_W@2@@std@@@2@@std@@YAXPAV?$basic_string@_WU?$char_traits@_W@std@@V?$allocator@_W@2@@0@0AAV?$allocator@V?$basic_string@_WU?$char_traits@_W@std@@V?$allocator@_W@2@@std@@@0@@Z 0043ce40 f i ChongQingSSC.obj
 0001:0003be80       ??$_Umove@PAV?$basic_string@_WU?$char_traits@_W@std@@V?$allocator@_W@2@@std@@@?$vector@V?$basic_string@_WU?$char_traits@_W@std@@V?$allocator@_W@2@@std@@V?$allocator@V?$basic_string@_WU?$char_traits@_W@std@@V?$allocator@_W@2@@std@@@2@@std@@IAEPAV?$basic_string@_WU?$char_traits@_W@std@@V?$allocator@_W@2@@1@PAV21@00@Z 0043ce80 f i ChongQingSSC.obj
 0001:0003beb0       ??$fill@PAV?$basic_string@_WU?$char_traits@_W@std@@V?$allocator@_W@2@@std@@V12@@std@@YAXPAV?$basic_string@_WU?$char_traits@_W@std@@V?$allocator@_W@2@@0@0ABV10@@Z 0043ceb0 f i ChongQingSSC.obj
 0001:0003bef0       ??$_Unchecked_move_backward@PAV?$basic_string@_WU?$char_traits@_W@std@@V?$allocator@_W@2@@std@@PAV12@@stdext@@YAPAV?$basic_string@_WU?$char_traits@_W@std@@V?$allocator@_W@2@@std@@PAV12@00@Z 0043cef0 f i ChongQingSSC.obj
 0001:0003bf60       ??$unchecked_uninitialized_fill_n@PAV?$basic_string@_WU?$char_traits@_W@std@@V?$allocator@_W@2@@std@@IV12@V?$allocator@V?$basic_string@_WU?$char_traits@_W@std@@V?$allocator@_W@2@@std@@@2@@stdext@@YAXPAV?$basic_string@_WU?$char_traits@_W@std@@V?$allocator@_W@2@@std@@IABV12@AAV?$allocator@V?$basic_string@_WU?$char_traits@_W@std@@V?$allocator@_W@2@@std@@@2@@Z 0043cf60 f i ChongQingSSC.obj
 0001:0003bfb0       ??$_Allocate@V?$basic_string@_WU?$char_traits@_W@std@@V?$allocator@_W@2@@std@@@std@@YAPAV?$basic_string@_WU?$char_traits@_W@std@@V?$allocator@_W@2@@0@IPAV10@@Z 0043cfb0 f i ChongQingSSC.obj
 0001:0003c010       ??$_Iter_random@PAHPAH@std@@YA?AUrandom_access_iterator_tag@0@ABQAH0@Z 0043d010 f i GridCtrl.obj
 0001:0003c010       ??$_Iter_cat@PAH@std@@YA?AUrandom_access_iterator_tag@0@ABQAH@Z 0043d010 f i GridCtrl.obj
 0001:0003c010       ??$_Iter_random@PAV?$basic_string@_WU?$char_traits@_W@std@@V?$allocator@_W@2@@std@@PAV12@@std@@YA?AUrandom_access_iterator_tag@0@ABQAV?$basic_string@_WU?$char_traits@_W@std@@V?$allocator@_W@2@@0@0@Z 0043d010 f i ChongQingSSC.obj
 0001:0003c010       ??$_Iter_random@PAHPAHPAH@std@@YA?AUrandom_access_iterator_tag@0@ABQAH00@Z 0043d010 f i GridCtrl.obj
 0001:0003c010       ??$_Iter_random@PAHV?$_Temp_iterator@H@std@@@std@@YA?AUforward_iterator_tag@0@ABQAHABV?$_Temp_iterator@H@0@@Z 0043d010 f i GridCtrl.obj
 0001:0003c010       ??$_Iter_random@PAHPAHV?$_Temp_iterator@H@std@@@std@@YA?AUforward_iterator_tag@0@ABQAH0ABV?$_Temp_iterator@H@0@@Z 0043d010 f i GridCtrl.obj
 0001:0003c030       ??$_Copy_opt@PAV?$basic_string@_WU?$char_traits@_W@std@@V?$allocator@_W@2@@std@@PAV12@@std@@YAPAV?$basic_string@_WU?$char_traits@_W@std@@V?$allocator@_W@2@@0@PAV10@00Urandom_access_iterator_tag@0@U_Nonscalar_ptr_iterator_tag@0@U_Range_checked_iterator_tag@0@@Z 0043d030 f i ChongQingSSC.obj
 0001:0003c090       ??$_Destroy_range@V?$basic_string@_WU?$char_traits@_W@std@@V?$allocator@_W@2@@std@@V?$allocator@V?$basic_string@_WU?$char_traits@_W@std@@V?$allocator@_W@2@@std@@@2@@std@@YAXPAV?$basic_string@_WU?$char_traits@_W@std@@V?$allocator@_W@2@@0@0AAV?$allocator@V?$basic_string@_WU?$char_traits@_W@std@@V?$allocator@_W@2@@std@@@0@U_Nonscalar_ptr_iterator_tag@0@@Z 0043d090 f i ChongQingSSC.obj
 0001:0003c0d0       ??$_Unchecked_uninitialized_move@PAV?$basic_string@_WU?$char_traits@_W@std@@V?$allocator@_W@2@@std@@PAV12@V?$allocator@V?$basic_string@_WU?$char_traits@_W@std@@V?$allocator@_W@2@@std@@@2@@stdext@@YAPAV?$basic_string@_WU?$char_traits@_W@std@@V?$allocator@_W@2@@std@@PAV12@00AAV?$allocator@V?$basic_string@_WU?$char_traits@_W@std@@V?$allocator@_W@2@@std@@@2@@Z 0043d0d0 f i ChongQingSSC.obj
 0001:0003c130       ??$_Fill@PAV?$basic_string@_WU?$char_traits@_W@std@@V?$allocator@_W@2@@std@@V12@@std@@YAXPAV?$basic_string@_WU?$char_traits@_W@std@@V?$allocator@_W@2@@0@0ABV10@@Z 0043d130 f i ChongQingSSC.obj
 0001:0003c170       ??$_Move_backward_opt@PAV?$basic_string@_WU?$char_traits@_W@std@@V?$allocator@_W@2@@std@@PAV12@@std@@YAPAV?$basic_string@_WU?$char_traits@_W@std@@V?$allocator@_W@2@@0@PAV10@00Urandom_access_iterator_tag@0@U_Swap_move_tag@0@U_Range_checked_iterator_tag@0@@Z 0043d170 f i ChongQingSSC.obj
 0001:0003c1d0       ??$_Uninit_fill_n@PAV?$basic_string@_WU?$char_traits@_W@std@@V?$allocator@_W@2@@std@@IV12@V?$allocator@V?$basic_string@_WU?$char_traits@_W@std@@V?$allocator@_W@2@@std@@@2@@std@@YAXPAV?$basic_string@_WU?$char_traits@_W@std@@V?$allocator@_W@2@@0@IABV10@AAV?$allocator@V?$basic_string@_WU?$char_traits@_W@std@@V?$allocator@_W@2@@std@@@0@U_Nonscalar_ptr_iterator_tag@0@U_Range_checked_iterator_tag@0@@Z 0043d1d0 f i ChongQingSSC.obj
 0001:0003c280       ?construct@?$allocator@V?$basic_string@_WU?$char_traits@_W@std@@V?$allocator@_W@2@@std@@@std@@QAEXPAV?$basic_string@_WU?$char_traits@_W@std@@V?$allocator@_W@2@@2@ABV32@@Z 0043d280 f i ChongQingSSC.obj
 0001:0003c2b0       ?destroy@?$allocator@V?$basic_string@_WU?$char_traits@_W@std@@V?$allocator@_W@2@@std@@@std@@QAEXPAV?$basic_string@_WU?$char_traits@_W@std@@V?$allocator@_W@2@@2@@Z 0043d2b0 f i ChongQingSSC.obj
 0001:0003c2e0       ??$_Checked_base@PAH@std@@YAPAHAAPAHU_Unchanged_checked_iterator_base_type_tag@0@@Z 0043d2e0 f i GridCtrl.obj
 0001:0003c2e0       ??$_Checked_base@PAV?$basic_string@_WU?$char_traits@_W@std@@V?$allocator@_W@2@@std@@@std@@YAPAV?$basic_string@_WU?$char_traits@_W@std@@V?$allocator@_W@2@@0@AAPAV10@U_Unchanged_checked_iterator_base_type_tag@0@@Z 0043d2e0 f i ChongQingSSC.obj
 0001:0003c300       ??$_Copy_opt@PAV?$basic_string@_WU?$char_traits@_W@std@@V?$allocator@_W@2@@std@@PAV12@Uforward_iterator_tag@2@@std@@YAPAV?$basic_string@_WU?$char_traits@_W@std@@V?$allocator@_W@2@@0@PAV10@00Uforward_iterator_tag@0@U_Nonscalar_ptr_iterator_tag@0@U_Range_checked_iterator_tag@0@@Z 0043d300 f i ChongQingSSC.obj
 0001:0003c340       ??$_Uninit_move@PAV?$basic_string@_WU?$char_traits@_W@std@@V?$allocator@_W@2@@std@@PAV12@V?$allocator@V?$basic_string@_WU?$char_traits@_W@std@@V?$allocator@_W@2@@std@@@2@@std@@YAPAV?$basic_string@_WU?$char_traits@_W@std@@V?$allocator@_W@2@@0@PAV10@00AAV?$allocator@V?$basic_string@_WU?$char_traits@_W@std@@V?$allocator@_W@2@@std@@@0@U_Swap_move_tag@0@U_Range_checked_iterator_tag@0@@Z 0043d340 f i ChongQingSSC.obj
 0001:0003c440       ??$_Move_backward_opt@PAV?$basic_string@_WU?$char_traits@_W@std@@V?$allocator@_W@2@@std@@PAV12@Uforward_iterator_tag@2@@std@@YAPAV?$basic_string@_WU?$char_traits@_W@std@@V?$allocator@_W@2@@0@PAV10@00Uforward_iterator_tag@0@U_Swap_move_tag@0@U_Range_checked_iterator_tag@0@@Z 0043d440 f i ChongQingSSC.obj
 0001:0003c480       ??$_Construct@V?$basic_string@_WU?$char_traits@_W@std@@V?$allocator@_W@2@@std@@V12@@std@@YAXPAV?$basic_string@_WU?$char_traits@_W@std@@V?$allocator@_W@2@@0@ABV10@@Z 0043d480 f i ChongQingSSC.obj
 0001:0003c510       ??$_Destroy@V?$basic_string@_WU?$char_traits@_W@std@@V?$allocator@_W@2@@std@@@std@@YAXPAV?$basic_string@_WU?$char_traits@_W@std@@V?$allocator@_W@2@@0@@Z 0043d510 f i ChongQingSSC.obj
 0001:0003c530       ??_G?$basic_string@_WU?$char_traits@_W@std@@V?$allocator@_W@2@@std@@QAEPAXI@Z 0043d530 f i ChongQingSSC.obj
 0001:0003c570       ??$swap@_WU?$char_traits@_W@std@@V?$allocator@_W@2@@std@@YAXAAV?$basic_string@_WU?$char_traits@_W@std@@V?$allocator@_W@2@@0@0@Z 0043d570 f i ChongQingSSC.obj
 0001:0003c590       ??_ECChongQingSSC@@WHE@AEPAXI@Z 0043d590 f i ChongQingSSC.obj
 0001:0003c5a0       ??0bad_alloc@std@@QAE@PBD@Z 0043d5a0 f i ChongQingSSC.obj
 0001:0003c5d0       ??1bad_alloc@std@@UAE@XZ   0043d5d0 f i ChongQingSSC.obj
 0001:0003c600       ??_Gbad_alloc@std@@UAEPAXI@Z 0043d600 f i ChongQingSSC.obj
 0001:0003c600       ??_Ebad_alloc@std@@UAEPAXI@Z 0043d600 f i ChongQingSSC.obj
 0001:0003c640       ?what@logic_error@std@@UBEPBDXZ 0043d640 f i ChongQingSSC.obj
 0001:0003c660       ??0length_error@std@@QAE@ABV?$basic_string@DU?$char_traits@D@std@@V?$allocator@D@2@@1@@Z 0043d660 f i ChongQingSSC.obj
 0001:0003c690       ??0logic_error@std@@QAE@ABV?$basic_string@DU?$char_traits@D@std@@V?$allocator@D@2@@1@@Z 0043d690 f i ChongQingSSC.obj
 0001:0003c710       ??_Elogic_error@std@@UAEPAXI@Z 0043d710 f i ChongQingSSC.obj
 0001:0003c710       ??_Glogic_error@std@@UAEPAXI@Z 0043d710 f i ChongQingSSC.obj
 0001:0003c750       ??1logic_error@std@@UAE@XZ 0043d750 f i ChongQingSSC.obj
 0001:0003c790       ??1length_error@std@@UAE@XZ 0043d790 f i ChongQingSSC.obj
 0001:0003c7c0       ??_Glength_error@std@@UAEPAXI@Z 0043d7c0 f i ChongQingSSC.obj
 0001:0003c7c0       ??_Elength_error@std@@UAEPAXI@Z 0043d7c0 f i ChongQingSSC.obj
 0001:0003c800       ??0logic_error@std@@QAE@ABV01@@Z 0043d800 f i ChongQingSSC.obj
 0001:0003c880       ??0bad_alloc@std@@QAE@ABV01@@Z 0043d880 f i ChongQingSSC.obj
 0001:0003c8b0       ??0?$vector@V?$basic_string@_WU?$char_traits@_W@std@@V?$allocator@_W@2@@std@@V?$allocator@V?$basic_string@_WU?$char_traits@_W@std@@V?$allocator@_W@2@@std@@@2@@std@@QAE@XZ 0043d8b0 f i ChongQingSSC.obj
 0001:0003c8e0       ?_Buy@?$vector@V?$basic_string@_WU?$char_traits@_W@std@@V?$allocator@_W@2@@std@@V?$allocator@V?$basic_string@_WU?$char_traits@_W@std@@V?$allocator@_W@2@@std@@@2@@std@@IAE_NI@Z 0043d8e0 f i ChongQingSSC.obj
 0001:0003c970       ??BCRect@@QAEPAUtagRECT@@XZ 0043d970 f i ChongQing11X5.obj
 0001:0003c970       ??CCMemDC@@QAEPAV0@XZ      0043d970 f i ImageButton.obj
 0001:0003c970       ?GetWString@Data_t@_bstr_t@@QAEAAPA_WXZ 0043d970 f i XinJiangSSC.obj
 0001:0003c970       ??0?$allocator@U?$pair@$$CBHV?$basic_string@DU?$char_traits@D@std@@V?$allocator@D@2@@std@@@std@@@std@@QAE@XZ 0043d970 f i TzhxxDlg.obj
 0001:0003c970       ??0CSize@@QAE@XZ           0043d970 f i DlgCollocate.obj
 0001:0003c970       ??E?$_Temp_iterator@H@std@@QAEAAV01@XZ 0043d970 f i GridCtrl.obj
 0001:0003c970       ??0CPoint@@QAE@XZ          0043d970 f i DlgDownLoad.obj
 0001:0003c970       ?GetDoc@CMarkup@@QBEABV?$CStringT@_WV?$StrTraitMFC_DLL@_WV?$ChTraitsCRT@_W@ATL@@@@@ATL@@XZ 0043d970 f i Markup.obj
 0001:0003c970       ??0IUnknown@@QAE@XZ        0043d970 f i GamePlaza.obj
 0001:0003c970       ??0CNoTrackObject@@QAE@XZ  0043d970 f i GamePlaza.obj
 0001:0003c970       ??BCMemDC@@QAEPAV0@XZ      0043d970 f i ImageButton.obj
 0001:0003c970       ??0?$allocator@H@std@@QAE@XZ 0043d970 f i GridCtrl.obj
 0001:0003c970       ?TopLeft@CRect@@QAEAAVCPoint@@XZ 0043d970 f i GridCellBase.obj
 0001:0003c970       ??0?$allocator@V?$basic_string@_WU?$char_traits@_W@std@@V?$allocator@_W@2@@std@@@std@@QAE@XZ 0043d970 f i ChongQingSSC.obj
 0001:0003c970       ??D?$_Temp_iterator@H@std@@QAEAAV01@XZ 0043d970 f i GridCtrl.obj
 0001:0003c970       ??0CRect@@QAE@XZ           0043d970 f i ChongQing11X5.obj
 0001:0003c970       ??0CObject@@IAE@XZ         0043d970 f i ChongQing11X5.obj
 0001:0003c990       ??1?$vector@V?$basic_string@_WU?$char_traits@_W@std@@V?$allocator@_W@2@@std@@V?$allocator@V?$basic_string@_WU?$char_traits@_W@std@@V?$allocator@_W@2@@std@@@2@@std@@QAE@XZ 0043d990 f i ChongQingSSC.obj
 0001:0003c9b0       ?_Tidy@?$vector@V?$basic_string@_WU?$char_traits@_W@std@@V?$allocator@_W@2@@std@@V?$allocator@V?$basic_string@_WU?$char_traits@_W@std@@V?$allocator@_W@2@@std@@@2@@std@@IAEXXZ 0043d9b0 f i ChongQingSSC.obj
 0001:0003ca30       ?GetRuntimeClass@CChongZhiDlg@@UBEPAUCRuntimeClass@@XZ 0043da30 f   ChongZhiDlg.obj
 0001:0003ca50       ??0CChongZhiDlg@@QAE@PAVCWnd@@@Z 0043da50 f   ChongZhiDlg.obj
 0001:0003cc20       ??_GCChongZhiDlg@@UAEPAXI@Z 0043dc20 f i ChongZhiDlg.obj
 0001:0003cc20       ??_ECChongZhiDlg@@UAEPAXI@Z 0043dc20 f i ChongZhiDlg.obj
 0001:0003cc60       ??0ChongZhi@@QAE@XZ        0043dc60 f i ChongZhiDlg.obj
 0001:0003ccb0       ??1ChongZhi@@QAE@XZ        0043dcb0 f i ChongZhiDlg.obj
 0001:0003ccf0       ??1CChongZhiDlg@@UAE@XZ    0043dcf0 f   ChongZhiDlg.obj
 0001:0003cf70       ?DoDataExchange@CChongZhiDlg@@MAEXPAVCDataExchange@@@Z 0043df70 f   ChongZhiDlg.obj
 0001:0003d080       ?GetMessageMap@CChongZhiDlg@@MBEPBUAFX_MSGMAP@@XZ 0043e080 f   ChongZhiDlg.obj
 0001:0003d0a0       ?GetThisMessageMap@CChongZhiDlg@@KGPBUAFX_MSGMAP@@XZ 0043e0a0 f   ChongZhiDlg.obj
 0001:0003d0c0       ?OnShowWindow@CChongZhiDlg@@IAEXHI@Z 0043e0c0 f   ChongZhiDlg.obj
 0001:0003d180       ?OnInitDialog@CChongZhiDlg@@MAEHXZ 0043e180 f   ChongZhiDlg.obj
 0001:0003d410       ?OnPaint@CChongZhiDlg@@IAEXXZ 0043e410 f   ChongZhiDlg.obj
 0001:0003d720       ?OnSize@CChongZhiDlg@@IAEXIHH@Z 0043e720 f   ChongZhiDlg.obj
 0001:0003d960       ?OnBnClickedBtnGongshang@CChongZhiDlg@@IAEXXZ 0043e960 f   ChongZhiDlg.obj
 0001:0003dab0       ?OnBnClickedBtnZhifubao@CChongZhiDlg@@IAEXXZ 0043eab0 f   ChongZhiDlg.obj
 0001:0003dc10       ?OnBnClickedBtnCaifutong@CChongZhiDlg@@IAEXXZ 0043ec10 f   ChongZhiDlg.obj
 0001:0003dd60       ?OnBnClickedBtnJianshe@CChongZhiDlg@@IAEXXZ 0043ed60 f   ChongZhiDlg.obj
 0001:0003deb0       ?OnBnClickedBtnNongye@CChongZhiDlg@@IAEXXZ 0043eeb0 f   ChongZhiDlg.obj
 0001:0003e000       ?OnBnClickedBtnChongzhiPage@CChongZhiDlg@@IAEXXZ 0043f000 f   ChongZhiDlg.obj
 0001:0003e170       ?OnBnClickedBtnCpZhanghu@CChongZhiDlg@@IAEXXZ 0043f170 f   ChongZhiDlg.obj
 0001:0003e210       ?OnBnClickedBtnCpKaihuren@CChongZhiDlg@@IAEXXZ 0043f210 f   ChongZhiDlg.obj
 0001:0003e2b0       ?OnBnClickedBtnCpYinhang@CChongZhiDlg@@IAEXXZ 0043f2b0 f   ChongZhiDlg.obj
 0001:0003e350       ?OnBnClickedBtnCpGaneid@CChongZhiDlg@@IAEXXZ 0043f350 f   ChongZhiDlg.obj
 0001:0003e450       ?SetTextToClipboard@CChongZhiDlg@@AAEXV?$CStringT@_WV?$StrTraitMFC_DLL@_WV?$ChTraitsCRT@_W@ATL@@@@@ATL@@@Z 0043f450 f   ChongZhiDlg.obj
 0001:0003e5f0       ?InitBtns@CChongZhiDlg@@AAEXXZ 0043f5f0 f   ChongZhiDlg.obj
 0001:0003e7b0       ?ShowButton@CChongZhiDlg@@IAEX_N@Z 0043f7b0 f   ChongZhiDlg.obj
 0001:0003e840       ?OnEventMissionLink@CChongZhiDlg@@UAE_NHH@Z 0043f840 f   ChongZhiDlg.obj
 0001:0003e900       ?OnEventMissionRead@CChongZhiDlg@@UAE_NUTCP_Command@@PAXG@Z 0043f900 f   ChongZhiDlg.obj
 0001:0003ed80       ??0ChongZhi@@QAE@ABU0@@Z   0043fd80 f i ChongZhiDlg.obj
 0001:0003ee20       ?IsEnableZhanghu@CChongZhiDlg@@IAE_NUChongZhi@@@Z 0043fe20 f   ChongZhiDlg.obj
 0001:0003eea0       ?SendToServer@CChongZhiDlg@@IAEXE@Z 0043fea0 f   ChongZhiDlg.obj
 0001:0003efb0       ??_ECChongZhiDlg@@WHE@AEPAXI@Z 0043ffb0 f i ChongZhiDlg.obj
 0001:0003efc0       ?MD5Init@CMD5@@AAEXXZ      0043ffc0 f   Comm.obj
 0001:0003f030       ?MD5Update@CMD5@@QAEXPAEI@Z 00440030 f   Comm.obj
 0001:0003f140       ?MD5Final@CMD5@@QAEXQAE@Z  00440140 f   Comm.obj
 0001:0003f200       ?MD5Transform@CMD5@@AAEXQAKQAE@Z 00440200 f   Comm.obj
 0001:00040060       ?Encode@CMD5@@AAEXPAEPAKI@Z 00441060 f   Comm.obj
 0001:00040110       ?Decode@CMD5@@AAEXPAKPAEI@Z 00441110 f   Comm.obj
 0001:00040190       ?MD5_memcpy@CMD5@@AAEXPAE0I@Z 00441190 f   Comm.obj
 0001:000401e0       ?MD5_memset@CMD5@@AAEXPAEHI@Z 004411e0 f   Comm.obj
 0001:00040220       ?EncryptData@CMD5Encrypt@@SAXPB_WQA_W@Z 00441220 f   Comm.obj
 0001:00040370       ??0CMD5@@QAE@XZ            00441370 f i Comm.obj
 0001:00040390       ?GetInterfaceMap@CCustomControlSite@@MBEPBUAFX_INTERFACEMAP@@XZ 00441390 f   Custsite.obj
 0001:000403b0       ?AddRef@XDocHostUIHandler@CCustomControlSite@@UAGKXZ 004413b0 f   Custsite.obj
 0001:00040430       ?Release@XDocHostUIHandler@CCustomControlSite@@UAGKXZ 00441430 f   Custsite.obj
 0001:000404b0       ?QueryInterface@XDocHostUIHandler@CCustomControlSite@@UAGJABU_GUID@@PAPAX@Z 004414b0 f   Custsite.obj
 0001:00040540       ?GetHostInfo@XDocHostUIHandler@CCustomControlSite@@UAGJPAU_DOCHOSTUIINFO@@@Z 00441540 f   Custsite.obj
 0001:000405a0       ?ShowUI@XDocHostUIHandler@CCustomControlSite@@UAGJKPAUIOleInPlaceActiveObject@@PAUIOleCommandTarget@@PAUIOleInPlaceFrame@@PAUIOleInPlaceUIWindow@@@Z 004415a0 f   Custsite.obj
 0001:000405f0       ?HideUI@XDocHostUIHandler@CCustomControlSite@@UAGJXZ 004415f0 f   Custsite.obj
 0001:000405f0       ?UpdateUI@XDocHostUIHandler@CCustomControlSite@@UAGJXZ 004415f0 f   Custsite.obj
 0001:00040640       ?OnFrameWindowActivate@XDocHostUIHandler@CCustomControlSite@@UAGJH@Z 00441640 f   Custsite.obj
 0001:00040640       ?EnableModeless@XDocHostUIHandler@CCustomControlSite@@UAGJH@Z 00441640 f   Custsite.obj
 0001:00040640       ?OnDocWindowActivate@XDocHostUIHandler@CCustomControlSite@@UAGJH@Z 00441640 f   Custsite.obj
 0001:00040690       ?ResizeBorder@XDocHostUIHandler@CCustomControlSite@@UAGJPBUtagRECT@@PAUIOleInPlaceUIWindow@@H@Z 00441690 f   Custsite.obj
 0001:00040690       ?TranslateUrl@XDocHostUIHandler@CCustomControlSite@@UAGJKPA_WPAPA_W@Z 00441690 f   Custsite.obj
 0001:000406e0       ?ShowContextMenu@XDocHostUIHandler@CCustomControlSite@@UAGJKPAUtagPOINT@@PAUIUnknown@@PAUIDispatch@@@Z 004416e0 f   Custsite.obj
 0001:00040730       ?TranslateAcceleratorW@XDocHostUIHandler@CCustomControlSite@@UAGJPAUtagMSG@@PBU_GUID@@K@Z 00441730 f   Custsite.obj
 0001:00040780       ?GetExternal@XDocHostUIHandler@CCustomControlSite@@UAGJPAPAUIDispatch@@@Z 00441780 f   Custsite.obj
 0001:000407c0       ?GetDropTarget@XDocHostUIHandler@CCustomControlSite@@UAGJPAUIDropTarget@@PAPAU3@@Z 004417c0 f   Custsite.obj
 0001:000407c0       ?FilterDataObject@XDocHostUIHandler@CCustomControlSite@@UAGJPAUIDataObject@@PAPAU3@@Z 004417c0 f   Custsite.obj
 0001:000407c0       ?GetOptionKeyPath@XDocHostUIHandler@CCustomControlSite@@UAGJPAPA_WK@Z 004417c0 f   Custsite.obj
 0001:00040810       ??1AFX_MAINTAIN_STATE2@@QAE@XZ 00441810 f i Custsite.obj
 0001:00040860       ?GetRuntimeClass@CDlgAddtional@@UBEPAUCRuntimeClass@@XZ 00441860 f   DlgAddtional.obj
 0001:00040880       ??0CDlgAddtional@@QAE@PAVCWnd@@@Z 00441880 f   DlgAddtional.obj
 0001:000409a0       ??_GCDlgAddtional@@UAEPAXI@Z 004419a0 f i DlgAddtional.obj
 0001:000409a0       ??_ECDlgAddtional@@UAEPAXI@Z 004419a0 f i DlgAddtional.obj
 0001:000409e0       ??1CDlgAddtional@@UAE@XZ   004419e0 f   DlgAddtional.obj
 0001:00040af0       ?OnBnClickedOK@CDlgAddtional@@IAEXXZ 00441af0 f   DlgAddtional.obj
 0001:00040bc0       ?DoDataExchange@CDlgAddtional@@MAEXPAVCDataExchange@@@Z 00441bc0 f   DlgAddtional.obj
 0001:00040c30       ?GetMessageMap@CDlgAddtional@@MBEPBUAFX_MSGMAP@@XZ 00441c30 f   DlgAddtional.obj
 0001:00040c50       ?GetThisMessageMap@CDlgAddtional@@KGPBUAFX_MSGMAP@@XZ 00441c50 f   DlgAddtional.obj
 0001:00040c70       ?OnInitDialog@CDlgAddtional@@UAEHXZ 00441c70 f   DlgAddtional.obj
 0001:00040ed0       ?OnPaint@CDlgAddtional@@IAEXXZ 00441ed0 f   DlgAddtional.obj
 0001:00040fd0       ?OnCtlColor@CDlgAddtional@@IAEPAUHBRUSH__@@PAVCDC@@PAVCWnd@@I@Z 00441fd0 f   DlgAddtional.obj
 0001:00041140       ?GetNextQiHao@CDlgAddtional@@QAE?AV?$CStringT@_WV?$StrTraitMFC_DLL@_WV?$ChTraitsCRT@_W@ATL@@@@@ATL@@XZ 00442140 f   DlgAddtional.obj
 0001:000416d0       ?GetTzhJine@CDlgAddtional@@QAE?AV?$CStringT@_WV?$StrTraitMFC_DLL@_WV?$ChTraitsCRT@_W@ATL@@@@@ATL@@H@Z 004426d0 f   DlgAddtional.obj
 0001:000417d0       ?SetCurrentQihaoTime@CDlgAddtional@@QAEXV?$CStringT@_WV?$StrTraitMFC_DLL@_WV?$ChTraitsCRT@_W@ATL@@@@@ATL@@0HHNH@Z 004427d0 f   DlgAddtional.obj
 0001:000418a0       ?GridCtrlInit@CDlgAddtional@@QAEXXZ 004428a0 f   DlgAddtional.obj
 0001:00041d40       ?GetRowCount@CGridCtrl@@QBEHXZ 00442d40 f i DlgAddtional.obj
 0001:00041d60       ?GetColumnCount@CGridCtrl@@QBEHXZ 00442d60 f i DlgAddtional.obj
 0001:00041d80       ?SetGridBkColor@CGridCtrl@@QAEXK@Z 00442d80 f i DlgAddtional.obj
 0001:00041da0       ?SetGridLineColor@CGridCtrl@@QAEXK@Z 00442da0 f i DlgAddtional.obj
 0001:00041dc0       ?SetTextColor@CGridCtrl@@QAEXK@Z 00442dc0 f i DlgAddtional.obj
 0001:00041df0       ?SetTextBkColor@CGridCtrl@@QAEXK@Z 00442df0 f i DlgAddtional.obj
 0001:00041e20       ?SetFixedTextColor@CGridCtrl@@QAEXK@Z 00442e20 f i DlgAddtional.obj
 0001:00041e90       ?SetFixedBkColor@CGridCtrl@@QAEXK@Z 00442e90 f i DlgAddtional.obj
 0001:00041f00       ?SetGridColor@CGridCtrl@@QAEXK@Z 00442f00 f i DlgAddtional.obj
 0001:00041f30       ?SetBkColor@CGridCtrl@@QAEXK@Z 00442f30 f i DlgAddtional.obj
 0001:00041f60       ?SetEditable@CGridCtrl@@QAEXH@Z 00442f60 f i DlgAddtional.obj
 0001:00041f90       ?EnableTitleTips@CGridCtrl@@QAEXH@Z 00442f90 f i DlgAddtional.obj
 0001:00041f90       ?SetTextFont@CTextButton@@QAEXPAVCFont@@@Z 00442f90 f i ChongQing11X5.obj
 0001:00041fc0       ??0_GV_ITEM@@QAE@XZ        00442fc0 f i DlgAddtional.obj
 0001:00041ff0       ??1_GV_ITEM@@QAE@XZ        00442ff0 f i DlgAddtional.obj
 0001:00042020       ?OnCbnSelchangeCombo1@CDlgAddtional@@QAEXXZ 00443020 f   DlgAddtional.obj
 0001:000425d0       ?GetCell@CGridCtrl@@QBEPAVCGridCellBase@@HH@Z 004435d0 f i DlgAddtional.obj
 0001:000429a0       ??0CPoint@@QAE@HH@Z        004439a0 f i DlgEnquire.obj
 0001:000429a0       ??0CSize@@QAE@HH@Z         004439a0 f i DlgEnquire.obj
 0001:000429a0       ??0CCellID@@QAE@HH@Z       004439a0 f i DlgAddtional.obj
 0001:000429d0       ??8CCellID@@QBEHABV0@@Z    004439d0 f i DlgAddtional.obj
 0001:00042a20       ?SetText@CGridCell@@UAEXPB_W@Z 00443a20 f i DlgAddtional.obj
 0001:00042a50       ?SetImage@CGridCell@@UAEXH@Z 00443a50 f i DlgAddtional.obj
 0001:00042a70       ?SetMaxCol@CCellRange@@QAEXH@Z 00443a70 f i GridCtrl.obj
 0001:00042a70       ?SetData@CGridCell@@UAEXJ@Z 00443a70 f i DlgAddtional.obj
 0001:00042a90       ?SetGrid@CGridCell@@UAEXPAVCGridCtrl@@@Z 00443a90 f i DlgAddtional.obj
 0001:00042ab0       ?SetFormat@CGridCell@@UAEXK@Z 00443ab0 f i DlgAddtional.obj
 0001:00042ad0       ?SetTextClr@CGridCell@@UAEXK@Z 00443ad0 f i DlgAddtional.obj
 0001:00042af0       ?SetBackClr@CGridCell@@UAEXK@Z 00443af0 f i DlgAddtional.obj
 0001:00042b10       ?SetMargin@CGridCell@@UAEXI@Z 00443b10 f i DlgAddtional.obj
 0001:00042b30       ?GetFixedRowCount@CGridCtrl@@QBEHXZ 00443b30 f i DlgAddtional.obj
 0001:00042b50       ?GetFixedColumnCount@CGridCtrl@@QBEHXZ 00443b50 f i DlgAddtional.obj
 0001:00042b70       ?GetFocusCell@CGridCtrl@@QBE?AVCCellID@@XZ 00443b70 f i DlgAddtional.obj
 0001:00042ba0       ?GetVirtualMode@CGridCtrl@@QBEHXZ 00443ba0 f i DlgAddtional.obj
 0001:00042bc0       ?GetDefaultCell@CGridCtrl@@QBEPAVCGridCellBase@@HH@Z 00443bc0 f i DlgAddtional.obj
 0001:00042c20       ??0tagGV_DISPINFO@@QAE@XZ  00443c20 f i DlgAddtional.obj
 0001:00042c50       ??1tagGV_DISPINFO@@QAE@XZ  00443c50 f i DlgAddtional.obj
 0001:00042c70       ?OnEnChangeEdit1@CDlgAddtional@@QAEXXZ 00443c70 f   DlgAddtional.obj
 0001:00043060       ?OnBnClickedCheck1@CDlgAddtional@@QAEXXZ 00444060 f   DlgAddtional.obj
 0001:000430b0       ?OnBnClickedCheck2@CDlgAddtional@@QAEXXZ 004440b0 f   DlgAddtional.obj
 0001:000430f0       ?OnGridEndEdit@CDlgAddtional@@QAEXPAUtagNMHDR@@PAJ@Z 004440f0 f   DlgAddtional.obj
 0001:00043300       ?OnGridClick@CDlgAddtional@@QAEXPAUtagNMHDR@@PAJ@Z 00444300 f   DlgAddtional.obj
 0001:00043560       ?GetZhuiHaoQiShu@CDlgAddtional@@QAEHXZ 00444560 f   DlgAddtional.obj
 0001:00043620       ?GetPrizeStop@CDlgAddtional@@QAE_NXZ 00444620 f   DlgAddtional.obj
 0001:00043640       ?GetZhuiHaoData@CDlgAddtional@@QAEHAAV?$vector@V?$basic_string@_WU?$char_traits@_W@std@@V?$allocator@_W@2@@std@@V?$allocator@V?$basic_string@_WU?$char_traits@_W@std@@V?$allocator@_W@2@@std@@@2@@std@@00@Z 00444640 f   DlgAddtional.obj
 0001:000438f0       ??A?$CTypedPtrArray@VCObArray@@PAV?$CTypedPtrArray@VCObArray@@PAVCGridCellBase@@@@@@QBEPAV?$CTypedPtrArray@VCObArray@@PAVCGridCellBase@@@@H@Z 004448f0 f i DlgAddtional.obj
 0001:00043920       ?push_back@?$vector@V?$basic_string@_WU?$char_traits@_W@std@@V?$allocator@_W@2@@std@@V?$allocator@V?$basic_string@_WU?$char_traits@_W@std@@V?$allocator@_W@2@@std@@@2@@std@@QAEXABV?$basic_string@_WU?$char_traits@_W@std@@V?$allocator@_W@2@@2@@Z 00444920 f i DlgAddtional.obj
 0001:00043990       ?size@?$vector@HV?$allocator@H@std@@@std@@QBEIXZ 00444990 f i DlgAddtional.obj
 0001:000439d0       ?insert@?$vector@V?$basic_string@_WU?$char_traits@_W@std@@V?$allocator@_W@2@@std@@V?$allocator@V?$basic_string@_WU?$char_traits@_W@std@@V?$allocator@_W@2@@std@@@2@@std@@QAE?AV?$_Vector_iterator@V?$basic_string@_WU?$char_traits@_W@std@@V?$allocator@_W@2@@std@@V?$allocator@V?$basic_string@_WU?$char_traits@_W@std@@V?$allocator@_W@2@@std@@@2@@2@V32@ABV?$basic_string@_WU?$char_traits@_W@std@@V?$allocator@_W@2@@2@@Z 004449d0 f i DlgAddtional.obj
 0001:00043a50       ??G?$_Vector_iterator@V?$basic_string@_WU?$char_traits@_W@std@@V?$allocator@_W@2@@std@@V?$allocator@V?$basic_string@_WU?$char_traits@_W@std@@V?$allocator@_W@2@@std@@@2@@std@@QBEHABV?$_Vector_const_iterator@V?$basic_string@_WU?$char_traits@_W@std@@V?$allocator@_W@2@@std@@V?$allocator@V?$basic_string@_WU?$char_traits@_W@std@@V?$allocator@_W@2@@std@@@2@@1@@Z 00444a50 f i DlgAddtional.obj
 0001:00043a80       ??G?$_Vector_const_iterator@V?$basic_string@_WU?$char_traits@_W@std@@V?$allocator@_W@2@@std@@V?$allocator@V?$basic_string@_WU?$char_traits@_W@std@@V?$allocator@_W@2@@std@@@2@@std@@QBEHABV01@@Z 00444a80 f i DlgAddtional.obj
 0001:00043ad0       ?GetTickCount@CTime@ATL@@SG?AV12@XZ 00444ad0 f i DlgAddtional.obj
 0001:00043b00       ??HCTime@ATL@@QBE?AV01@VCTimeSpan@1@@Z 00444b00 f i DlgAddtional.obj
 0001:00043b40       ?GetYear@CTime@ATL@@QBEHXZ 00444b40 f i DlgAddtional.obj
 0001:00043b90       ?GetLocalTm@CTime@ATL@@QBEPAUtm@@PAU3@@Z 00444b90 f i DlgAddtional.obj
 0001:00043c00       ?GetMonth@CTime@ATL@@QBEHXZ 00444c00 f i DlgAddtional.obj
 0001:00043c40       ?GetDay@CTime@ATL@@QBEHXZ  00444c40 f i DlgAddtional.obj
 0001:00043c80       ?Format@CTime@ATL@@QBE?AV?$CStringT@_WV?$StrTraitMFC_DLL@_WV?$ChTraitsCRT@_W@ATL@@@@@2@PB_W@Z 00444c80 f i DlgAddtional.obj
 0001:00043d50       ?GetAt@CUIntArray@@QBEIH@Z 00444d50 f i GridCtrl.obj
 0001:00043d50       ?GetAt@CObArray@@QBEPAVCObject@@H@Z 00444d50 f i DlgAddtional.obj
 0001:00043d90       ??ACObArray@@QBEPAVCObject@@H@Z 00444d90 f i DlgAddtional.obj
 0001:00043d90       ??ACUIntArray@@QBEIH@Z     00444d90 f i GridCtrl.obj
 0001:00043d90       ?GetAt@?$CTypedPtrArray@VCObArray@@PAVCGridCellBase@@@@QBEPAVCGridCellBase@@H@Z 00444d90 f i DlgAddtional.obj
 0001:00043dc0       ?GetWindowRect@CWnd@@QBEXPAUtagRECT@@@Z 00444dc0 f i DlgAddtional.obj
 0001:00043df0       ?GetCurSel@CComboBox@@QBEHXZ 00444df0 f i DlgAddtional.obj
 0001:00043e20       ?SetCurSel@CComboBox@@QAEHH@Z 00444e20 f i DlgAddtional.obj
 0001:00043e50       ?InsertString@CComboBox@@QAEHHPB_W@Z 00444e50 f i DlgAddtional.obj
 0001:00043e80       ?GetThisMessageMap@CCollocateItem@@KGPBUAFX_MSGMAP@@XZ 00444e80 f   DlgCollocate.obj
 0001:00043ea0       ?DefaultParameter@CCollocateBar@@QAE_NXZ 00444ea0 f   DlgCollocate.obj
 0001:00043f20       ?SetActiveCollocateItem@CCollocateBar@@QAE_NPAVCCollocateItem@@@Z 00444f20 f   DlgCollocate.obj
 0001:00044080       ?OnPaint@CCollocateBar@@IAEXXZ 00445080 f   DlgCollocate.obj
 0001:000443e0       ?OnLButtonUp@CCollocateBar@@IAEXIVCPoint@@@Z 004453e0 f   DlgCollocate.obj
 0001:00044480       ?CreateCollocateItem@CCollocateItem@@QAE_NPAVCWnd@@VCRect@@@Z 00445480 f   DlgCollocate.obj
 0001:000444e0       ?OnEraseBkgnd@CCollocateItem@@IAEHPAVCDC@@@Z 004454e0 f   DlgCollocate.obj
 0001:000444e0       ?OnEraseBkgnd@CDlgServiceItem@@IAEHPAVCDC@@@Z 004454e0 f   DlgServiceItem.obj
 0001:00044530       ?OnCtlColor@CCollocateItem@@IAEPAUHBRUSH__@@PAVCDC@@PAVCWnd@@I@Z 00445530 f   DlgCollocate.obj
 0001:000445b0       ?OnBnClickedProxyTest@CCollocateProxy@@QAEXXZ 004455b0 f   DlgCollocate.obj
 0001:00044940       ?OnBnClickedDefault@CDlgCollocate@@IAEXXZ 00445940 f   DlgCollocate.obj
 0001:00044970       ??C?$CTempldateHelper@UIProcessControl@@@@QBEPAUIProcessControl@@XZ 00445970 f i ProcessManager.obj
 0001:00044970       ??C?$CTempldateHelper@UIGameLevelParser@@@@QBEPAUIGameLevelParser@@XZ 00445970 f i ServerViewItem.obj
 0001:00044970       ??C?$CTempldateHelper@UIPlazaUserManager@@@@QBEPAUIPlazaUserManager@@XZ 00445970 f i ServerViewItem.obj
 0001:00044970       ??C?$CTempldateHelper@UIWHNetwork@@@@QBEPAUIWHNetwork@@XZ 00445970 f i DlgCollocate.obj
 0001:00044970       ??C?$CTempldateHelper@UITCPSocket@@@@QBEPAUITCPSocket@@XZ 00445970 f i ServerViewItem.obj
 0001:00044990       ?SetRect@CRect@@QAEXHHHH@Z 00445990 f i DlgCollocate.obj
 0001:000449c0       ?AfxGetMainWnd@@YGPAVCWnd@@XZ 004459c0 f i DlgCollocate.obj
 0001:00044a00       ?SetCapture@CWnd@@QAEPAV1@XZ 00445a00 f i DlgCollocate.obj
 0001:00044a30       ?GetCount@CComboBox@@QBEHXZ 00445a30 f i DlgCollocate.obj
 0001:00044a60       ?GetItemData@CComboBox@@QBEKH@Z 00445a60 f i DlgCollocate.obj
 0001:00044a90       ?SetItemData@CComboBox@@QAEHHK@Z 00445a90 f i DlgCollocate.obj
 0001:00044ac0       ?AddString@CComboBox@@QAEHPB_W@Z 00445ac0 f i DlgCollocate.obj
 0001:00044af0       ?LimitText@CEdit@@QAEXH@Z  00445af0 f i DlgCollocate.obj
 0001:00044b20       ??0CImageDC@ATL@@QAE@ABVCImage@1@@Z 00445b20 f i DlgCollocate.obj
 0001:00044b70       ??1CImageDC@ATL@@QAE@XZ    00445b70 f i DlgCollocate.obj
 0001:00044b90       ?Create@CImage@ATL@@QAEHHHHK@Z 00445b90 f i DlgCollocate.obj
 0001:00044bd0       ?CreateEx@CImage@ATL@@QAEHHHHKPBKK@Z 00445bd0 f i DlgCollocate.obj
 0001:00044d50       ?memcpy_s@Checked@ATL@@YAXPAXIPBXI@Z 00445d50 f i DlgCollocate.obj
 0001:00044d90       ?AfxCrtErrorCheck@@YAHH@Z  00445d90 f i DlgCollocate.obj
 0001:00044e40       ?Attach@CImage@ATL@@QAEXPAUHBITMAP__@@W4DIBOrientation@12@@Z 00445e40 f i DlgCollocate.obj
 0001:00044e70       ?GetDC@CImage@ATL@@QBEPAUHDC__@@XZ 00445e70 f i DlgCollocate.obj
 0001:00044ed0       ?GetDC@CDCCache@CImage@ATL@@QAEPAUHDC__@@XZ 00445ed0 f i DlgCollocate.obj
 0001:00044f30       ?InterlockedExchangePointer@@YGPAXPAPAXPAX@Z 00445f30 f i DlgCollocate.obj
 0001:00044f50       ?ReleaseDC@CImage@ATL@@QBEXXZ 00445f50 f i DlgCollocate.obj
 0001:00044fc0       ?ReleaseDC@CDCCache@CImage@ATL@@QAEXPAUHDC__@@@Z 00445fc0 f i DlgCollocate.obj
 0001:00045030       ?UpdateBitmapInfo@CImage@ATL@@AAEXW4DIBOrientation@12@@Z 00446030 f i DlgCollocate.obj
 0001:00045150       ?abs@@YAJJ@Z               00446150 f i DlgCollocate.obj
 0001:00045170       ?ComputePitch@CImage@ATL@@CAHHH@Z 00446170 f i DlgCollocate.obj
 0001:000451a0       ??0CWHNetworkHelper@@QAE@XZ 004461a0 f i DlgCollocate.obj
 0001:000451e0       ??_ECWHNetworkHelper@@UAEPAXI@Z 004461e0 f i DlgCollocate.obj
 0001:000451e0       ??_GCWHNetworkHelper@@UAEPAXI@Z 004461e0 f i DlgCollocate.obj
 0001:00045220       ??1CWHNetworkHelper@@UAE@XZ 00446220 f i DlgCollocate.obj
 0001:00045240       ?Allocate@?$CAtlSafeAllocBufferManager@VCCRTAllocator@ATL@@@_ATL_SAFE_ALLOCA_IMPL@ATL@@QAEPAXK@Z 00446240 f i DlgCollocate.obj
 0001:000452a0       ?Allocate@CCRTAllocator@ATL@@SAPAXI@Z 004462a0 f i DlgCollocate.obj
 0001:000452c0       ??1?$CAtlSafeAllocBufferManager@VCCRTAllocator@ATL@@@_ATL_SAFE_ALLOCA_IMPL@ATL@@QAE@XZ 004462c0 f i DlgCollocate.obj
 0001:00045300       ?Free@CCRTAllocator@ATL@@SAXPAX@Z 00446300 f i DlgCollocate.obj
 0001:00045320       ?BottomRight@CRect@@QAEAAVCPoint@@XZ 00446320 f i GridCtrl.obj
 0001:00045320       ?GetData@CAtlSafeAllocBufferNode@?$CAtlSafeAllocBufferManager@VCCRTAllocator@ATL@@@_ATL_SAFE_ALLOCA_IMPL@ATL@@QAEPAXXZ 00446320 f i DlgCollocate.obj
 0001:00045340       ??0?$CTempldateHelper@UIWHNetwork@@@@QAE@ABU_GUID@@KPB_WPBD@Z 00446340 f i DlgCollocate.obj
 0001:000453d0       ??1?$CTempldateHelper@UIWHNetwork@@@@UAE@XZ 004463d0 f i DlgCollocate.obj
 0001:00045400       ??$AtlAddThrow@K@ATL@@YAKKK@Z 00446400 f i DlgCollocate.obj
 0001:00045440       ??$AtlAdd@K@ATL@@YAJPAKKK@Z 00446440 f i DlgCollocate.obj
 0001:00045470       ??_E?$CTempldateHelper@UIWHNetwork@@@@UAEPAXI@Z 00446470 f i DlgCollocate.obj
 0001:00045470       ??_G?$CTempldateHelper@UIWHNetwork@@@@UAEPAXI@Z 00446470 f i DlgCollocate.obj
 0001:000454b0       ?GetMessageMap@CDownLoadSink@@MBEPBUAFX_MSGMAP@@XZ 004464b0 f   DlgDownLoad.obj
 0001:000454d0       ?GetThisMessageMap@CDownLoadSink@@KGPBUAFX_MSGMAP@@XZ 004464d0 f   DlgDownLoad.obj
 0001:000454f0       ?GetMessageMap@CDlgDownLoad@@MBEPBUAFX_MSGMAP@@XZ 004464f0 f   DlgDownLoad.obj
 0001:00045510       ?GetThisMessageMap@CDlgDownLoad@@KGPBUAFX_MSGMAP@@XZ 00446510 f   DlgDownLoad.obj
 0001:00045550       ??0CDownLoadSink@@QAE@XZ   00446550 f   DlgDownLoad.obj
 0001:000457d0       ??_GCDownLoadSink@@UAEPAXI@Z 004467d0 f i DlgDownLoad.obj
 0001:000457d0       ??_ECDownLoadSink@@UAEPAXI@Z 004467d0 f i DlgDownLoad.obj
 0001:00045810       ??0IDownLoadSink@@QAE@XZ   00446810 f i DlgDownLoad.obj
 0001:00045840       ??0IUnknownEx@@QAE@XZ      00446840 f i DlgDownLoad.obj
 0001:00045860       ??1CDownLoadSink@@UAE@XZ   00446860 f   DlgDownLoad.obj
 0001:000458f0       ?QueryInterface@CDownLoadSink@@UAEPAXABU_GUID@@K@Z 004468f0 f   DlgDownLoad.obj
 0001:000459a0       ?CloseDownLoad@CDownLoadSink@@QAE_NXZ 004469a0 f   DlgDownLoad.obj
 0001:00045a20       ?PerformDownLoad@CDownLoadSink@@QAE_NPB_WGG@Z 00446a20 f   DlgDownLoad.obj
 0001:00045b80       ?OnDownLoadError@CDownLoadSink@@UAE_NW4enDownLoadError@@@Z 00446b80 f   DlgDownLoad.obj
 0001:00045bc0       ?OnDownLoadStatus@CDownLoadSink@@UAE_NW4enDownLoadStatus@@@Z 00446bc0 f   DlgDownLoad.obj
 0001:00045c60       ?OnDataStream@CDownLoadSink@@UAE_NPBXG@Z 00446c60 f   DlgDownLoad.obj
 0001:00045d00       _==                        00446d00 f i DlgDownLoad.obj
 0001:00045d20       _IsEqualGUID               00446d20 f i DlgDownLoad.obj
 0001:00045d50       ?OnDataInformation@CDownLoadSink@@UAE_NKPB_W0@Z 00446d50 f   DlgDownLoad.obj
 0001:00045da0       ?PerformInstall@CDownLoadSink@@AAE_NXZ 00446da0 f   DlgDownLoad.obj
 0001:00046020       ?CreateDownFile@CDownLoadSink@@AAE_NPB_W@Z 00447020 f   DlgDownLoad.obj
 0001:000461c0       ?OnTimer@CDownLoadSink@@IAEXI@Z 004471c0 f   DlgDownLoad.obj
 0001:00046250       ??0CDlgDownLoad@@QAE@XZ    00447250 f   DlgDownLoad.obj
 0001:00046470       ??_GCDlgDownLoad@@UAEPAXI@Z 00447470 f i DlgDownLoad.obj
 0001:00046470       ??_ECDlgDownLoad@@UAEPAXI@Z 00447470 f i DlgDownLoad.obj
 0001:000464b0       ??1CDlgDownLoad@@UAE@XZ    004474b0 f   DlgDownLoad.obj
 0001:00046580       ?DoDataExchange@CDlgDownLoad@@MAEXPAVCDataExchange@@@Z 00447580 f   DlgDownLoad.obj
 0001:00046620       ?OnInitDialog@CDlgDownLoad@@MAEHXZ 00447620 f   DlgDownLoad.obj
 0001:00046720       ?OnCancel@CDlgDownLoad@@MAEXXZ 00447720 f   DlgDownLoad.obj
 0001:00046800       ?OnBnClickedLast@CDlgDownLoad@@IAEXXZ 00447800 f   DlgDownLoad.obj
 0001:000468f0       ?OnBnClickedNext@CDlgDownLoad@@IAEXXZ 004478f0 f   DlgDownLoad.obj
 0001:000469f0       ?OnBnClickedCancelOne@CDlgDownLoad@@IAEXXZ 004479f0 f   DlgDownLoad.obj
 0001:00046b30       ?OnBnClickedRetryAgain@CDlgDownLoad@@IAEXXZ 00447b30 f   DlgDownLoad.obj
 0001:00046b80       ?OnDestroy@CDlgDownLoad@@IAEXXZ 00447b80 f   DlgDownLoad.obj
 0001:00046cd0       ?OnTimer@CDlgDownLoad@@IAEXI@Z 00447cd0 f   DlgDownLoad.obj
 0001:00046d80       ?OnLButtonDown@CDlgDownLoad@@IAEXIVCPoint@@@Z 00447d80 f   DlgDownLoad.obj
 0001:00046e50       ?OnLButtonDblClk@CDlgDownLoad@@IAEXIVCPoint@@@Z 00447e50 f   DlgDownLoad.obj
 0001:00046eb0       ?OnWindowPosChanged@CDlgDownLoad@@IAEXPAUtagWINDOWPOS@@@Z 00447eb0 f   DlgDownLoad.obj
 0001:00047070       ?OnSetCursor@CDlgDownLoad@@IAEHPAVCWnd@@II@Z 00448070 f   DlgDownLoad.obj
 0001:00047140       ?OnDrawClientArea@CDlgDownLoad@@MAEXPAVCDC@@HH@Z 00448140 f   DlgDownLoad.obj
 0001:000478f0       ?DownLoadClient@CDlgDownLoad@@QAE_NPB_WGG@Z 004488f0 f   DlgDownLoad.obj
 0001:00047a90       ?RectifyControl@CDlgDownLoad@@AAEXXZ 00448a90 f   DlgDownLoad.obj
 0001:00047e10       ?FlashDownLoadItem@CDlgDownLoad@@AAEXG@Z 00448e10 f   DlgDownLoad.obj
 0001:00047e80       ?SwitchItemIndex@CDlgDownLoad@@AAEGVCPoint@@@Z 00448e80 f   DlgDownLoad.obj
 0001:00047fb0       ?VerdictCancelOne@CDlgDownLoad@@AAE_NG@Z 00448fb0 f   DlgDownLoad.obj
 0001:00048010       ?VerdictRetryAgain@CDlgDownLoad@@AAE_NG@Z 00449010 f   DlgDownLoad.obj
 0001:00048060       ?GetStatusString@CDlgDownLoad@@AAEPB_WE@Z 00449060 f   DlgDownLoad.obj
 0001:000480d0       ?OnItemStatusUpdateMessage@CDlgDownLoad@@IAEJIJ@Z 004490d0 f   DlgDownLoad.obj
 0001:00048310       ?GetInstance@CPlatformEvent@@SAPAV1@XZ 00449310 f i DlgDownLoad.obj
 0001:00048330       ??0?$CWHArray@PAVCDownLoadSink@@ABQAV1@@@QAE@XZ 00449330 f i DlgDownLoad.obj
 0001:00048380       ??1?$CWHArray@PAVCDownLoadSink@@ABQAV1@@@UAE@XZ 00449380 f i DlgDownLoad.obj
 0001:000483f0       ?Add@?$CWHArray@PAUtagGameKindInfo@@ABQAU1@@@QAEHABQAUtagGameKindInfo@@@Z 004493f0 f i PlazaViewItem.obj
 0001:000483f0       ?Add@?$CWHArray@PAVCDownLoadSink@@ABQAV1@@@QAEHABQAVCDownLoadSink@@@Z 004493f0 f i DlgDownLoad.obj
 0001:000483f0       ?Add@?$CWHArray@PAVCGameListItem@@ABQAV1@@@QAEHABQAVCGameListItem@@@Z 004493f0 f i ServerListData.obj
 0001:000483f0       ?Add@?$CWHArray@PAUHWND__@@ABQAU1@@@QAEHABQAUHWND__@@@Z 004493f0 f i PlatformEvent.obj
 0001:000483f0       ?Add@?$CWHArray@PAVCGameTypeItem@@ABQAV1@@@QAEHABQAVCGameTypeItem@@@Z 004493f0 f i WndGameTypeCtrl.obj
 0001:000483f0       ?Add@?$CWHArray@PAUtagGameServerInfo@@ABQAU1@@@QAEHABQAUtagGameServerInfo@@@Z 004493f0 f i PlazaViewItem.obj
 0001:00048430       ??_G?$CWHArray@PAVCDownLoadSink@@ABQAV1@@@UAEPAXI@Z 00449430 f i DlgDownLoad.obj
 0001:00048430       ??_E?$CWHArray@PAVCDownLoadSink@@ABQAV1@@@UAEPAXI@Z 00449430 f i DlgDownLoad.obj
 0001:00048470       ?SetAtGrow@?$CWHArray@PAUHWND__@@ABQAU1@@@QAEXHABQAUHWND__@@@Z 00449470 f i PlatformEvent.obj
 0001:00048470       ?SetAtGrow@?$CWHArray@PAVCGameTypeItem@@ABQAV1@@@QAEXHABQAVCGameTypeItem@@@Z 00449470 f i WndGameTypeCtrl.obj
 0001:00048470       ?SetAtGrow@?$CWHArray@PAVCGameListItem@@ABQAV1@@@QAEXHABQAVCGameListItem@@@Z 00449470 f i ServerListData.obj
 0001:00048470       ?SetAtGrow@?$CWHArray@PAUtagGameServerInfo@@ABQAU1@@@QAEXHABQAUtagGameServerInfo@@@Z 00449470 f i PlazaViewItem.obj
 0001:00048470       ?SetAtGrow@?$CWHArray@PAVCDownLoadSink@@ABQAV1@@@QAEXHABQAVCDownLoadSink@@@Z 00449470 f i DlgDownLoad.obj
 0001:00048470       ?SetAtGrow@?$CWHArray@PAUtagGameKindInfo@@ABQAU1@@@QAEXHABQAUtagGameKindInfo@@@Z 00449470 f i PlazaViewItem.obj
 0001:000484c0       ??2CObject@@SGPAXI@Z       004494c0 f i DlgDownLoad.obj
 0001:000484e0       ?ScreenToClient@CWnd@@QBEXPAUtagPOINT@@@Z 004494e0 f i DlgDownLoad.obj
 0001:00048510       ?SetForegroundWindow@CWnd@@QAEHXZ 00449510 f i DlgDownLoad.obj
 0001:00048530       ?SetIcon@CWnd@@QAEPAUHICON__@@PAU2@H@Z 00449530 f i DlgDownLoad.obj
 0001:00048560       ?OnKeyDown@CWnd@@IAEXIII@Z 00449560 f i GridCellCombo.obj
 0001:00048560       ?OnSysKeyDown@CWnd@@IAEXIII@Z 00449560 f i GridCtrl.obj
 0001:00048560       ?OnChar@CWnd@@IAEXIII@Z    00449560 f i GridCtrl.obj
 0001:00048560       ?OnRButtonUp@CWnd@@IAEXIVCPoint@@@Z 00449560 f i GridCtrl.obj
 0001:00048560       ?OnMouseMove@CWnd@@IAEXIVCPoint@@@Z 00449560 f i ChongQing11X5.obj
 0001:00048560       ?OnKeyUp@CWnd@@IAEXIII@Z   00449560 f i GridCellCombo.obj
 0001:00048560       ?OnLButtonUp@CWnd@@IAEXIVCPoint@@@Z 00449560 f i ChongQing11X5.obj
 0001:00048560       ?OnSize@CWnd@@IAEXIHH@Z    00449560 f i ChongQing11X5.obj
 0001:00048560       ?OnSetCursor@CWnd@@IAEHPAV1@II@Z 00449560 f i DlgCollocate.obj
 0001:00048560       ?OnLButtonDblClk@CWnd@@IAEXIVCPoint@@@Z 00449560 f i DlgDownLoad.obj
 0001:00048560       ?OnLButtonDown@CWnd@@IAEXIVCPoint@@@Z 00449560 f i ChongQing11X5.obj
 0001:00048580       ?InterfaceVersionCompare@@YA_NKK@Z 00449580 f i DlgDownLoad.obj
 0001:00048630       ?GetProductVer@@YAEK@Z     00449630 f i DlgDownLoad.obj
 0001:00048650       ?GetMainVer@@YAEK@Z        00449650 f i DlgDownLoad.obj
 0001:00048670       ?GetSubVer@@YAEK@Z         00449670 f i DlgDownLoad.obj
 0001:00048690       ?GetBuildVer@@YAEK@Z       00449690 f i DlgDownLoad.obj
 0001:000486b0       ??0CImage@ATL@@QAE@XZ      004496b0 f i DlgDownLoad.obj
 0001:00048750       ?IncreaseCImageCount@CInitGDIPlus@CImage@ATL@@QAEXXZ 00449750 f i DlgDownLoad.obj
 0001:00048790       ??_GCImage@ATL@@UAEPAXI@Z  00449790 f i DlgDownLoad.obj
 0001:00048790       ??_ECImage@ATL@@UAEPAXI@Z  00449790 f i DlgDownLoad.obj
 0001:000487d0       ??1CImage@ATL@@UAE@XZ      004497d0 f i DlgDownLoad.obj
 0001:00048800       ?DecreaseCImageCount@CInitGDIPlus@CImage@ATL@@QAEXXZ 00449800 f i DlgDownLoad.obj
 0001:00048850       ?ReleaseGDIPlus@CInitGDIPlus@CImage@ATL@@QAEXXZ 00449850 f i DlgDownLoad.obj
 0001:000488a0       ?BitBlt@CImage@ATL@@QBEHPAUHDC__@@HHHHHHK@Z 004498a0 f i DlgDownLoad.obj
 0001:00048900       ?Destroy@CImage@ATL@@QAEXXZ 00449900 f i DlgDownLoad.obj
 0001:00048940       ?Detach@CImage@ATL@@QAEPAUHBITMAP__@@XZ 00449940 f i DlgDownLoad.obj
 0001:000489c0       ?GetHeight@CImage@ATL@@QBEHXZ 004499c0 f i DlgDownLoad.obj
 0001:000489e0       ?GetWidth@CImage@ATL@@QBEHXZ 004499e0 f i DlgDownLoad.obj
 0001:00048a00       ?LoadFromResource@CImage@ATL@@QAEXPAUHINSTANCE__@@I@Z 00449a00 f i DlgDownLoad.obj
 0001:00048a30       ?LoadFromResource@CImage@ATL@@QAEXPAUHINSTANCE__@@PB_W@Z 00449a30 f i DlgDownLoad.obj
 0001:00048a70       ?GetMessageMap@CDlgEnquire@@MBEPBUAFX_MSGMAP@@XZ 00449a70 f   DlgEnquire.obj
 0001:00048a90       ?GetThisMessageMap@CDlgEnquire@@KGPBUAFX_MSGMAP@@XZ 00449a90 f   DlgEnquire.obj
 0001:00048ab0       ??0CDlgEnquire@@QAE@XZ     00449ab0 f   DlgEnquire.obj
 0001:00048b70       ??_GCDlgEnquire@@UAEPAXI@Z 00449b70 f i DlgEnquire.obj
 0001:00048b70       ??_ECDlgEnquire@@UAEPAXI@Z 00449b70 f i DlgEnquire.obj
 0001:00048bb0       ??1CDlgEnquire@@UAE@XZ     00449bb0 f   DlgEnquire.obj
 0001:00048c70       ?DoDataExchange@CDlgEnquire@@MAEXPAVCDataExchange@@@Z 00449c70 f   DlgEnquire.obj
 0001:00048cf0       ?OnInitDialog@CDlgEnquire@@MAEHXZ 00449cf0 f   DlgEnquire.obj
 0001:00049100       ?GetInstance@CPlatformFrame@@SAPAV1@XZ 0044a100 f i DlgEnquire.obj
 0001:00049120       ?OnEraseBkgnd@CDlgEnquire@@QAEHPAVCDC@@@Z 0044a120 f   DlgEnquire.obj
 0001:000492a0       ?OnShowWindow@CDlgEnquire@@QAEXHI@Z 0044a2a0 f   DlgEnquire.obj
 0001:000492f0       ?OnWindowPosChanged@CDlgEnquire@@QAEXPAUtagWINDOWPOS@@@Z 0044a2f0 f   DlgEnquire.obj
 0001:00049360       ?OnBnClickedClosePlaza@CDlgEnquire@@IAEXXZ 0044a360 f   DlgEnquire.obj
 0001:00049380       ?OnBnClickedCloseServer@CDlgEnquire@@IAEXXZ 0044a380 f   DlgEnquire.obj
 0001:000493a0       ?OnBnClickedSwitchAccounts@CDlgEnquire@@IAEXXZ 0044a3a0 f   DlgEnquire.obj
 0001:000493c0       ??BCRgn@@QBEPAUHRGN__@@XZ  0044a3c0 f i DlgEnquire.obj
 0001:000493c0       ?GetSafeHandle@CGdiObject@@QBEPAXXZ 0044a3c0 f i ChongQing11X5.obj
 0001:000493c0       ??BCGdiObject@@QBEPAXXZ    0044a3c0 f i DlgCollocate.obj
 0001:000493c0       ??BCBrush@@QBEPAUHBRUSH__@@XZ 0044a3c0 f i DlgCollocate.obj
 0001:000493c0       ??BCDC@@QBEPAUHDC__@@XZ    0044a3c0 f i DlgLogon.obj
 0001:000493c0       ?GetSafeHdc@CDC@@QBEPAUHDC__@@XZ 0044a3c0 f i ChongQing11X5.obj
 0001:000493f0       ??0CRgn@@QAE@XZ            0044a3f0 f i DlgEnquire.obj
 0001:00049420       ??_GCRgn@@UAEPAXI@Z        0044a420 f i DlgEnquire.obj
 0001:00049420       ??_ECRgn@@UAEPAXI@Z        0044a420 f i DlgEnquire.obj
 0001:00049460       ??1CRgn@@UAE@XZ            0044a460 f i DlgEnquire.obj
 0001:00049490       ?CreateRoundRectRgn@CRgn@@QAEHHHHHHH@Z 0044a490 f i DlgEnquire.obj
 0001:000494d0       ?SetWindowRgn@CWnd@@QAEHPAUHRGN__@@H@Z 0044a4d0 f i DlgEnquire.obj
 0001:00049500       ?GetRuntimeClass@CDlgFandian@@UBEPAUCRuntimeClass@@XZ 0044a500 f   DlgFandian.obj
 0001:00049520       ??0CDlgFandian@@QAE@PAVCWnd@@@Z 0044a520 f   DlgFandian.obj
 0001:00049600       ??_ECDlgFandian@@UAEPAXI@Z 0044a600 f i DlgFandian.obj
 0001:00049600       ??_GCDlgFandian@@UAEPAXI@Z 0044a600 f i DlgFandian.obj
 0001:00049640       ??1CDlgFandian@@UAE@XZ     0044a640 f   DlgFandian.obj
 0001:00049740       ?DoDataExchange@CDlgFandian@@MAEXPAVCDataExchange@@@Z 0044a740 f   DlgFandian.obj
 0001:000497c0       ?GetMessageMap@CDlgFandian@@MBEPBUAFX_MSGMAP@@XZ 0044a7c0 f   DlgFandian.obj
 0001:000497e0       ?GetThisMessageMap@CDlgFandian@@KGPBUAFX_MSGMAP@@XZ 0044a7e0 f   DlgFandian.obj
 0001:00049800       ?SetBonus@CDlgFandian@@QAEXMMMMM@Z 0044a800 f   DlgFandian.obj
 0001:00049860       ?GetBonus@CDlgFandian@@QAEXAAM0@Z 0044a860 f   DlgFandian.obj
 0001:000498a0       ?OnInitDialog@CDlgFandian@@MAEHXZ 0044a8a0 f   DlgFandian.obj
 0001:00049c60       ?OnPaint@CDlgFandian@@IAEXXZ 0044ac60 f   DlgFandian.obj
 0001:00049d60       ?OnCtlColor@CDlgFandian@@IAEPAUHBRUSH__@@PAVCDC@@PAVCWnd@@I@Z 0044ad60 f   DlgFandian.obj
 0001:00049e20       ?OnNMCustomdrawSlider1@CDlgFandian@@QAEXPAUtagNMHDR@@PAJ@Z 0044ae20 f   DlgFandian.obj
 0001:00049fc0       ?OnBnClickedButton1@CDlgFandian@@QAEXXZ 0044afc0 f   DlgFandian.obj
 0001:0004a000       ?OnBnClickedButton2@CDlgFandian@@QAEXXZ 0044b000 f   DlgFandian.obj
 0001:0004a040       ??0CSliderCtrl@@QAE@XZ     0044b040 f i DlgFandian.obj
 0001:0004a070       ??_ECSliderCtrl@@UAEPAXI@Z 0044b070 f i DlgFandian.obj
 0001:0004a070       ??_GCSliderCtrl@@UAEPAXI@Z 0044b070 f i DlgFandian.obj
 0001:0004a0b0       ?GetPos@CSliderCtrl@@QBEHXZ 0044b0b0 f i DlgFandian.obj
 0001:0004a0e0       ?SetPos@CSliderCtrl@@QAEXH@Z 0044b0e0 f i DlgFandian.obj
 0001:0004a110       ?SetTicFreq@CSliderCtrl@@QAEXH@Z 0044b110 f i DlgFandian.obj
 0001:0004a140       ?GetMessageMap@CDlgLogon@@MBEPBUAFX_MSGMAP@@XZ 0044b140 f   DlgLogon.obj
 0001:0004a160       ?GetThisMessageMap@CDlgLogon@@KGPBUAFX_MSGMAP@@XZ 0044b160 f   DlgLogon.obj
 0001:0004a180       ?GetMessageMap@CWndLogonButton@@MBEPBUAFX_MSGMAP@@XZ 0044b180 f   DlgLogon.obj
 0001:0004a1a0       ?GetThisMessageMap@CWndLogonButton@@KGPBUAFX_MSGMAP@@XZ 0044b1a0 f   DlgLogon.obj
 0001:0004a1c0       ??0CWndLogonButton@@QAE@XZ 0044b1c0 f   DlgLogon.obj
 0001:0004a2e0       ??_GCWndLogonButton@@UAEPAXI@Z 0044b2e0 f i DlgLogon.obj
 0001:0004a2e0       ??_ECWndLogonButton@@UAEPAXI@Z 0044b2e0 f i DlgLogon.obj
 0001:0004a320       ??1CWndLogonButton@@UAE@XZ 0044b320 f   DlgLogon.obj
 0001:0004a350       ?SwitchToButtonIndex@CWndLogonButton@@AAEGVCPoint@@@Z 0044b350 f   DlgLogon.obj
 0001:0004a480       ?OnPaint@CWndLogonButton@@IAEXXZ 0044b480 f   DlgLogon.obj
 0001:0004a4c0       ?OnCreate@CWndLogonButton@@IAEHPAUtagCREATESTRUCTW@@@Z 0044b4c0 f   DlgLogon.obj
 0001:0004a5c0       ?OnMouseMove@CWndLogonButton@@IAEXIVCPoint@@@Z 0044b5c0 f   DlgLogon.obj
 0001:0004a690       ?OnLButtonUp@CWndLogonButton@@IAEXIVCPoint@@@Z 0044b690 f   DlgLogon.obj
 0001:0004a860       ?OnMouseLeave@CWndLogonButton@@IAEJIJ@Z 0044b860 f   DlgLogon.obj
 0001:0004a860       ?OnMouseLeave@CCollocateBar@@IAEJIJ@Z 0044b860 f   DlgCollocate.obj
 0001:0004a860       ?OnMouseLeave@CDlgServiceBar@@IAEJIJ@Z 0044b860 f   DlgService.obj
 0001:0004a8b0       ??0CControlCheckButton@@QAE@XZ 0044b8b0 f   DlgLogon.obj
 0001:0004a950       ??_ECControlCheckButton@@UAEPAXI@Z 0044b950 f i DlgLogon.obj
 0001:0004a950       ??_GCControlCheckButton@@UAEPAXI@Z 0044b950 f i DlgLogon.obj
 0001:0004a990       ??1CControlCheckButton@@UAE@XZ 0044b990 f   DlgLogon.obj
 0001:0004a9c0       ?GetControlRect@CControlCheckButton@@QAE?AVCRect@@XZ 0044b9c0 f   DlgLogon.obj
 0001:0004aa40       ?OnDrawControl@CControlCheckButton@@QAEXPAVCDC@@@Z 0044ba40 f   DlgLogon.obj
 0001:0004aad0       ?OnClickControl@CControlCheckButton@@QAEXVCPoint@@@Z 0044bad0 f   DlgLogon.obj
 0001:0004ab40       ??0CDlgLogon@@QAE@XZ       0044bb40 f   DlgLogon.obj
 0001:0004acc0       ??_GCDlgLogon@@UAEPAXI@Z   0044bcc0 f i DlgLogon.obj
 0001:0004acc0       ??_ECDlgLogon@@UAEPAXI@Z   0044bcc0 f i DlgLogon.obj
 0001:0004ad00       ??1CDlgLogon@@UAE@XZ       0044bd00 f   DlgLogon.obj
 0001:0004ae60       ?DoDataExchange@CDlgLogon@@MAEXPAVCDataExchange@@@Z 0044be60 f   DlgLogon.obj
 0001:0004aef0       ?OnInitDialog@CDlgLogon@@MAEHXZ 0044bef0 f   DlgLogon.obj
 0001:0004b3d0       ?SetControlBenchmark@CControlCheckButton@@QAEXHH@Z 0044c3d0 f i DlgLogon.obj
 0001:0004b400       ?PreTranslateMessage@CDlgLogon@@MAEHPAUtagMSG@@@Z 0044c400 f   DlgLogon.obj
 0001:0004b440       ?OnOK@CDlgLogon@@MAEXXZ    0044c440 f   DlgLogon.obj
 0001:0004b4a0       ?GetButtonChecked@CControlCheckButton@@QAEEXZ 0044c4a0 f i DlgLogon.obj
 0001:0004b4c0       ?GetInstance@CMissionLogon@@SAPAV1@XZ 0044c4c0 f i DlgLogon.obj
 0001:0004b4e0       ?OnCancel@CDlgLogon@@MAEXXZ 0044c4e0 f   DlgLogon.obj
 0001:0004b520       ?ConstructLogonPacket@CDlgLogon@@QAEGQAEG@Z 0044c520 f   DlgLogon.obj
 0001:0004b5c0       ?LoadAccountsInfo@CDlgLogon@@AAEXXZ 0044c5c0 f   DlgLogon.obj
 0001:0004b7f0       ?SetButtonChecked@CControlCheckButton@@QAEXE@Z 0044c7f0 f i DlgLogon.obj
 0001:0004b840       ?LoadLogonServerInfo@CDlgLogon@@AAEXXZ 0044c840 f   DlgLogon.obj
 0001:0004ba20       ?GetInformation@CDlgLogon@@AAE_NXZ 0044ca20 f   DlgLogon.obj
 0001:0004bc20       ?OnBnClickedRegister@CDlgLogon@@IAEXXZ 0044cc20 f   DlgLogon.obj
 0001:0004be50       ?OnBnClickedForget@CDlgLogon@@IAEXXZ 0044ce50 f   DlgLogon.obj
 0001:0004bee0       ?OnBnClickedKeFu@CDlgLogon@@IAEXXZ 0044cee0 f   DlgLogon.obj
 0001:0004bf70       ?OnCbnEditchangeAccounts@CDlgLogon@@IAEXXZ 0044cf70 f   DlgLogon.obj
 0001:0004bfe0       ?OnEraseBkgnd@CDlgLogon@@IAEHPAVCDC@@@Z 0044cfe0 f   DlgLogon.obj
 0001:0004c0e0       ?OnShowWindow@CDlgLogon@@IAEXHI@Z 0044d0e0 f   DlgLogon.obj
 0001:0004c130       ?OnLButtonDown@CDlgLogon@@IAEXIVCPoint@@@Z 0044d130 f   DlgLogon.obj
 0001:0004c190       ?OnWindowPosChanged@CDlgLogon@@IAEXPAUtagWINDOWPOS@@@Z 0044d190 f   DlgLogon.obj
 0001:0004c200       ?OnCtlColor@CDlgLogon@@IAEPAUHBRUSH__@@PAVCDC@@PAVCWnd@@I@Z 0044d200 f   DlgLogon.obj
 0001:0004c380       ?OnEnChangeAccounts@CDlgLogon@@QAEXXZ 0044d380 f   DlgLogon.obj
 0001:0004c3f0       ?OnLButtonUp@CDlgLogon@@IAEXIVCPoint@@@Z 0044d3f0 f   DlgLogon.obj
 0001:0004c430       ?SetSize@CSize@@QAEXHH@Z   0044d430 f i DlgCollocate.obj
 0001:0004c430       ?SetPoint@CPoint@@QAEXHH@Z 0044d430 f i DlgLogon.obj
 0001:0004c460       ?AfxGetResourceHandle@@YGPAUHINSTANCE__@@XZ 0044d460 f i DlgLogon.obj
 0001:0004c480       ??0CBrush@@QAE@XZ          0044d480 f i DlgLogon.obj
 0001:0004c4b0       ??_GCBrush@@UAEPAXI@Z      0044d4b0 f i DlgLogon.obj
 0001:0004c4b0       ??_ECBrush@@UAEPAXI@Z      0044d4b0 f i DlgLogon.obj
 0001:0004c4f0       ??1CBrush@@UAE@XZ          0044d4f0 f i DlgLogon.obj
 0001:0004c520       ?CreateSolidBrush@CBrush@@QAEHK@Z 0044d520 f i DlgLogon.obj
 0001:0004c550       ?SetFont@CWnd@@QAEXPAVCFont@@H@Z 0044d550 f i DlgLogon.obj
 0001:0004c590       ?GetMessageMap@CDlgRegister@@MBEPBUAFX_MSGMAP@@XZ 0044d590 f   DlgRegister.obj
 0001:0004c5b0       ?GetThisMessageMap@CDlgRegister@@KGPBUAFX_MSGMAP@@XZ 0044d5b0 f   DlgRegister.obj
 0001:0004c5d0       ??0CDlgRegister@@QAE@XZ    0044d5d0 f   DlgRegister.obj
 0001:0004c870       ??_GCDlgRegister@@UAEPAXI@Z 0044d870 f i DlgRegister.obj
 0001:0004c870       ??_ECDlgRegister@@UAEPAXI@Z 0044d870 f i DlgRegister.obj
 0001:0004c8b0       ??1CDlgRegister@@UAE@XZ    0044d8b0 f   DlgRegister.obj
 0001:0004caa0       ?DoDataExchange@CDlgRegister@@UAEXPAVCDataExchange@@@Z 0044daa0 f   DlgRegister.obj
 0001:0004cc60       ?PreTranslateMessage@CDlgRegister@@UAEHPAUtagMSG@@@Z 0044dc60 f   DlgRegister.obj
 0001:0004cd20       ?OnInitDialog@CDlgRegister@@UAEHXZ 0044dd20 f   DlgRegister.obj
 0001:0004d170       ?OnOK@CDlgRegister@@UAEXXZ 0044e170 f   DlgRegister.obj
 0001:0004d1d0       ?OnCancel@CDlgRegister@@UAEXXZ 0044e1d0 f   DlgRegister.obj
 0001:0004d210       ?ConstructRegisterPacket@CDlgRegister@@QAEGQAEG@Z 0044e210 f   DlgRegister.obj
 0001:0004d420       ?GetInformation@CDlgRegister@@AAE_NXZ 0044e420 f   DlgRegister.obj
 0001:0004dbb0       ?GetControlString@CDlgRegister@@AAEXIQA_WG@Z 0044ebb0 f   DlgRegister.obj
 0001:0004dc50       ?OnBnClickedQuit@CDlgRegister@@QAEXXZ 0044ec50 f   DlgRegister.obj
 0001:0004dc80       ?OnEnChangeLogonPass@CDlgRegister@@QAEXXZ 0044ec80 f   DlgRegister.obj
 0001:0004dd20       ?OnEnChangeInsurePass@CDlgRegister@@QAEXXZ 0044ed20 f   DlgRegister.obj
 0001:0004ddc0       ?OnBnClickedChangeValidate@CDlgRegister@@QAEXXZ 0044edc0 f   DlgRegister.obj
 0001:0004ddf0       ?OnEraseBkgnd@CDlgRegister@@IAEHPAVCDC@@@Z 0044edf0 f   DlgRegister.obj
 0001:0004e110       ?OnShowWindow@CDlgRegister@@IAEXHI@Z 0044f110 f   DlgRegister.obj
 0001:0004e160       ?OnLButtonDown@CDlgRegister@@IAEXIVCPoint@@@Z 0044f160 f   DlgRegister.obj
 0001:0004e1c0       ?OnWindowPosChanged@CDlgRegister@@IAEXPAUtagWINDOWPOS@@@Z 0044f1c0 f   DlgRegister.obj
 0001:0004e230       ?OnCtlColor@CDlgRegister@@IAEPAUHBRUSH__@@PAVCDC@@PAVCWnd@@I@Z 0044f230 f   DlgRegister.obj
 0001:0004e2a0       ?OnBnClickedGenderMankind@CDlgRegister@@QAEXXZ 0044f2a0 f   DlgRegister.obj
 0001:0004e2e0       ?OnBnClickedGenderFemale@CDlgRegister@@QAEXXZ 0044f2e0 f   DlgRegister.obj
 0001:0004e320       ??0CFaceSelectControlHelper@@QAE@XZ 0044f320 f i DlgRegister.obj
 0001:0004e360       ??_GCFaceSelectControlHelper@@UAEPAXI@Z 0044f360 f i DlgRegister.obj
 0001:0004e360       ??_ECFaceSelectControlHelper@@UAEPAXI@Z 0044f360 f i DlgRegister.obj
 0001:0004e3a0       ??1CFaceSelectControlHelper@@UAE@XZ 0044f3a0 f i DlgRegister.obj
 0001:0004e3c0       ??0?$CTempldateHelper@UIFaceSelectControl@@@@QAE@ABU_GUID@@KPB_WPBD@Z 0044f3c0 f i DlgRegister.obj
 0001:0004e450       ??1?$CTempldateHelper@UIFaceSelectControl@@@@UAE@XZ 0044f450 f i DlgRegister.obj
 0001:0004e480       ??_G?$CTempldateHelper@UIFaceSelectControl@@@@UAEPAXI@Z 0044f480 f i DlgRegister.obj
 0001:0004e480       ??_E?$CTempldateHelper@UIFaceSelectControl@@@@UAEPAXI@Z 0044f480 f i DlgRegister.obj
 0001:0004e4c0       ?GetMessageMap@CDlgServerManager@@MBEPBUAFX_MSGMAP@@XZ 0044f4c0 f   DlgServerManager.obj
 0001:0004e4e0       ?GetThisMessageMap@CDlgServerManager@@KGPBUAFX_MSGMAP@@XZ 0044f4e0 f   DlgServerManager.obj
 0001:0004e520       ??0CDlgServerManager@@QAE@XZ 0044f520 f   DlgServerManager.obj
 0001:0004e6f0       ??_GCDlgServerManager@@UAEPAXI@Z 0044f6f0 f i DlgServerManager.obj
 0001:0004e6f0       ??_ECDlgServerManager@@UAEPAXI@Z 0044f6f0 f i DlgServerManager.obj
 0001:0004e730       ??1CDlgServerManager@@UAE@XZ 0044f730 f   DlgServerManager.obj
 0001:0004e8b0       ?DoDataExchange@CDlgServerManager@@MAEXPAVCDataExchange@@@Z 0044f8b0 f   DlgServerManager.obj
 0001:0004ea00       ?OnInitDialog@CDlgServerManager@@MAEHXZ 0044fa00 f   DlgServerManager.obj
 0001:0004ebb0       ?OnOK@CDlgServerManager@@MAEXXZ 0044fbb0 f   DlgServerManager.obj
 0001:0004f250       ?OnDrawClientArea@CDlgServerManager@@MAEXPAVCDC@@HH@Z 00450250 f   DlgServerManager.obj
 0001:0004f2f0       ?Initialization@CDlgServerManager@@QAEXPAUITCPSocket@@PAUIClientUserItem@@@Z 004502f0 f   DlgServerManager.obj
 0001:0004f320       ?SetServerOptionInfo@CDlgServerManager@@QAEXAAUtagServerOptionInfo@@K@Z 00450320 f   DlgServerManager.obj
 0001:0004fbd0       ?OnCtlColor@CDlgServerManager@@IAEPAUHBRUSH__@@PAVCDC@@PAVCWnd@@I@Z 00450bd0 f   DlgServerManager.obj
 0001:0004fc50       ??0CPen@@QAE@XZ            00450c50 f i DlgServerManager.obj
 0001:0004fc80       ??_ECPen@@UAEPAXI@Z        00450c80 f i DlgServerManager.obj
 0001:0004fc80       ??_GCPen@@UAEPAXI@Z        00450c80 f i DlgServerManager.obj
 0001:0004fcc0       ??1CPen@@UAE@XZ            00450cc0 f i DlgServerManager.obj
 0001:0004fcf0       ?CreatePen@CPen@@QAEHHHK@Z 00450cf0 f i DlgServerManager.obj
 0001:0004fd20       ?RoundRect@CDC@@QAEHHHHHHH@Z 00450d20 f i DlgServerManager.obj
 0001:0004fd60       ?IsForfendGameChat@CServerRule@@SA_NK@Z 00450d60 f i DlgServerManager.obj
 0001:0004fd80       ?IsForfendRoomChat@CServerRule@@SA_NK@Z 00450d80 f i DlgServerManager.obj
 0001:0004fda0       ?IsForfendWisperChat@CServerRule@@SA_NK@Z 00450da0 f i DlgServerManager.obj
 0001:0004fdc0       ?IsForfendWisperOnGame@CServerRule@@SA_NK@Z 00450dc0 f i DlgServerManager.obj
 0001:0004fde0       ?IsAllowDynamicJoin@CServerRule@@SA_NK@Z 00450de0 f i DlgServerManager.obj
 0001:0004fe00       ?IsAllowOffLineTrustee@CServerRule@@SA_NK@Z 00450e00 f i DlgServerManager.obj
 0001:0004fe20       ?IsAllowAvertCheatMode@CServerRule@@SA_NK@Z 00450e20 f i DlgServerManager.obj
 0001:0004fe40       ?IsRecordGameScore@CServerRule@@SA_NK@Z 00450e40 f i DlgServerManager.obj
 0001:0004fe60       ?IsRecordGameTrack@CServerRule@@SA_NK@Z 00450e60 f i DlgServerManager.obj
 0001:0004fe80       ?IsDynamicCellScore@CServerRule@@SA_NK@Z 00450e80 f i DlgServerManager.obj
 0001:0004fea0       ?IsImmediateWriteScore@CServerRule@@SA_NK@Z 00450ea0 f i DlgServerManager.obj
 0001:0004fec0       ?IsForfendRoomEnter@CServerRule@@SA_NK@Z 00450ec0 f i DlgServerManager.obj
 0001:0004fee0       ?IsForfendGameEnter@CServerRule@@SA_NK@Z 00450ee0 f i DlgServerManager.obj
 0001:0004ff00       ?IsForfendGameLookon@CServerRule@@SA_NK@Z 00450f00 f i DlgServerManager.obj
 0001:0004ff20       ?IsForfendSaveInRoom@CServerRule@@SA_NK@Z 00450f20 f i DlgServerManager.obj
 0001:0004ff40       ?IsForfendSaveInGame@CServerRule@@SA_NK@Z 00450f40 f i DlgServerManager.obj
 0001:0004ff60       ?IsForfendGameRule@CServerRule@@SA_NK@Z 00450f60 f i DlgServerManager.obj
 0001:0004ff80       ?IsForfendLockTable@CServerRule@@SA_NK@Z 00450f80 f i DlgServerManager.obj
 0001:0004ffa0       ?IsAllowAndroidAttend@CServerRule@@SA_NK@Z 00450fa0 f i DlgServerManager.obj
 0001:0004ffc0       ?SetForfendGameChat@CServerRule@@SAXAAK_N@Z 00450fc0 f i DlgServerManager.obj
 0001:00050010       ?SetForfendRoomChat@CServerRule@@SAXAAK_N@Z 00451010 f i DlgServerManager.obj
 0001:00050060       ?SetForfendWisperChat@CServerRule@@SAXAAK_N@Z 00451060 f i DlgServerManager.obj
 0001:000500b0       ?SetForfendWisperOnGame@CServerRule@@SAXAAK_N@Z 004510b0 f i DlgServerManager.obj
 0001:00050100       ?SetAllowDynamicJoin@CServerRule@@SAXAAK_N@Z 00451100 f i DlgServerManager.obj
 0001:00050150       ?SetAllowOffLineTrustee@CServerRule@@SAXAAK_N@Z 00451150 f i DlgServerManager.obj
 0001:000501a0       ?SetAllowAvertCheatMode@CServerRule@@SAXAAK_N@Z 004511a0 f i DlgServerManager.obj
 0001:000501f0       ?SetRecordGameScore@CServerRule@@SAXAAK_N@Z 004511f0 f i DlgServerManager.obj
 0001:00050240       ?SetRecordGameTrack@CServerRule@@SAXAAK_N@Z 00451240 f i DlgServerManager.obj
 0001:00050290       ?SetDynamicCellScore@CServerRule@@SAXAAK_N@Z 00451290 f i DlgServerManager.obj
 0001:000502e0       ?SetImmediateWriteScore@CServerRule@@SAXAAK_N@Z 004512e0 f i DlgServerManager.obj
 0001:00050330       ?SetForfendRoomEnter@CServerRule@@SAXAAK_N@Z 00451330 f i DlgServerManager.obj
 0001:00050380       ?SetForfendGameEnter@CServerRule@@SAXAAK_N@Z 00451380 f i DlgServerManager.obj
 0001:000503d0       ?SetForfendGameLookon@CServerRule@@SAXAAK_N@Z 004513d0 f i DlgServerManager.obj
 0001:00050420       ?SetForfendSaveInRoom@CServerRule@@SAXAAK_N@Z 00451420 f i DlgServerManager.obj
 0001:00050470       ?SetForfendSaveInGame@CServerRule@@SAXAAK_N@Z 00451470 f i DlgServerManager.obj
 0001:000504c0       ?SetForfendGameRule@CServerRule@@SAXAAK_N@Z 004514c0 f i DlgServerManager.obj
 0001:00050510       ?SetForfendLockTable@CServerRule@@SAXAAK_N@Z 00451510 f i DlgServerManager.obj
 0001:00050560       ?SetAllowAndroidAttend@CServerRule@@SAXAAK_N@Z 00451560 f i DlgServerManager.obj
 0001:000505b0       ?GetMessageMap@CDlgServerPassWork@@MBEPBUAFX_MSGMAP@@XZ 004515b0 f   DlgServerPassWork.obj
 0001:000505d0       ?GetThisMessageMap@CDlgServerPassWork@@KGPBUAFX_MSGMAP@@XZ 004515d0 f   DlgServerPassWork.obj
 0001:000505f0       ??0CDlgServerPassWork@@QAE@PAVCWnd@@@Z 004515f0 f   DlgServerPassWork.obj
 0001:000506d0       ??_ECDlgServerPassWork@@UAEPAXI@Z 004516d0 f i DlgServerPassWork.obj
 0001:000506d0       ??_GCDlgServerPassWork@@UAEPAXI@Z 004516d0 f i DlgServerPassWork.obj
 0001:00050710       ??1CDlgServerPassWork@@UAE@XZ 00451710 f   DlgServerPassWork.obj
 0001:000507e0       ?OnInitDialog@CDlgServerPassWork@@MAEHXZ 004517e0 f   DlgServerPassWork.obj
 0001:00050a50       ?DoDataExchange@CDlgServerPassWork@@MAEXPAVCDataExchange@@@Z 00451a50 f   DlgServerPassWork.obj
 0001:00050ac0       ?OnEraseBkgnd@CDlgServerPassWork@@QAEHPAVCDC@@@Z 00451ac0 f   DlgServerPassWork.obj
 0001:00050c40       ?OnShowWindow@CDlgServerPassWork@@QAEXHI@Z 00451c40 f   DlgServerPassWork.obj
 0001:00050c90       ?OnLButtonDown@CDlgEnquire@@QAEXIVCPoint@@@Z 00451c90 f   DlgEnquire.obj
 0001:00050c90       ?OnLButtonDown@CDlgServerPassWork@@QAEXIVCPoint@@@Z 00451c90 f   DlgServerPassWork.obj
 0001:00050cf0       ?OnWindowPosChanged@CDlgServerPassWork@@QAEXPAUtagWINDOWPOS@@@Z 00451cf0 f   DlgServerPassWork.obj
 0001:00050d60       ?SetPassWork@CDlgServerPassWork@@QAEXV?$CStringT@_WV?$StrTraitMFC_DLL@_WV?$ChTraitsCRT@_W@ATL@@@@@ATL@@@Z 00451d60 f   DlgServerPassWork.obj
 0001:00050de0       ?OnBnClickedOk@CDlgServerPassWork@@QAEXXZ 00451de0 f   DlgServerPassWork.obj
 0001:00050ed0       ?OnBnClickedCancel@CDlgServerPassWork@@QAEXXZ 00451ed0 f   DlgServerPassWork.obj
 0001:00050ef0       ?SetActiveServiceItem@CDlgServiceBar@@QAE_NPAVCDlgServiceItem@@@Z 00451ef0 f   DlgService.obj
 0001:00051020       ?SwitchToButtonIndex@CDlgServiceBar@@AAEGVCPoint@@@Z 00452020 f   DlgService.obj
 0001:00051020       ?SwitchToButtonIndex@CCollocateBar@@AAEGVCPoint@@@Z 00452020 f   DlgCollocate.obj
 0001:00051150       ?OnPaint@CDlgServiceBar@@IAEXXZ 00452150 f   DlgService.obj
 0001:00051640       ?OnCreate@CDlgServiceBar@@IAEHPAUtagCREATESTRUCTW@@@Z 00452640 f   DlgService.obj
 0001:00051640       ?OnCreate@CCollocateBar@@IAEHPAUtagCREATESTRUCTW@@@Z 00452640 f   DlgCollocate.obj
 0001:000516b0       ?OnMouseMove@CCollocateBar@@IAEXIVCPoint@@@Z 004526b0 f   DlgCollocate.obj
 0001:000516b0       ?OnMouseMove@CDlgServiceBar@@IAEXIVCPoint@@@Z 004526b0 f   DlgService.obj
 0001:00051780       ?OnLButtonUp@CDlgServiceBar@@IAEXIVCPoint@@@Z 00452780 f   DlgService.obj
 0001:00051820       ?OnLButtonDown@CDlgServiceBar@@IAEXIVCPoint@@@Z 00452820 f   DlgService.obj
 0001:00051820       ?OnLButtonDown@CCollocateBar@@IAEXIVCPoint@@@Z 00452820 f   DlgCollocate.obj
 0001:00051820       ?OnLButtonDown@CWndLogonButton@@IAEXIVCPoint@@@Z 00452820 f   DlgLogon.obj
 0001:000518a0       ?OnSetCursor@CCollocateBar@@IAEHPAVCWnd@@II@Z 004528a0 f   DlgCollocate.obj
 0001:000518a0       ?OnSetCursor@CDlgServiceBar@@IAEHPAVCWnd@@II@Z 004528a0 f   DlgService.obj
 0001:000518a0       ?OnSetCursor@CWndLogonButton@@IAEHPAVCWnd@@II@Z 004528a0 f   DlgLogon.obj
 0001:00051900       ?GetThisMessageMap@CDlgServiceItem@@KGPBUAFX_MSGMAP@@XZ 00452900 f   DlgServiceItem.obj
 0001:00051920       ?CreateServiceItem@CDlgServiceItem@@QAEXPAVCWnd@@VCRect@@@Z 00452920 f   DlgServiceItem.obj
 0001:00051980       ?OnCtlColor@CDlgServiceItem@@IAEPAUHBRUSH__@@PAVCDC@@PAVCWnd@@I@Z 00452980 f   DlgServiceItem.obj
 0001:00051a10       ?OnSize@CDlgServiceBrowser@@IAEXIHH@Z 00452a10 f   DlgServiceItem.obj
 0001:00051a90       ?OnMissionStart@CDlgServicePassword@@IAEXXZ 00452a90 f   DlgServicePassword.obj
 0001:00051ad0       ?OnMissionConclude@CDlgServicePassword@@IAEXXZ 00452ad0 f   DlgServicePassword.obj
 0001:00051b80       ?OnEraseBkgnd@CDlgServicePassword@@IAEHPAVCDC@@@Z 00452b80 f   DlgServicePassword.obj
 0001:00051e40       ?OnEnChangeLogonPassword@CDlgServicePassword@@IAEXXZ 00452e40 f   DlgServicePassword.obj
 0001:00051ee0       ?OnEnChangeInserePassword@CDlgServicePassword@@IAEXXZ 00452ee0 f   DlgServicePassword.obj
 0001:00051f80       ?OnBnClickedLogonPassword@CDlgServicePassword@@IAEXXZ 00452f80 f   DlgServicePassword.obj
 0001:00052350       ?OnBnClickedInsurePassword@CDlgServicePassword@@IAEXXZ 00453350 f   DlgServicePassword.obj
 0001:00052660       ?GetFocus@CWnd@@SGPAV1@XZ  00453660 f i DlgServicePassword.obj
 0001:00052680       ?GetMessageMap@CDlgStatus@@MBEPBUAFX_MSGMAP@@XZ 00453680 f   DlgStatus.obj
 0001:000526a0       ?GetThisMessageMap@CDlgStatus@@KGPBUAFX_MSGMAP@@XZ 004536a0 f   DlgStatus.obj
 0001:000526c0       ??0CDlgStatus@@QAE@XZ      004536c0 f   DlgStatus.obj
 0001:00052770       ??_ECDlgStatus@@UAEPAXI@Z  00453770 f i DlgStatus.obj
 0001:00052770       ??_GCDlgStatus@@UAEPAXI@Z  00453770 f i DlgStatus.obj
 0001:000527b0       ??1CDlgStatus@@UAE@XZ      004537b0 f   DlgStatus.obj
 0001:00052840       ?DoDataExchange@CDlgStatus@@MAEXPAVCDataExchange@@@Z 00453840 f   DlgStatus.obj
 0001:00052880       ?PreTranslateMessage@CDlgDownLoad@@MAEHPAUtagMSG@@@Z 00453880 f   DlgDownLoad.obj
 0001:00052880       ?PreTranslateMessage@CDlgStatus@@MAEHPAUtagMSG@@@Z 00453880 f   DlgStatus.obj
 0001:000528d0       ?OnInitDialog@CDlgStatus@@MAEHXZ 004538d0 f   DlgStatus.obj
 0001:00052b30       ?HideStatusWindow@CDlgStatus@@QAEXXZ 00453b30 f   DlgStatus.obj
 0001:00052b60       ?ShowStatusWindow@CDlgStatus@@QAEXPB_W@Z 00453b60 f   DlgStatus.obj
 0001:00052c00       ?SetStatusViewSink@CDlgStatus@@QAEXPAUIStatusViewSink@@@Z 00453c00 f   DlgStatus.obj
 0001:00052c20       ?OnTimer@CDlgStatus@@IAEXI@Z 00453c20 f   DlgStatus.obj
 0001:00052c90       ?OnBnClickedGiveUp@CDlgStatus@@IAEXXZ 00453c90 f   DlgStatus.obj
 0001:00052cd0       ?OnEraseBkgnd@CDlgStatus@@IAEHPAVCDC@@@Z 00453cd0 f   DlgStatus.obj
 0001:000530b0       ?OnShowWindow@CDlgStatus@@IAEXHI@Z 004540b0 f   DlgStatus.obj
 0001:00053100       ?OnLButtonDown@CDlgStatus@@IAEXIVCPoint@@@Z 00454100 f   DlgStatus.obj
 0001:00053160       ?OnWindowPosChanged@CDlgStatus@@IAEXPAUtagWINDOWPOS@@@Z 00454160 f   DlgStatus.obj
 0001:000531d0       ?GetDesktopWindow@CWnd@@SGPAV1@XZ 004541d0 f i DlgStatus.obj
 0001:000531f0       ??0CFanDian@@QAE@XZ        004541f0 f   FanDian.obj
 0001:00053360       ??1CFanDian@@QAE@XZ        00454360 f   FanDian.obj
 0001:00053430       ?DrawView@CFanDian@@QAEXPAVCWnd@@PAVCDC@@HH@Z 00454430 f   FanDian.obj
 0001:00053560       ?EmptyData@CFanDian@@QAEXXZ 00454560 f   FanDian.obj
 0001:000535b0       ?GetRuntimeClass@CFenFenCai@@UBEPAUCRuntimeClass@@XZ 004545b0 f   FenFenCai.obj
 0001:000535d0       ??0CFenFenCai@@QAE@PAVCWnd@@@Z 004545d0 f   FenFenCai.obj
 0001:000548d0       ??_GCFenFenCai@@UAEPAXI@Z  004558d0 f i FenFenCai.obj
 0001:000548d0       ??_ECFenFenCai@@UAEPAXI@Z  004558d0 f i FenFenCai.obj
 0001:00054910       ??1CFenFenCai@@UAE@XZ      00455910 f   FenFenCai.obj
 0001:00055b90       ?ConnectMainDlg@CFenFenCai@@QAEXPAVCPlazaViewItem@@@Z 00456b90 f   FenFenCai.obj
 0001:00055b90       ?ConnectMainDlg@CWuFenCai@@QAEXPAVCPlazaViewItem@@@Z 00456b90 f   WuFenCai.obj
 0001:00055bc0       ?GetMessageMap@CFenFenCai@@MBEPBUAFX_MSGMAP@@XZ 00456bc0 f   FenFenCai.obj
 0001:00055be0       ?GetThisMessageMap@CFenFenCai@@KGPBUAFX_MSGMAP@@XZ 00456be0 f   FenFenCai.obj
 0001:00055c00       ?OnPaint@CFenFenCai@@IAEXXZ 00456c00 f   FenFenCai.obj
 0001:00055ea0       ?OnShowWindow@CFenFenCai@@IAEXHI@Z 00456ea0 f   FenFenCai.obj
 0001:00055fa0       ?OnTimer@CFenFenCai@@IAEXI@Z 00456fa0 f   FenFenCai.obj
 0001:000562f0       ?OnBnClickedBtnHszhx@CFenFenCai@@IAEXXZ 004572f0 f   FenFenCai.obj
 0001:00056360       ?OnBnClickedBtnHszx@CFenFenCai@@IAEXXZ 00457360 f   FenFenCai.obj
 0001:000563c0       ?OnBnClickedBtnWxhe@CFenFenCai@@IAEXXZ 004573c0 f   FenFenCai.obj
 0001:00056470       ?OnBnClickedBtnHezx@CFenFenCai@@IAEXXZ 00457470 f   FenFenCai.obj
 0001:000564f0       ?OnBnClickedBtnDxdsh@CFenFenCai@@IAEXXZ 004574f0 f   FenFenCai.obj
 0001:00056550       ?OnBnClickedBtnBdw@CFenFenCai@@IAEXXZ 00457550 f   FenFenCai.obj
 0001:000565d0       ?OnBnClickedBtnQszhx@CFenFenCai@@IAEXXZ 004575d0 f   FenFenCai.obj
 0001:00056650       ?OnBnClickedBtnQszx@CFenFenCai@@IAEXXZ 00457650 f   FenFenCai.obj
 0001:000566c0       ?OnBnClickedBtnWxqe@CFenFenCai@@IAEXXZ 004576c0 f   FenFenCai.obj
 0001:00056740       ?OnBnClickedBtnQezx@CFenFenCai@@IAEXXZ 00457740 f   FenFenCai.obj
 0001:000567c0       ?OnBnClickedBtnHszhxhzh@CFenFenCai@@IAEXXZ 004577c0 f   FenFenCai.obj
 0001:00056840       ?OnBnClickedBtnDwd@CFenFenCai@@IAEXXZ 00457840 f   FenFenCai.obj
 0001:000568a0       ?OnBnClickedBtnQw@CFenFenCai@@IAEXXZ 004578a0 f   FenFenCai.obj
 0001:00056920       ?OnBnClickedBtnWanDa@CJiangXiSSC@@IAEXXZ 00457920 f   JiangXiSSC.obj
 0001:00056920       ?OnBnClickedBtnWanDa@CWuFenCai@@IAEXXZ 00457920 f   WuFenCai.obj
 0001:00056920       ?OnBnClickedBtnWanDa@CFenFenCai@@IAEXXZ 00457920 f   FenFenCai.obj
 0001:000569e0       ?OnBnClickedBtnWanXiao@CWuFenCai@@IAEXXZ 004579e0 f   WuFenCai.obj
 0001:000569e0       ?OnBnClickedBtnWanXiao@CFenFenCai@@IAEXXZ 004579e0 f   FenFenCai.obj
 0001:000569e0       ?OnBnClickedBtnWanXiao@CJiangXiSSC@@IAEXXZ 004579e0 f   JiangXiSSC.obj
 0001:00056aa0       ?OnBnClickedBtnWanShuang@CJiangXiSSC@@IAEXXZ 00457aa0 f   JiangXiSSC.obj
 0001:00056aa0       ?OnBnClickedBtnWanShuang@CWuFenCai@@IAEXXZ 00457aa0 f   WuFenCai.obj
 0001:00056aa0       ?OnBnClickedBtnWanShuang@CFenFenCai@@IAEXXZ 00457aa0 f   FenFenCai.obj
 0001:00056b60       ?OnBnClickedBtnQianDa@CJiangXiSSC@@IAEXXZ 00457b60 f   JiangXiSSC.obj
 0001:00056b60       ?OnBnClickedBtnQianDa@CWuFenCai@@IAEXXZ 00457b60 f   WuFenCai.obj
 0001:00056b60       ?OnBnClickedBtnQianDa@CFenFenCai@@IAEXXZ 00457b60 f   FenFenCai.obj
 0001:00056c20       ?OnBnClickedBtnQianXiao@CJiangXiSSC@@IAEXXZ 00457c20 f   JiangXiSSC.obj
 0001:00056c20       ?OnBnClickedBtnQianXiao@CWuFenCai@@IAEXXZ 00457c20 f   WuFenCai.obj
 0001:00056c20       ?OnBnClickedBtnQianXiao@CFenFenCai@@IAEXXZ 00457c20 f   FenFenCai.obj
 0001:00056ce0       ?OnBnClickedBtnQianShuang@CWuFenCai@@IAEXXZ 00457ce0 f   WuFenCai.obj
 0001:00056ce0       ?OnBnClickedBtnQianShuang@CJiangXiSSC@@IAEXXZ 00457ce0 f   JiangXiSSC.obj
 0001:00056ce0       ?OnBnClickedBtnQianShuang@CFenFenCai@@IAEXXZ 00457ce0 f   FenFenCai.obj
 0001:00056da0       ?OnBnClickedBtnQianQing@CJiangXiSSC@@IAEXXZ 00457da0 f   JiangXiSSC.obj
 0001:00056da0       ?OnBnClickedBtnQianQing@CFenFenCai@@IAEXXZ 00457da0 f   FenFenCai.obj
 0001:00056da0       ?OnBnClickedBtnQianQing@CWuFenCai@@IAEXXZ 00457da0 f   WuFenCai.obj
 0001:00056e60       ?OnBnClickedBtnBaiQuan@CWuFenCai@@IAEXXZ 00457e60 f   WuFenCai.obj
 0001:00056e60       ?OnBnClickedBtnBaiQuan@CJiangXiSSC@@IAEXXZ 00457e60 f   JiangXiSSC.obj
 0001:00056e60       ?OnBnClickedBtnBaiQuan@CFenFenCai@@IAEXXZ 00457e60 f   FenFenCai.obj
 0001:00056f20       ?OnBnClickedBtnBaiDa@CFenFenCai@@IAEXXZ 00457f20 f   FenFenCai.obj
 0001:00056f20       ?OnBnClickedBtnBaiDa@CJiangXiSSC@@IAEXXZ 00457f20 f   JiangXiSSC.obj
 0001:00056f20       ?OnBnClickedBtnBaiDa@CWuFenCai@@IAEXXZ 00457f20 f   WuFenCai.obj
 0001:00056fe0       ?OnBnClickedBtnBaiXiao@CWuFenCai@@IAEXXZ 00457fe0 f   WuFenCai.obj
 0001:00056fe0       ?OnBnClickedBtnBaiXiao@CJiangXiSSC@@IAEXXZ 00457fe0 f   JiangXiSSC.obj
 0001:00056fe0       ?OnBnClickedBtnBaiXiao@CFenFenCai@@IAEXXZ 00457fe0 f   FenFenCai.obj
 0001:000570a0       ?OnBnClickedBtnBaiQing@CFenFenCai@@IAEXXZ 004580a0 f   FenFenCai.obj
 0001:000570a0       ?OnBnClickedBtnBaiQing@CJiangXiSSC@@IAEXXZ 004580a0 f   JiangXiSSC.obj
 0001:000570a0       ?OnBnClickedBtnBaiQing@CWuFenCai@@IAEXXZ 004580a0 f   WuFenCai.obj
 0001:00057160       ?OnBnClickedBtnShiDa@CFenFenCai@@IAEXXZ 00458160 f   FenFenCai.obj
 0001:00057160       ?OnBnClickedBtnShiDa@CJiangXiSSC@@IAEXXZ 00458160 f   JiangXiSSC.obj
 0001:00057160       ?OnBnClickedBtnShiDa@CWuFenCai@@IAEXXZ 00458160 f   WuFenCai.obj
 0001:00057220       ?OnBnClickedBtnShiXiao@CJiangXiSSC@@IAEXXZ 00458220 f   JiangXiSSC.obj
 0001:00057220       ?OnBnClickedBtnShiXiao@CWuFenCai@@IAEXXZ 00458220 f   WuFenCai.obj
 0001:00057220       ?OnBnClickedBtnShiXiao@CFenFenCai@@IAEXXZ 00458220 f   FenFenCai.obj
 0001:000572e0       ?OnBnClickedBtnShiDan@CFenFenCai@@IAEXXZ 004582e0 f   FenFenCai.obj
 0001:000572e0       ?OnBnClickedBtnShiDan@CJiangXiSSC@@IAEXXZ 004582e0 f   JiangXiSSC.obj
 0001:000572e0       ?OnBnClickedBtnShiDan@CWuFenCai@@IAEXXZ 004582e0 f   WuFenCai.obj
 0001:000573a0       ?OnBnClickedBtnGeQuan@CFenFenCai@@IAEXXZ 004583a0 f   FenFenCai.obj
 0001:000573a0       ?OnBnClickedBtnGeQuan@CWuFenCai@@IAEXXZ 004583a0 f   WuFenCai.obj
 0001:000573a0       ?OnBnClickedBtnGeQuan@CJiangXiSSC@@IAEXXZ 004583a0 f   JiangXiSSC.obj
 0001:00057460       ?OnBnClickedBtnGeDa@CFenFenCai@@IAEXXZ 00458460 f   FenFenCai.obj
 0001:00057460       ?OnBnClickedBtnGeDa@CJiangXiSSC@@IAEXXZ 00458460 f   JiangXiSSC.obj
 0001:00057460       ?OnBnClickedBtnGeDa@CWuFenCai@@IAEXXZ 00458460 f   WuFenCai.obj
 0001:00057520       ?OnBnClickedBtnGeXiao@CJiangXiSSC@@IAEXXZ 00458520 f   JiangXiSSC.obj
 0001:00057520       ?OnBnClickedBtnGeXiao@CFenFenCai@@IAEXXZ 00458520 f   FenFenCai.obj
 0001:00057520       ?OnBnClickedBtnGeXiao@CWuFenCai@@IAEXXZ 00458520 f   WuFenCai.obj
 0001:000575e0       ?OnBnClickedBtnChqAdd@CFenFenCai@@IAEXXZ 004585e0 f   FenFenCai.obj
 0001:00063340       ?InitListCtrl@CFenFenCai@@AAEXXZ 00464340 f   FenFenCai.obj
 0001:00063340       ?InitListCtrl@CWuFenCai@@AAEXXZ 00464340 f   WuFenCai.obj
 0001:000633f0       ?OnBnClickedRioHszhxFushi@CFenFenCai@@IAEXXZ 004643f0 f   FenFenCai.obj
 0001:000634d0       ?OnBnClickedRioYffs@CFenFenCai@@IAEXXZ 004644d0 f   FenFenCai.obj
 0001:000635a0       ?OnBnClickedRioHscs@CFenFenCai@@IAEXXZ 004645a0 f   FenFenCai.obj
 0001:00063670       ?OnBnClickedRioSxbx@CFenFenCai@@IAEXXZ 00464670 f   FenFenCai.obj
 0001:00063740       ?OnBnClickedRioSjfc@CFenFenCai@@IAEXXZ 00464740 f   FenFenCai.obj
 0001:00063810       ?OnBnClickedRioQsHezhi@CFenFenCai@@IAEXXZ 00464810 f   FenFenCai.obj
 0001:000638c0       ?OnBnClickedRioHsHezhi@CFenFenCai@@IAEXXZ 004648c0 f   FenFenCai.obj
 0001:00063970       ?OnBnClickedRioWuXingZhx@CFenFenCai@@IAEXXZ 00464970 f   FenFenCai.obj
 0001:00063a90       ?OnBnClickedRioWuXingQs@CFenFenCai@@IAEXXZ 00464a90 f   FenFenCai.obj
 0001:00063b60       ?OnBnClickedRioWuXingHS@CFenFenCai@@IAEXXZ 00464b60 f   FenFenCai.obj
 0001:00063c30       ?OnBnClickedRioWuXingZS@CFenFenCai@@IAEXXZ 00464c30 f   FenFenCai.obj
 0001:00063d10       ?OnBnClickedRioHszhxDanshi@CFenFenCai@@IAEXXZ 00464d10 f   FenFenCai.obj
 0001:00063e10       ?OnBnClickedRioQszhxFushi@CFenFenCai@@IAEXXZ 00464e10 f   FenFenCai.obj
 0001:00063ef0       ?OnBnClickedRioQszhxDanshi@CFenFenCai@@IAEXXZ 00464ef0 f   FenFenCai.obj
 0001:00063ff0       ?OnBnClickedRioRenXuan2@CFenFenCai@@IAEXXZ 00464ff0 f   FenFenCai.obj
 0001:000640e0       ?OnBnClickedRioRenXuan3@CFenFenCai@@IAEXXZ 004650e0 f   FenFenCai.obj
 0001:000641d0       ?OnBnClickedRioRenXuan4@CFenFenCai@@IAEXXZ 004651d0 f   FenFenCai.obj
 0001:000642c0       ?OnBnClickedRioHszsFushi@CFenFenCai@@IAEXXZ 004652c0 f   FenFenCai.obj
 0001:000643d0       ?OnBnClickedRioHszsDanshi@CFenFenCai@@IAEXXZ 004653d0 f   FenFenCai.obj
 0001:00064470       ?OnBnClickedRioHszlFushi@CFenFenCai@@IAEXXZ 00465470 f   FenFenCai.obj
 0001:00064580       ?OnBnClickedRioZszlFushi@CFenFenCai@@IAEXXZ 00465580 f   FenFenCai.obj
 0001:00064690       ?OnBnClickedRioZszsFushi@CFenFenCai@@IAEXXZ 00465690 f   FenFenCai.obj
 0001:000647a0       ?OnBnClickedRioZuXuan120@CFenFenCai@@IAEXXZ 004657a0 f   FenFenCai.obj
 0001:000648c0       ?OnBnClickedRioZuXuan60@CFenFenCai@@IAEXXZ 004658c0 f   FenFenCai.obj
 0001:000649f0       ?OnBnClickedRioZuXuan30@CFenFenCai@@IAEXXZ 004659f0 f   FenFenCai.obj
 0001:00064b20       ?OnBnClickedRioZuXuan20@CFenFenCai@@IAEXXZ 00465b20 f   FenFenCai.obj
 0001:00064c50       ?OnBnClickedRioZuXuan10@CFenFenCai@@IAEXXZ 00465c50 f   FenFenCai.obj
 0001:00064d80       ?OnBnClickedRioZuXuan5@CFenFenCai@@IAEXXZ 00465d80 f   FenFenCai.obj
 0001:00064eb0       ?OnBnClickedRioHszlDanshi@CFenFenCai@@IAEXXZ 00465eb0 f   FenFenCai.obj
 0001:00064f50       ?OnBnClickedRioQszsFushi@CFenFenCai@@IAEXXZ 00465f50 f   FenFenCai.obj
 0001:00065060       ?OnBnClickedRioQszsDanshi@CFenFenCai@@IAEXXZ 00466060 f   FenFenCai.obj
 0001:00065100       ?OnBnClickedRioQszlFushi@CFenFenCai@@IAEXXZ 00466100 f   FenFenCai.obj
 0001:00065210       ?OnBnClickedRioQszlDanshi@CFenFenCai@@IAEXXZ 00466210 f   FenFenCai.obj
 0001:000652b0       ?OnBnClickedRioHezhxFushi@CFenFenCai@@IAEXXZ 004662b0 f   FenFenCai.obj
 0001:00065370       ?OnBnClickedRioHezhxDanshi@CFenFenCai@@IAEXXZ 00466370 f   FenFenCai.obj
 0001:00065430       ?OnBnClickedRioHezxFushi@CFenFenCai@@IAEXXZ 00466430 f   FenFenCai.obj
 0001:00065500       ?OnBnClickedRioHezxDanshi@CFenFenCai@@IAEXXZ 00466500 f   FenFenCai.obj
 0001:000655c0       ?OnBnClickedRioQezhxFushi@CFenFenCai@@IAEXXZ 004665c0 f   FenFenCai.obj
 0001:00065680       ?OnBnClickedRioQezhxDanshi@CFenFenCai@@IAEXXZ 00466680 f   FenFenCai.obj
 0001:00065740       ?OnBnClickedRioQezxFushi@CFenFenCai@@IAEXXZ 00466740 f   FenFenCai.obj
 0001:00065810       ?OnBnClickedRioQezxDanshi@CFenFenCai@@IAEXXZ 00466810 f   FenFenCai.obj
 0001:000658d0       ?OnBnClickedRioDxdsh@CFenFenCai@@IAEXXZ 004668d0 f   FenFenCai.obj
 0001:00065960       ?OnBnClickedRioQsbdw@CFenFenCai@@IAEXXZ 00466960 f   FenFenCai.obj
 0001:00065a30       ?OnBnClickedRioHsbdw@CFenFenCai@@IAEXXZ 00466a30 f   FenFenCai.obj
 0001:00065b00       ?OnBnClickedRioQsHunhe@CFenFenCai@@IAEXXZ 00466b00 f   FenFenCai.obj
 0001:00065bc0       ?OnBnClickedRioZsHunhe@CFenFenCai@@IAEXXZ 00466bc0 f   FenFenCai.obj
 0001:00065c80       ?OnBnClickedRioHsHunhe@CFenFenCai@@IAEXXZ 00466c80 f   FenFenCai.obj
 0001:00065d40       ?OnBnClickedRioDwd@CFenFenCai@@IAEXXZ 00466d40 f   FenFenCai.obj
 0001:00065dd0       ?OnBnClickedRioHebdw@CFenFenCai@@IAEXXZ 00466dd0 f   FenFenCai.obj
 0001:00065ea0       ?OnBnClickedRioQebdw@CFenFenCai@@IAEXXZ 00466ea0 f   FenFenCai.obj
 0001:00065f70       ?OnBnClickedBtnZhuihao@CFenFenCai@@IAEXXZ 00466f70 f   FenFenCai.obj
 0001:00066350       ?CheckInput@CFenFenCai@@QAE_NXZ 00467350 f   FenFenCai.obj
 0001:00066c80       ?OnBnClickedBtnTouzhu@CFenFenCai@@IAEXXZ 00467c80 f   FenFenCai.obj
 0001:00066e40       ?OnBnClickedBtnDelSel@CFenFenCai@@IAEXXZ 00467e40 f   FenFenCai.obj
 0001:00066f60       ?OnBnClickedBtnClsList@CFenFenCai@@QAEXXZ 00467f60 f   FenFenCai.obj
 0001:00067010       ?OnEnChangeEditDanshiInput@CWuFenCai@@QAEXXZ 00468010 f   WuFenCai.obj
 0001:00067010       ?OnEnChangeEditDanshiInput@CFenFenCai@@IAEXXZ 00468010 f   FenFenCai.obj
 0001:00067040       ?OnEnChangeEditBeishu@CFenFenCai@@IAEXXZ 00468040 f   FenFenCai.obj
 0001:000671f0       ?HideAllRio@CWuFenCai@@AAEXXZ 004681f0 f   WuFenCai.obj
 0001:000671f0       ?HideAllRio@CFenFenCai@@AAEXXZ 004681f0 f   FenFenCai.obj
 0001:00067530       ?GetShiString@CWuFenCai@@AAE?AV?$CStringT@_WV?$StrTraitMFC_DLL@_WV?$ChTraitsCRT@_W@ATL@@@@@ATL@@XZ 00468530 f   WuFenCai.obj
 0001:00067530       ?GetShiString@CJiangXiSSC@@AAE?AV?$CStringT@_WV?$StrTraitMFC_DLL@_WV?$ChTraitsCRT@_W@ATL@@@@@ATL@@XZ 00468530 f   JiangXiSSC.obj
 0001:00067530       ?GetShiString@CFenFenCai@@AAE?AV?$CStringT@_WV?$StrTraitMFC_DLL@_WV?$ChTraitsCRT@_W@ATL@@@@@ATL@@XZ 00468530 f   FenFenCai.obj
 0001:00067730       ?GetShiDxdshString@CFenFenCai@@AAE?AV?$CStringT@_WV?$StrTraitMFC_DLL@_WV?$ChTraitsCRT@_W@ATL@@@@@ATL@@XZ 00468730 f   FenFenCai.obj
 0001:00067730       ?GetShiDxdshString@CWuFenCai@@AAE?AV?$CStringT@_WV?$StrTraitMFC_DLL@_WV?$ChTraitsCRT@_W@ATL@@@@@ATL@@XZ 00468730 f   WuFenCai.obj
 0001:00067850       ?GetGeDxdshString@CWuFenCai@@AAE?AV?$CStringT@_WV?$StrTraitMFC_DLL@_WV?$ChTraitsCRT@_W@ATL@@@@@ATL@@XZ 00468850 f   WuFenCai.obj
 0001:00067850       ?GetGeDxdshString@CFenFenCai@@AAE?AV?$CStringT@_WV?$StrTraitMFC_DLL@_WV?$ChTraitsCRT@_W@ATL@@@@@ATL@@XZ 00468850 f   FenFenCai.obj
 0001:00067970       ?GetWanDesc@CFenFenCai@@AAE?AV?$CStringT@_WV?$StrTraitMFC_DLL@_WV?$ChTraitsCRT@_W@ATL@@@@@ATL@@XZ 00468970 f   FenFenCai.obj
 0001:000679c0       ?HideHeZhiNums@CWuFenCai@@AAEXXZ 004689c0 f   WuFenCai.obj
 0001:000679c0       ?HideHeZhiNums@CFenFenCai@@AAEXXZ 004689c0 f   FenFenCai.obj
 0001:000679c0       ?HideHeZhiNums@CJiangXiSSC@@AAEXXZ 004689c0 f   JiangXiSSC.obj
 0001:00067ba0       ?ShowHeZhiNums@CWuFenCai@@AAEXXZ 00468ba0 f   WuFenCai.obj
 0001:00067ba0       ?ShowHeZhiNums@CJiangXiSSC@@AAEXXZ 00468ba0 f   JiangXiSSC.obj
 0001:00067ba0       ?ShowHeZhiNums@CFenFenCai@@AAEXXZ 00468ba0 f   FenFenCai.obj
 0001:00067d80       ?HideWanNums@CFenFenCai@@AAEXXZ 00468d80 f   FenFenCai.obj
 0001:00067d80       ?HideWanNums@CWuFenCai@@AAEXXZ 00468d80 f   WuFenCai.obj
 0001:00067eb0       ?HideQianNums@CFenFenCai@@AAEXXZ 00468eb0 f   FenFenCai.obj
 0001:00067eb0       ?HideQianNums@CWuFenCai@@AAEXXZ 00468eb0 f   WuFenCai.obj
 0001:00067fe0       ?HideGeNums@CWuFenCai@@AAEXXZ 00468fe0 f   WuFenCai.obj
 0001:00067fe0       ?HideGeNums@CFenFenCai@@AAEXXZ 00468fe0 f   FenFenCai.obj
 0001:00068110       ?ShowWanNums@CFenFenCai@@AAEXXZ 00469110 f   FenFenCai.obj
 0001:00068110       ?ShowWanNums@CWuFenCai@@AAEXXZ 00469110 f   WuFenCai.obj
 0001:00068240       ?ShowBaiNums@CWuFenCai@@AAEXXZ 00469240 f   WuFenCai.obj
 0001:00068240       ?ShowBaiNums@CFenFenCai@@AAEXXZ 00469240 f   FenFenCai.obj
 0001:000683f0       ?ShowXuanHao@CWuFenCai@@AAEXXZ 004693f0 f   WuFenCai.obj
 0001:000683f0       ?ShowXuanHao@CFenFenCai@@AAEXXZ 004693f0 f   FenFenCai.obj
 0001:00068490       ?ShowZu120@CWuFenCai@@AAEXXZ 00469490 f   WuFenCai.obj
 0001:00068490       ?ShowZu120@CFenFenCai@@AAEXXZ 00469490 f   FenFenCai.obj
 0001:00068530       ?ShowBuDingWei@CWuFenCai@@AAEXXZ 00469530 f   WuFenCai.obj
 0001:00068530       ?ShowBuDingWei@CFenFenCai@@AAEXXZ 00469530 f   FenFenCai.obj
 0001:000685d0       ?ShowSiChong@CFenFenCai@@AAEXXZ 004695d0 f   FenFenCai.obj
 0001:000685d0       ?ShowSiChong@CWuFenCai@@AAEXXZ 004695d0 f   WuFenCai.obj
 0001:00068670       ?ShowDaXiaoDanShuang@CFenFenCai@@AAEXXZ 00469670 f   FenFenCai.obj
 0001:00068670       ?ShowDaXiaoDanShuang@CWuFenCai@@AAEXXZ 00469670 f   WuFenCai.obj
 0001:00068730       ?HideDaXiaoDanShuang@CFenFenCai@@AAEXXZ 00469730 f   FenFenCai.obj
 0001:00068730       ?HideDaXiaoDanShuang@CWuFenCai@@AAEXXZ 00469730 f   WuFenCai.obj
 0001:000687d0       ?ShowDanShiEdit@CFenFenCai@@AAEXXZ 004697d0 f   FenFenCai.obj
 0001:000687d0       ?ShowDanShiEdit@CWuFenCai@@AAEXXZ 004697d0 f   WuFenCai.obj
 0001:00068800       ?HideRenxuanWeiShu@CFenFenCai@@AAEXXZ 00469800 f   FenFenCai.obj
 0001:00068800       ?HideRenxuanWeiShu@CWuFenCai@@AAEXXZ 00469800 f   WuFenCai.obj
 0001:00068800       ?HideRenxuanWeiShu@CJiangXiSSC@@AAEXXZ 00469800 f   JiangXiSSC.obj
 0001:000688e0       ?SendToServer@CFenFenCai@@AAEXH@Z 004698e0 f   FenFenCai.obj
 0001:00068a00       ?SendQueryLuckyNumCQSSC@CFenFenCai@@AAEXXZ 00469a00 f   FenFenCai.obj
 0001:00068a00       ?SendQueryLuckyNumCQSSC@CWuFenCai@@AAEXXZ 00469a00 f   WuFenCai.obj
 0001:00068b00       ?GetKjShjDiff@CFenFenCai@@AAEJXZ 00469b00 f   FenFenCai.obj
 0001:00068b70       ?DrawLastKjHaoma@CFenFenCai@@AAEXPAVCDC@@AAVGraphics@Gdiplus@@@Z 00469b70 f   FenFenCai.obj
 0001:00069320       ?DrawTopKjHaoma@CFenFenCai@@AAEXPAVCDC@@AAVGraphics@Gdiplus@@@Z 0046a320 f   FenFenCai.obj
 0001:00069640       ?DrawSmallNum@CWuFenCai@@AAEXAAVGraphics@Gdiplus@@PAVBitmap@3@AAVRect@3@H@Z 0046a640 f   WuFenCai.obj
 0001:00069640       ?DrawSmallNum@CJiangXiSSC@@AAEXAAVGraphics@Gdiplus@@PAVBitmap@3@AAVRect@3@H@Z 0046a640 f   JiangXiSSC.obj
 0001:00069640       ?DrawSmallNum@CFenFenCai@@AAEXAAVGraphics@Gdiplus@@PAVBitmap@3@AAVRect@3@H@Z 0046a640 f   FenFenCai.obj
 0001:000696a0       ?DrawZongZhushuJinE@CFenFenCai@@AAEXPAVCDC@@@Z 0046a6a0 f   FenFenCai.obj
 0001:00069880       ?GetZuSanHaoma@CWuFenCai@@AAE_NAAVCStringArray@@@Z 0046a880 f   WuFenCai.obj
 0001:00069880       ?GetZuSanHaoma@CFenFenCai@@AAE_NAAVCStringArray@@@Z 0046a880 f   FenFenCai.obj
 0001:00069a20       ?GetZuSanHaoma@CFenFenCai@@AAE_NAAV?$CStringT@_WV?$StrTraitMFC_DLL@_WV?$ChTraitsCRT@_W@ATL@@@@@ATL@@AAH@Z 0046aa20 f   FenFenCai.obj
 0001:00069a20       ?GetZuSanHaoma@CWuFenCai@@AAE_NAAV?$CStringT@_WV?$StrTraitMFC_DLL@_WV?$ChTraitsCRT@_W@ATL@@@@@ATL@@AAH@Z 0046aa20 f   WuFenCai.obj
 0001:00069b20       ?GetHaomaStrs@CWuFenCai@@AAE_NAAVCStringArray@@V?$CStringT@_WV?$StrTraitMFC_DLL@_WV?$ChTraitsCRT@_W@ATL@@@@@ATL@@H@Z 0046ab20 f   WuFenCai.obj
 0001:00069b20       ?GetHaomaStrs@CFenFenCai@@AAE_NAAVCStringArray@@V?$CStringT@_WV?$StrTraitMFC_DLL@_WV?$ChTraitsCRT@_W@ATL@@@@@ATL@@H@Z 0046ab20 f   FenFenCai.obj
 0001:00069f00       ?InitWanFaMoShi@CFenFenCai@@AAEXXZ 0046af00 f   FenFenCai.obj
 0001:0006a490       ?OnEventMissionLink@CFenFenCai@@UAE_NHH@Z 0046b490 f   FenFenCai.obj
 0001:0006bba0       ?OnEventMissionShut@CFenFenCai@@UAE_NE@Z 0046cba0 f   FenFenCai.obj
 0001:0006bba0       ?OnEventMissionShut@CWuFenCai@@UAE_NE@Z 0046cba0 f   WuFenCai.obj
 0001:0006bd40       ?OnEventMissionRead@CFenFenCai@@UAE_NUTCP_Command@@PAXG@Z 0046cd40 f   FenFenCai.obj
 0001:0006c740       ?GetGameHoverIndex@CWuFenCai@@IAEGVCPoint@@@Z 0046d740 f   WuFenCai.obj
 0001:0006c740       ?GetGameHoverIndex@CFenFenCai@@IAEGVCPoint@@@Z 0046d740 f   FenFenCai.obj
 0001:0006c740       ?GetGameHoverIndex@CChongQingSSC@@IAEGVCPoint@@@Z 0046d740 f   ChongQingSSC.obj
 0001:0006c7e0       ?OnMouseMove@CWuFenCai@@IAEXIVCPoint@@@Z 0046d7e0 f   WuFenCai.obj
 0001:0006c7e0       ?OnMouseMove@CFenFenCai@@IAEXIVCPoint@@@Z 0046d7e0 f   FenFenCai.obj
 0001:0006c860       ?OnLButtonUp@CFenFenCai@@IAEXIVCPoint@@@Z 0046d860 f   FenFenCai.obj
 0001:0006c860       ?OnLButtonUp@CWuFenCai@@IAEXIVCPoint@@@Z 0046d860 f   WuFenCai.obj
 0001:0006c860       ?OnLButtonUp@CChongQingSSC@@IAEXIVCPoint@@@Z 0046d860 f   ChongQingSSC.obj
 0001:0006c900       ?OnBnClickedRioMouseInput@CFenFenCai@@AAEXXZ 0046d900 f   FenFenCai.obj
 0001:0006cb80       ?OnBnClickedRioKeyboardInput@CFenFenCai@@AAEXXZ 0046db80 f   FenFenCai.obj
 0001:0006cc50       ?SetCheckRenXuan@CWuFenCai@@AAEX_N@Z 0046dc50 f   WuFenCai.obj
 0001:0006cc50       ?SetCheckRenXuan@CJiangXiSSC@@AAEX_N@Z 0046dc50 f   JiangXiSSC.obj
 0001:0006cc50       ?SetCheckRenXuan@CFenFenCai@@AAEX_N@Z 0046dc50 f   FenFenCai.obj
 0001:0006cd20       ?OnBnClickedBtnLock@CFenFenCai@@AAEXXZ 0046dd20 f   FenFenCai.obj
 0001:0006ced0       ?GetKeyBoardHaoma@CWuFenCai@@AAE_NAAV?$CStringT@_WV?$StrTraitMFC_DLL@_WV?$ChTraitsCRT@_W@ATL@@@@@ATL@@HH@Z 0046ded0 f   WuFenCai.obj
 0001:0006ced0       ?GetKeyBoardHaoma@CFenFenCai@@AAE_NAAV?$CStringT@_WV?$StrTraitMFC_DLL@_WV?$ChTraitsCRT@_W@ATL@@@@@ATL@@HH@Z 0046ded0 f   FenFenCai.obj
 0001:0006d200       ?GetKeyHaomaStrs@CWuFenCai@@AAE_NAAVCStringArray@@V?$CStringT@_WV?$StrTraitMFC_DLL@_WV?$ChTraitsCRT@_W@ATL@@@@@ATL@@HH@Z 0046e200 f   WuFenCai.obj
 0001:0006d200       ?GetKeyHaomaStrs@CFenFenCai@@AAE_NAAVCStringArray@@V?$CStringT@_WV?$StrTraitMFC_DLL@_WV?$ChTraitsCRT@_W@ATL@@@@@ATL@@HH@Z 0046e200 f   FenFenCai.obj
 0001:0006e340       ??_ECFenFenCai@@WHE@AEPAXI@Z 0046f340 f i FenFenCai.obj
 0001:0006e350       ?GetMessageMap@CGamePlazaApp@@MBEPBUAFX_MSGMAP@@XZ 0046f350 f   GamePlaza.obj
 0001:0006e370       ?GetThisMessageMap@CGamePlazaApp@@KGPBUAFX_MSGMAP@@XZ 0046f370 f   GamePlaza.obj
 0001:0006e390       ??0CGamePlazaApp@@QAE@XZ   0046f390 f   GamePlaza.obj
 0001:0006e4d0       ??_ECGamePlazaApp@@UAEPAXI@Z 0046f4d0 f i GamePlaza.obj
 0001:0006e4d0       ??_GCGamePlazaApp@@UAEPAXI@Z 0046f4d0 f i GamePlaza.obj
 0001:0006e510       ??1CGamePlazaApp@@UAE@XZ   0046f510 f i GamePlaza.obj
 0001:0006e620       ?InitInstance@CGamePlazaApp@@UAEHXZ 0046f620 f   GamePlaza.obj
 0001:0006eb00       ??0CCustomOccManager@@QAE@XZ 0046fb00 f i GamePlaza.obj
 0001:0006eb30       ?CreateSite@CCustomOccManager@@UAEPAVCOleControlSite@@PAVCOleControlContainer@@@Z 0046fb30 f i GamePlaza.obj
 0001:0006ebc0       ??0CCustomControlSite@@QAE@PAVCOleControlContainer@@@Z 0046fbc0 f i GamePlaza.obj
 0001:0006ec00       ??_GCCustomControlSite@@UAEPAXI@Z 0046fc00 f i GamePlaza.obj
 0001:0006ec00       ??_ECCustomControlSite@@UAEPAXI@Z 0046fc00 f i GamePlaza.obj
 0001:0006ec40       ??0XDocHostUIHandler@CCustomControlSite@@QAE@XZ 0046fc40 f i GamePlaza.obj
 0001:0006ec70       ??1CCustomControlSite@@UAE@XZ 0046fc70 f i GamePlaza.obj
 0001:0006ec90       ??_ECCustomOccManager@@UAEPAXI@Z 0046fc90 f i GamePlaza.obj
 0001:0006ec90       ??_GCCustomOccManager@@UAEPAXI@Z 0046fc90 f i GamePlaza.obj
 0001:0006ecd0       ??0COccManager@@QAE@XZ     0046fcd0 f i GamePlaza.obj
 0001:0006ed00       ??1CCustomOccManager@@UAE@XZ 0046fd00 f i GamePlaza.obj
 0001:0006ed20       ??_GCOccManager@@UAEPAXI@Z 0046fd20 f i GamePlaza.obj
 0001:0006ed20       ??_ECOccManager@@UAEPAXI@Z 0046fd20 f i GamePlaza.obj
 0001:0006ed60       ?GetTime@CGamePlazaApp@@QAEXAAVCTime@ATL@@@Z 0046fd60 f   GamePlaza.obj
 0001:0006eda0       ?InitCaiZhong@CGamePlazaApp@@QAEXXZ 0046fda0 f   GamePlaza.obj
 0001:0006eeb0       ?ExitInstance@CGamePlazaApp@@UAEHXZ 0046feb0 f   GamePlaza.obj
 0001:0006efc0       ??_GCImpIDispatch@@QAEPAXI@Z 0046ffc0 f i GamePlaza.obj
 0001:0006f000       ?CreateInstance@?$CTempldateHelper@UIProcessControl@@@@QAE_NXZ 00470000 f i ProcessManager.obj
 0001:0006f000       ?CreateInstance@?$CTempldateHelper@UITCPSocket@@@@QAE_NXZ 00470000 f i ServerViewItem.obj
 0001:0006f000       ?CreateInstance@?$CTempldateHelper@UIPlazaUserManager@@@@QAE_NXZ 00470000 f i ServerViewItem.obj
 0001:0006f000       ?CreateInstance@?$CTempldateHelper@UIFaceItemControl@@@@QAE_NXZ 00470000 f i GamePlaza.obj
 0001:0006f000       ?CreateInstance@?$CTempldateHelper@UIUserOrderParser@@@@QAE_NXZ 00470000 f i GamePlaza.obj
 0001:0006f000       ?CreateInstance@?$CTempldateHelper@UIWHNetwork@@@@QAE_NXZ 00470000 f i DlgCollocate.obj
 0001:0006f000       ?CreateInstance@?$CTempldateHelper@UIGameLevelParser@@@@QAE_NXZ 00470000 f i ServerViewItem.obj
 0001:0006f1d0       ?IsIconic@CWnd@@QBEHXZ     004701d0 f i GamePlaza.obj
 0001:0006f1f0       ?BringWindowToTop@CWnd@@QAEXXZ 004701f0 f i GamePlaza.obj
 0001:0006f210       ?SetActiveWindow@CWnd@@QAEPAV1@XZ 00470210 f i GamePlaza.obj
 0001:0006f240       ?FindWindowW@CWnd@@SGPAV1@PB_W0@Z 00470240 f i GamePlaza.obj
 0001:0006f270       ?LoadStandardCursor@CWinApp@@QBEPAUHICON__@@PB_W@Z 00470270 f i GamePlaza.obj
 0001:0006f2a0       ?LoadIconW@CWinApp@@QBEPAUHICON__@@I@Z 004702a0 f i GamePlaza.obj
 0001:0006f2d0       ??0CUserOrderParserHelper@@QAE@XZ 004702d0 f i GamePlaza.obj
 0001:0006f310       ??_ECUserOrderParserHelper@@UAEPAXI@Z 00470310 f i GamePlaza.obj
 0001:0006f310       ??_GCUserOrderParserHelper@@UAEPAXI@Z 00470310 f i GamePlaza.obj
 0001:0006f350       ??1CUserOrderParserHelper@@UAE@XZ 00470350 f i GamePlaza.obj
 0001:0006f370       ??0CFaceItemControlHelper@@QAE@XZ 00470370 f i GamePlaza.obj
 0001:0006f3b0       ??_ECFaceItemControlHelper@@UAEPAXI@Z 004703b0 f i GamePlaza.obj
 0001:0006f3b0       ??_GCFaceItemControlHelper@@UAEPAXI@Z 004703b0 f i GamePlaza.obj
 0001:0006f3f0       ??1CFaceItemControlHelper@@UAE@XZ 004703f0 f i GamePlaza.obj
 0001:0006f410       ??0?$CTempldateHelper@UIUserOrderParser@@@@QAE@ABU_GUID@@KPB_WPBD@Z 00470410 f i GamePlaza.obj
 0001:0006f4a0       ??1?$CTempldateHelper@UIUserOrderParser@@@@UAE@XZ 004704a0 f i GamePlaza.obj
 0001:0006f4d0       ??0?$CTempldateHelper@UIFaceItemControl@@@@QAE@ABU_GUID@@KPB_WPBD@Z 004704d0 f i GamePlaza.obj
 0001:0006f560       ??1?$CTempldateHelper@UIFaceItemControl@@@@UAE@XZ 00470560 f i GamePlaza.obj
 0001:0006f590       ??_G?$CTempldateHelper@UIUserOrderParser@@@@UAEPAXI@Z 00470590 f i GamePlaza.obj
 0001:0006f590       ??_E?$CTempldateHelper@UIUserOrderParser@@@@UAEPAXI@Z 00470590 f i GamePlaza.obj
 0001:0006f5d0       ??_E?$CTempldateHelper@UIFaceItemControl@@@@UAEPAXI@Z 004705d0 f i GamePlaza.obj
 0001:0006f5d0       ??_G?$CTempldateHelper@UIFaceItemControl@@@@UAEPAXI@Z 004705d0 f i GamePlaza.obj
 0001:0006f610       ??0?$CMap@IINN@@QAE@H@Z    00470610 f i GamePlaza.obj
 0001:0006f680       ?Serialize@?$CMap@IINN@@UAEXAAVCArchive@@@Z 00470680 f i GamePlaza.obj
 0001:0006f790       ??_G?$CMap@IINN@@UAEPAXI@Z 00470790 f i GamePlaza.obj
 0001:0006f790       ??_E?$CMap@IINN@@UAEPAXI@Z 00470790 f i GamePlaza.obj
 0001:0006f7d0       ??1?$CMap@IINN@@UAE@XZ     004707d0 f i GamePlaza.obj
 0001:0006f840       ?SetAt@?$CMap@IINN@@QAEXIN@Z 00470840 f i GamePlaza.obj
 0001:0006f870       ?RemoveAll@?$CMap@KKVCCellID@@AAV1@@@QAEXXZ 00470870 f i GridCtrl.obj
 0001:0006f870       ?RemoveAll@?$CMap@IINN@@QAEXXZ 00470870 f i GamePlaza.obj
 0001:0006f920       ??$SerializeElements@N@@YGXAAVCArchive@@PANH@Z 00470920 f i GamePlaza.obj
 0001:0006f920       ??$SerializeElements@VCCellID@@@@YGXAAVCArchive@@PAVCCellID@@H@Z 00470920 f i GridCtrl.obj
 0001:0006fa30       ?IsStoring@CArchive@@QBEHXZ 00470a30 f i GamePlaza.obj
 0001:0006fa60       ?EnsureRead@CArchive@@QAEXPAXI@Z 00470a60 f i GamePlaza.obj
 0001:0006faa0       ??0?$CMap@HHV?$CStringT@_WV?$StrTraitMFC_DLL@_WV?$ChTraitsCRT@_W@ATL@@@@@ATL@@AAV12@@@QAE@H@Z 00470aa0 f i GamePlaza.obj
 0001:0006fb10       ?Serialize@?$CMap@HHV?$CStringT@_WV?$StrTraitMFC_DLL@_WV?$ChTraitsCRT@_W@ATL@@@@@ATL@@AAV12@@@UAEXAAVCArchive@@@Z 00470b10 f i GamePlaza.obj
 0001:0006fc90       ??_G?$CMap@HHV?$CStringT@_WV?$StrTraitMFC_DLL@_WV?$ChTraitsCRT@_W@ATL@@@@@ATL@@AAV12@@@UAEPAXI@Z 00470c90 f i GamePlaza.obj
 0001:0006fc90       ??_E?$CMap@HHV?$CStringT@_WV?$StrTraitMFC_DLL@_WV?$ChTraitsCRT@_W@ATL@@@@@ATL@@AAV12@@@UAEPAXI@Z 00470c90 f i GamePlaza.obj
 0001:0006fcd0       ??1?$CMap@HHV?$CStringT@_WV?$StrTraitMFC_DLL@_WV?$ChTraitsCRT@_W@ATL@@@@@ATL@@AAV12@@@UAE@XZ 00470cd0 f i GamePlaza.obj
 0001:0006fd40       ?SetAt@?$CMap@HHV?$CStringT@_WV?$StrTraitMFC_DLL@_WV?$ChTraitsCRT@_W@ATL@@@@@ATL@@AAV12@@@QAEXHAAV?$CStringT@_WV?$StrTraitMFC_DLL@_WV?$ChTraitsCRT@_W@ATL@@@@@ATL@@@Z 00470d40 f i GamePlaza.obj
 0001:0006fd70       ?RemoveAll@?$CMap@HHV?$CStringT@_WV?$StrTraitMFC_DLL@_WV?$ChTraitsCRT@_W@ATL@@@@@ATL@@AAV12@@@QAEXXZ 00470d70 f i GamePlaza.obj
 0001:0006fe20       ??$SerializeElements@I@@YGXAAVCArchive@@PAIH@Z 00470e20 f i GamePlaza.obj
 0001:0006fe20       ??$SerializeElements@PAVCGameTypeItem@@@@YGXAAVCArchive@@PAPAVCGameTypeItem@@H@Z 00470e20 f i ServerListData.obj
 0001:0006fe20       ??$SerializeElements@PAVCGameKindItem@@@@YGXAAVCArchive@@PAPAVCGameKindItem@@H@Z 00470e20 f i ServerListData.obj
 0001:0006fe20       ??$SerializeElements@PAVCGameServerItem@@@@YGXAAVCArchive@@PAPAVCGameServerItem@@H@Z 00470e20 f i ServerListData.obj
 0001:0006fe20       ??$SerializeElements@K@@YGXAAVCArchive@@PAKH@Z 00470e20 f i GridCtrl.obj
 0001:0006fe20       ??$SerializeElements@H@@YGXAAVCArchive@@PAHH@Z 00470e20 f i GamePlaza.obj
 0001:0006ff30       ??1CAssoc@?$CMap@HHV?$CStringT@_WV?$StrTraitMFC_DLL@_WV?$ChTraitsCRT@_W@ATL@@@@@ATL@@AAV12@@@QAE@XZ 00470f30 f i GamePlaza.obj
 0001:0006ff50       ??1CPair@?$CMap@HHV?$CStringT@_WV?$StrTraitMFC_DLL@_WV?$ChTraitsCRT@_W@ATL@@@@@ATL@@AAV12@@@QAE@XZ 00470f50 f i GamePlaza.obj
 0001:0006ff70       ??0CTime@ATL@@QAE@XZ       00470f70 f i GamePlaza.obj
 0001:0006ffa0       ??0CGameRule@@IAE@XZ       00470fa0 f   GameRule.obj
 0001:0006ffc0       ??_ECGameRule@@UAEPAXI@Z   00470fc0 f i GameRule.obj
 0001:0006ffc0       ??_GCGameRule@@UAEPAXI@Z   00470fc0 f i GameRule.obj
 0001:00070000       ??1CGameRule@@UAE@XZ       00471000 f   GameRule.obj
 0001:00070020       ?GetKjShjDiff@CGameRule@@UAEJXZ 00471020 f   GameRule.obj
 0001:00070090       ?GetKjShjDiffDesc@CGameRule@@UAE?AV?$CStringT@_WV?$StrTraitMFC_DLL@_WV?$ChTraitsCRT@_W@ATL@@@@@ATL@@H@Z 00471090 f   GameRule.obj
 0001:00070220       ?IsCanCancel@CGameRule@@UAE_NV?$CStringT@_WV?$StrTraitMFC_DLL@_WV?$ChTraitsCRT@_W@ATL@@@@@ATL@@@Z 00471220 f   GameRule.obj
 0001:00070340       ?GetQiSpan@CGameRule@@UAEJXZ 00471340 f   GameRule.obj
 0001:00070360       ??0CChqSSCRule@@QAE@XZ     00471360 f   GameRule.obj
 0001:000703e0       ??_GCChqSSCRule@@UAEPAXI@Z 004713e0 f i GameRule.obj
 0001:000703e0       ??_ECChqSSCRule@@UAEPAXI@Z 004713e0 f i GameRule.obj
 0001:00070420       ??1CChqSSCRule@@UAE@XZ     00471420 f   GameRule.obj
 0001:00070450       ?GetQiSpan@CChqSSCRule@@UAEJXZ 00471450 f   GameRule.obj
 0001:000704b0       ?GetNextExpect@CChqSSCRule@@UAE?AV?$CStringT@_WV?$StrTraitMFC_DLL@_WV?$ChTraitsCRT@_W@ATL@@@@@ATL@@H@Z 004714b0 f   GameRule.obj
 0001:00070860       ?GetNextKjShj@CChqSSCRule@@UAE?AVCTime@ATL@@XZ 00471860 f   GameRule.obj
 0001:00070c70       ??0CJxSSCRule@@QAE@XZ      00471c70 f   GameRule.obj
 0001:00070cb0       ?GetNextKjShj@CJxSSCRule@@UAE?AVCTime@ATL@@XZ 00471cb0 f i GameRule.obj
 0001:00070ce0       ??_ECJxSSCRule@@UAEPAXI@Z  00471ce0 f i GameRule.obj
 0001:00070ce0       ??_GCJxSSCRule@@UAEPAXI@Z  00471ce0 f i GameRule.obj
 0001:00070d20       ??1CJxSSCRule@@UAE@XZ      00471d20 f   GameRule.obj
 0001:00070d50       ?GetNextExpect@CJxSSCRule@@UAE?AV?$CStringT@_WV?$StrTraitMFC_DLL@_WV?$ChTraitsCRT@_W@ATL@@@@@ATL@@H@Z 00471d50 f   GameRule.obj
 0001:00070fa0       ?GetNextFdShj@CJxSSCRule@@QAE?AVCTime@ATL@@XZ 00471fa0 f   GameRule.obj
 0001:00071240       ?GetFdShjDiff@CJxSSCRule@@QAEJXZ 00472240 f   GameRule.obj
 0001:000712b0       ?IsCanCancel@CJxSSCRule@@UAE_NV?$CStringT@_WV?$StrTraitMFC_DLL@_WV?$ChTraitsCRT@_W@ATL@@@@@ATL@@@Z 004722b0 f   GameRule.obj
 0001:000713d0       ??0CXJSSCRule@@QAE@XZ      004723d0 f   GameRule.obj
 0001:00071410       ?GetNextKjShj@CXJSSCRule@@UAE?AVCTime@ATL@@XZ 00472410 f i GameRule.obj
 0001:00071440       ??_ECXJSSCRule@@UAEPAXI@Z  00472440 f i GameRule.obj
 0001:00071440       ??_GCXJSSCRule@@UAEPAXI@Z  00472440 f i GameRule.obj
 0001:00071480       ??1CXJSSCRule@@UAE@XZ      00472480 f   GameRule.obj
 0001:000714b0       ?GetNextExpect@CXJSSCRule@@UAE?AV?$CStringT@_WV?$StrTraitMFC_DLL@_WV?$ChTraitsCRT@_W@ATL@@@@@ATL@@H@Z 004724b0 f   GameRule.obj
 0001:00071690       ?GetNextFdShj@CXJSSCRule@@QAE?AVCTime@ATL@@XZ 00472690 f   GameRule.obj
 0001:00071850       ?GetFdShjDiff@CXJSSCRule@@QAEJXZ 00472850 f   GameRule.obj
 0001:000718c0       ?IsCanCancel@CXJSSCRule@@UAE_NV?$CStringT@_WV?$StrTraitMFC_DLL@_WV?$ChTraitsCRT@_W@ATL@@@@@ATL@@@Z 004728c0 f   GameRule.obj
 0001:000719e0       ??0CFenFenCaiRule@@QAE@XZ  004729e0 f   GameRule.obj
 0001:00071a60       ??_GCFenFenCaiRule@@UAEPAXI@Z 00472a60 f i GameRule.obj
 0001:00071a60       ??_ECFenFenCaiRule@@UAEPAXI@Z 00472a60 f i GameRule.obj
 0001:00071aa0       ??1CFenFenCaiRule@@UAE@XZ  00472aa0 f   GameRule.obj
 0001:00071ad0       ?GetQiSpan@CWuFenCaiRule@@UAEJXZ 00472ad0 f   GameRule.obj
 0001:00071ad0       ?GetQiSpan@CFenFenCaiRule@@UAEJXZ 00472ad0 f   GameRule.obj
 0001:00071ad0       ?GetBackClr@CGridCell@@UBEKXZ 00472ad0 f   GridCell.obj
 0001:00071af0       ?GetNextExpect@CFenFenCaiRule@@UAE?AV?$CStringT@_WV?$StrTraitMFC_DLL@_WV?$ChTraitsCRT@_W@ATL@@@@@ATL@@H@Z 00472af0 f   GameRule.obj
 0001:00071c00       ?GetNextKjShj@CWuFenCaiRule@@UAE?AVCTime@ATL@@XZ 00472c00 f   GameRule.obj
 0001:00071c00       ?GetNextKjShj@CFenFenCaiRule@@UAE?AVCTime@ATL@@XZ 00472c00 f   GameRule.obj
 0001:00071cd0       ??0CWuFenCaiRule@@QAE@XZ   00472cd0 f   GameRule.obj
 0001:00071d50       ??_ECWuFenCaiRule@@UAEPAXI@Z 00472d50 f i GameRule.obj
 0001:00071d50       ??_GCWuFenCaiRule@@UAEPAXI@Z 00472d50 f i GameRule.obj
 0001:00071d90       ??1CWuFenCaiRule@@UAE@XZ   00472d90 f   GameRule.obj
 0001:00071dc0       ?GetNextExpect@CWuFenCaiRule@@UAE?AV?$CStringT@_WV?$StrTraitMFC_DLL@_WV?$ChTraitsCRT@_W@ATL@@@@@ATL@@H@Z 00472dc0 f   GameRule.obj
 0001:00071f10       ??0CGD11X5Rule@@QAE@XZ     00472f10 f   GameRule.obj
 0001:00071f50       ??_GCGD11X5Rule@@UAEPAXI@Z 00472f50 f i GameRule.obj
 0001:00071f50       ??_ECGD11X5Rule@@UAEPAXI@Z 00472f50 f i GameRule.obj
 0001:00071f90       ??1CGD11X5Rule@@UAE@XZ     00472f90 f   GameRule.obj
 0001:00071fc0       ?GetNextExpect@CGD11X5Rule@@UAE?AV?$CStringT@_WV?$StrTraitMFC_DLL@_WV?$ChTraitsCRT@_W@ATL@@@@@ATL@@H@Z 00472fc0 f   GameRule.obj
 0001:00072310       ?GetNextKjShj@CGD11X5Rule@@UAE?AVCTime@ATL@@XZ 00473310 f   GameRule.obj
 0001:000725c0       ??0CCQ11X5Rule@@QAE@XZ     004735c0 f   GameRule.obj
 0001:00072600       ??_ECCQ11X5Rule@@UAEPAXI@Z 00473600 f i GameRule.obj
 0001:00072600       ??_GCCQ11X5Rule@@UAEPAXI@Z 00473600 f i GameRule.obj
 0001:00072640       ??1CCQ11X5Rule@@UAE@XZ     00473640 f   GameRule.obj
 0001:00072670       ?GetNextExpect@CCQ11X5Rule@@UAE?AV?$CStringT@_WV?$StrTraitMFC_DLL@_WV?$ChTraitsCRT@_W@ATL@@@@@ATL@@H@Z 00473670 f   GameRule.obj
 0001:00072880       ?GetNextKjShj@CCQ11X5Rule@@UAE?AVCTime@ATL@@XZ 00473880 f   GameRule.obj
 0001:00072a90       ??0CJX11X5Rule@@QAE@XZ     00473a90 f   GameRule.obj
 0001:00072ad0       ??_ECJX11X5Rule@@UAEPAXI@Z 00473ad0 f i GameRule.obj
 0001:00072ad0       ??_GCJX11X5Rule@@UAEPAXI@Z 00473ad0 f i GameRule.obj
 0001:00072b10       ??1CJX11X5Rule@@UAE@XZ     00473b10 f   GameRule.obj
 0001:00072b40       ?GetNextExpect@CJX11X5Rule@@UAE?AV?$CStringT@_WV?$StrTraitMFC_DLL@_WV?$ChTraitsCRT@_W@ATL@@@@@ATL@@H@Z 00473b40 f   GameRule.obj
 0001:00072e70       ?GetNextKjShj@CJX11X5Rule@@UAE?AVCTime@ATL@@XZ 00473e70 f   GameRule.obj
 0001:00073100       ??0CSD11X5Rule@@QAE@XZ     00474100 f   GameRule.obj
 0001:00073140       ??_GCSD11X5Rule@@UAEPAXI@Z 00474140 f i GameRule.obj
 0001:00073140       ??_ECSD11X5Rule@@UAEPAXI@Z 00474140 f i GameRule.obj
 0001:00073180       ??1CSD11X5Rule@@UAE@XZ     00474180 f   GameRule.obj
 0001:000731b0       ?GetNextExpect@CSD11X5Rule@@UAE?AV?$CStringT@_WV?$StrTraitMFC_DLL@_WV?$ChTraitsCRT@_W@ATL@@@@@ATL@@H@Z 004741b0 f   GameRule.obj
 0001:00073510       ?GetNextKjShj@CSD11X5Rule@@UAE?AVCTime@ATL@@XZ 00474510 f   GameRule.obj
 0001:000737c0       ??9ATL@@YA_NABV?$CStringT@_WV?$StrTraitMFC_DLL@_WV?$ChTraitsCRT@_W@ATL@@@@@0@0@Z 004747c0 f i GameRule.obj
 0001:000737f0       ??OATL@@YA_NABV?$CStringT@_WV?$StrTraitMFC_DLL@_WV?$ChTraitsCRT@_W@ATL@@@@@0@0@Z 004747f0 f i GameRule.obj
 0001:00073820       ?GetTimeSpan@CTimeSpan@ATL@@QBE_JXZ 00474820 f i ChongQing11X5.obj
 0001:00073820       ?GetTotalSeconds@CTimeSpan@ATL@@QBE_JXZ 00474820 f i GameRule.obj
 0001:00073840       ??ZCTime@ATL@@QAEAAV01@VCTimeSpan@1@@Z 00474840 f i GameRule.obj
 0001:00073880       ??GCTime@ATL@@QBE?AVCTimeSpan@1@V01@@Z 00474880 f i GameRule.obj
 0001:000738b0       ?GetHour@CTime@ATL@@QBEHXZ 004748b0 f i GameRule.obj
 0001:000738f0       ?GetMinute@CTime@ATL@@QBEHXZ 004748f0 f i GameRule.obj
 0001:00073930       ??0COleDateTime@ATL@@QAE@ABUtagVARIANT@@@Z 00474930 f i GameRule.obj
 0001:00073970       ??4COleDateTime@ATL@@QAEAAV01@ABUtagVARIANT@@@Z 00474970 f i GameRule.obj
 0001:000739f0       ??BCOleDateTime@ATL@@QBENXZ 004749f0 f i GameRule.obj
 0001:00073a10       ??1COleVariant@@QAE@XZ     00474a10 f i GameRule.obj
 0001:00073a30       ??0COleVariant@@QAE@AAV?$CStringT@_WV?$StrTraitMFC_DLL@_WV?$ChTraitsCRT@_W@ATL@@@@@ATL@@@Z 00474a30 f i GameRule.obj
 0001:00073a60       ??0CGlobalUnits@@QAE@XZ    00474a60 f   GlobalUnits.obj
 0001:00073ac0       ??_ECGlobalUnits@@UAEPAXI@Z 00474ac0 f i GlobalUnits.obj
 0001:00073ac0       ??_GCGlobalUnits@@UAEPAXI@Z 00474ac0 f i GlobalUnits.obj
 0001:00073b00       ??1CGlobalUnits@@UAE@XZ    00474b00 f   GlobalUnits.obj
 0001:00073b30       ?WriteUserCookie@CGlobalUnits@@QAE_NXZ 00474b30 f   GlobalUnits.obj
 0001:00073c20       ?DeleteUserCookie@CGlobalUnits@@QAE_NXZ 00474c20 f   GlobalUnits.obj
 0001:00073c80       ?DownLoadClient@CGlobalUnits@@QAE_NPB_WGG@Z 00474c80 f   GlobalUnits.obj
 0001:00073d60       ?SetValidateParam@CGlobalUnits@@QAEXKPB_W@Z 00474d60 f   GlobalUnits.obj
 0001:00073da0       ?GetRuntimeClass@CGuangDong11X5@@UBEPAUCRuntimeClass@@XZ 00474da0 f   GuangDong11X5.obj
 0001:00073dc0       ??0CGuangDong11X5@@QAE@PAVCWnd@@@Z 00474dc0 f   GuangDong11X5.obj
 0001:00074cd0       ??_GCGuangDong11X5@@UAEPAXI@Z 00475cd0 f i GuangDong11X5.obj
 0001:00074cd0       ??_ECGuangDong11X5@@UAEPAXI@Z 00475cd0 f i GuangDong11X5.obj
 0001:00074d10       ??1CGuangDong11X5@@UAE@XZ  00475d10 f   GuangDong11X5.obj
 0001:00075b20       ?FlushZongjine@CGuangDong11X5@@QAEXXZ 00476b20 f   GuangDong11X5.obj
 0001:00075b50       ?DoDataExchange@CJiangXi11X5@@MAEXPAVCDataExchange@@@Z 00476b50 f   JiangXi11X5.obj
 0001:00075b50       ?DoDataExchange@CGuangDong11X5@@MAEXPAVCDataExchange@@@Z 00476b50 f   GuangDong11X5.obj
 0001:00076980       ?GetMessageMap@CGuangDong11X5@@MBEPBUAFX_MSGMAP@@XZ 00477980 f   GuangDong11X5.obj
 0001:000769a0       ?GetThisMessageMap@CGuangDong11X5@@KGPBUAFX_MSGMAP@@XZ 004779a0 f   GuangDong11X5.obj
 0001:000769c0       ?OnPaint@CGuangDong11X5@@IAEXXZ 004779c0 f   GuangDong11X5.obj
 0001:00076c50       ?OnSize@CJiangXi11X5@@IAEXIHH@Z 00477c50 f   JiangXi11X5.obj
 0001:00076c50       ?OnSize@CGuangDong11X5@@IAEXIHH@Z 00477c50 f   GuangDong11X5.obj
 0001:00076cc0       ?OnShowWindow@CGuangDong11X5@@IAEXHI@Z 00477cc0 f   GuangDong11X5.obj
 0001:00076db0       ?OnTimer@CGuangDong11X5@@IAEXI@Z 00477db0 f   GuangDong11X5.obj
 0001:000770a0       ?OnBnClickedBtnHszhx@CGuangDong11X5@@IAEXXZ 004780a0 f   GuangDong11X5.obj
 0001:000770f0       ?OnBnClickedBtnHszx@CGuangDong11X5@@IAEXXZ 004780f0 f   GuangDong11X5.obj
 0001:00077140       ?OnBnClickedBtnWxhe@CGuangDong11X5@@IAEXXZ 00478140 f   GuangDong11X5.obj
 0001:00077190       ?OnBnClickedBtnHezx@CGuangDong11X5@@IAEXXZ 00478190 f   GuangDong11X5.obj
 0001:000771e0       ?OnBnClickedBtnDxdsh@CGuangDong11X5@@IAEXXZ 004781e0 f   GuangDong11X5.obj
 0001:00077230       ?OnBnClickedBtnBdw@CGuangDong11X5@@IAEXXZ 00478230 f   GuangDong11X5.obj
 0001:00077280       ?OnBnClickedBtnQszhx@CGuangDong11X5@@IAEXXZ 00478280 f   GuangDong11X5.obj
 0001:000772d0       ?OnBnClickedBtnQszx@CGuangDong11X5@@IAEXXZ 004782d0 f   GuangDong11X5.obj
 0001:00077320       ?OnBnClickedBtnWxqe@CGuangDong11X5@@IAEXXZ 00478320 f   GuangDong11X5.obj
 0001:00077380       ?OnBnClickedBtnQezx@CGuangDong11X5@@IAEXXZ 00478380 f   GuangDong11X5.obj
 0001:000773e0       ?OnInitDialog@CGuangDong11X5@@MAEHXZ 004783e0 f   GuangDong11X5.obj
 0001:00077ee0       ?OnBnClickedBtnWanDa@CGuangDong11X5@@IAEXXZ 00478ee0 f   GuangDong11X5.obj
 0001:00077ee0       ?OnBnClickedBtnWanDa@CJiangXi11X5@@IAEXXZ 00478ee0 f   JiangXi11X5.obj
 0001:00077ee0       ?OnBnClickedBtnWanDa@CChongQing11X5@@IAEXXZ 00478ee0 f   ChongQing11X5.obj
 0001:00077fb0       ?OnBnClickedBtnShiQuan@CGuangDong11X5@@IAEXXZ 00478fb0 f   GuangDong11X5.obj
 0001:00077fb0       ?OnBnClickedBtnShiQuan@CChongQing11X5@@IAEXXZ 00478fb0 f   ChongQing11X5.obj
 0001:00077fb0       ?OnBnClickedBtnShiQuan@CJiangXi11X5@@IAEXXZ 00478fb0 f   JiangXi11X5.obj
 0001:00078080       ?OnBnClickedBtnShiDa@CGuangDong11X5@@IAEXXZ 00479080 f   GuangDong11X5.obj
 0001:00078080       ?OnBnClickedBtnShiDa@CJiangXi11X5@@IAEXXZ 00479080 f   JiangXi11X5.obj
 0001:00078080       ?OnBnClickedBtnShiDa@CChongQing11X5@@IAEXXZ 00479080 f   ChongQing11X5.obj
 0001:00078150       ?OnBnClickedBtnShiXiao@CJiangXi11X5@@IAEXXZ 00479150 f   JiangXi11X5.obj
 0001:00078150       ?OnBnClickedBtnShiXiao@CChongQing11X5@@IAEXXZ 00479150 f   ChongQing11X5.obj
 0001:00078150       ?OnBnClickedBtnShiXiao@CGuangDong11X5@@IAEXXZ 00479150 f   GuangDong11X5.obj
 0001:00078220       ?OnBnClickedBtnShiDan@CChongQing11X5@@IAEXXZ 00479220 f   ChongQing11X5.obj
 0001:00078220       ?OnBnClickedBtnShiDan@CGuangDong11X5@@IAEXXZ 00479220 f   GuangDong11X5.obj
 0001:00078220       ?OnBnClickedBtnShiDan@CJiangXi11X5@@IAEXXZ 00479220 f   JiangXi11X5.obj
 0001:000782f0       ?OnBnClickedBtnGeDa@CJiangXi11X5@@IAEXXZ 004792f0 f   JiangXi11X5.obj
 0001:000782f0       ?OnBnClickedBtnGeDa@CChongQing11X5@@IAEXXZ 004792f0 f   ChongQing11X5.obj
 0001:000782f0       ?OnBnClickedBtnGeDa@CGuangDong11X5@@IAEXXZ 004792f0 f   GuangDong11X5.obj
 0001:000783c0       ?OnBnClickedBtnGeXiao@CChongQing11X5@@IAEXXZ 004793c0 f   ChongQing11X5.obj
 0001:000783c0       ?OnBnClickedBtnGeXiao@CGuangDong11X5@@IAEXXZ 004793c0 f   GuangDong11X5.obj
 0001:000783c0       ?OnBnClickedBtnGeXiao@CJiangXi11X5@@IAEXXZ 004793c0 f   JiangXi11X5.obj
 0001:00078490       ?OnBnClickedBtnGeDan@CJiangXi11X5@@IAEXXZ 00479490 f   JiangXi11X5.obj
 0001:00078490       ?OnBnClickedBtnGeDan@CChongQing11X5@@IAEXXZ 00479490 f   ChongQing11X5.obj
 0001:00078490       ?OnBnClickedBtnGeDan@CGuangDong11X5@@IAEXXZ 00479490 f   GuangDong11X5.obj
 0001:00078560       ?OnBnClickedBtnChqAdd@CGuangDong11X5@@IAEXXZ 00479560 f   GuangDong11X5.obj
 0001:0007b770       ?InitNumberBtns@CJiangXi11X5@@AAEXXZ 0047c770 f   JiangXi11X5.obj
 0001:0007b770       ?InitNumberBtns@CGuangDong11X5@@AAEXXZ 0047c770 f   GuangDong11X5.obj
 0001:0007c260       ?InitListCtrl@CChongQing11X5@@AAEXXZ 0047d260 f   ChongQing11X5.obj
 0001:0007c260       ?InitListCtrl@CGuangDong11X5@@AAEXXZ 0047d260 f   GuangDong11X5.obj
 0001:0007c260       ?InitListCtrl@CJiangXi11X5@@AAEXXZ 0047d260 f   JiangXi11X5.obj
 0001:0007c310       ?OnBnClickedRioHszhxFushi@CGuangDong11X5@@IAEXXZ 0047d310 f   GuangDong11X5.obj
 0001:0007c3f0       ?OnBnClickedRioRenXuan2@CGuangDong11X5@@IAEXXZ 0047d3f0 f   GuangDong11X5.obj
 0001:0007c4d0       ?OnBnClickedRioHszsFushi@CGuangDong11X5@@IAEXXZ 0047d4d0 f   GuangDong11X5.obj
 0001:0007c5b0       ?OnBnClickedRioQszsFushi@CGuangDong11X5@@IAEXXZ 0047d5b0 f   GuangDong11X5.obj
 0001:0007c640       ?OnBnClickedRioHezhxFushi@CGuangDong11X5@@IAEXXZ 0047d640 f   GuangDong11X5.obj
 0001:0007c720       ?OnBnClickedRioHezxFushi@CGuangDong11X5@@IAEXXZ 0047d720 f   GuangDong11X5.obj
 0001:0007c800       ?OnBnClickedRioQezhxFushi@CGuangDong11X5@@IAEXXZ 0047d800 f   GuangDong11X5.obj
 0001:0007c8f0       ?OnBnClickedRioQezhxDanshi@CGuangDong11X5@@IAEXXZ 0047d8f0 f   GuangDong11X5.obj
 0001:0007c9b0       ?OnBnClickedRioQezxFushi@CGuangDong11X5@@IAEXXZ 0047d9b0 f   GuangDong11X5.obj
 0001:0007caa0       ?OnBnClickedRioQezxDanshi@CGuangDong11X5@@IAEXXZ 0047daa0 f   GuangDong11X5.obj
 0001:0007cb60       ?OnBnClickedRioDxdsh@CGuangDong11X5@@IAEXXZ 0047db60 f   GuangDong11X5.obj
 0001:0007cc40       ?OnBnClickedRioHsbdw@CGuangDong11X5@@IAEXXZ 0047dc40 f   GuangDong11X5.obj
 0001:0007cd20       ?OnBnClickedBtnZhuihao@CGuangDong11X5@@IAEXXZ 0047dd20 f   GuangDong11X5.obj
 0001:0007d070       ?CheckInput@CJiangXi11X5@@QAE_NXZ 0047e070 f   JiangXi11X5.obj
 0001:0007d070       ?CheckInput@CGuangDong11X5@@QAE_NXZ 0047e070 f   GuangDong11X5.obj
 0001:0007d400       ?OnBnClickedBtnTouzhu@CGuangDong11X5@@IAEXXZ 0047e400 f   GuangDong11X5.obj
 0001:0007d550       ?OnBnClickedBtnDelSel@CGuangDong11X5@@IAEXXZ 0047e550 f   GuangDong11X5.obj
 0001:0007d660       ?OnBnClickedBtnClsList@CGuangDong11X5@@IAEXXZ 0047e660 f   GuangDong11X5.obj
 0001:0007d6f0       ?OnEnChangeEditDanshiInput@CJiangXi11X5@@IAEXXZ 0047e6f0 f   JiangXi11X5.obj
 0001:0007d6f0       ?OnEnChangeEditDanshiInput@CGuangDong11X5@@IAEXXZ 0047e6f0 f   GuangDong11X5.obj
 0001:0007d6f0       ?OnEnChangeEditDanshiInput@CChongQing11X5@@IAEXXZ 0047e6f0 f   ChongQing11X5.obj
 0001:0007d720       ?OnEnChangeEditBeishu@CGuangDong11X5@@IAEXXZ 0047e720 f   GuangDong11X5.obj
 0001:0007d8d0       ?GetGeString@CGuangDong11X5@@AAE?AV?$CStringT@_WV?$StrTraitMFC_DLL@_WV?$ChTraitsCRT@_W@ATL@@@@@ATL@@XZ 0047e8d0 f   GuangDong11X5.obj
 0001:0007d8d0       ?GetGeString@CJiangXi11X5@@AAE?AV?$CStringT@_WV?$StrTraitMFC_DLL@_WV?$ChTraitsCRT@_W@ATL@@@@@ATL@@XZ 0047e8d0 f   JiangXi11X5.obj
 0001:0007d8d0       ?GetGeString@CChongQing11X5@@AAE?AV?$CStringT@_WV?$StrTraitMFC_DLL@_WV?$ChTraitsCRT@_W@ATL@@@@@ATL@@XZ 0047e8d0 f   ChongQing11X5.obj
 0001:0007db00       ?GetWanDesc@CGuangDong11X5@@AAE?AV?$CStringT@_WV?$StrTraitMFC_DLL@_WV?$ChTraitsCRT@_W@ATL@@@@@ATL@@XZ 0047eb00 f   GuangDong11X5.obj
 0001:0007db50       ?AdjustWanFa@CGuangDong11X5@@AAEXXZ 0047eb50 f   GuangDong11X5.obj
 0001:0007db50       ?AdjustWanFa@CJiangXi11X5@@AAEXXZ 0047eb50 f   JiangXi11X5.obj
 0001:0007db50       ?AdjustWanFa@CChongQing11X5@@AAEXXZ 0047eb50 f   ChongQing11X5.obj
 0001:0007de50       ?AdjustNumBtn@CJiangXi11X5@@AAEXXZ 0047ee50 f   JiangXi11X5.obj
 0001:0007de50       ?AdjustNumBtn@CGuangDong11X5@@AAEXXZ 0047ee50 f   GuangDong11X5.obj
 0001:0007fbf0       ?AdjustAdd@CJiangXi11X5@@AAEXXZ 00480bf0 f   JiangXi11X5.obj
 0001:0007fbf0       ?AdjustAdd@CGuangDong11X5@@AAEXXZ 00480bf0 f   GuangDong11X5.obj
 0001:0007fbf0       ?AdjustAdd@CChongQing11X5@@AAEXXZ 00480bf0 f   ChongQing11X5.obj
 0001:0007fca0       ?SendToServer@CGuangDong11X5@@AAEXH@Z 00480ca0 f   GuangDong11X5.obj
 0001:0007fe40       ?LuckyNumCQSSC@CGuangDong11X5@@AAE_NXZ 00480e40 f   GuangDong11X5.obj
 0001:00080320       ?GetKjShjDiff@CGuangDong11X5@@AAEJXZ 00481320 f   GuangDong11X5.obj
 0001:00080320       ?GetKjShjDiff@CJiangXi11X5@@AAEJXZ 00481320 f   JiangXi11X5.obj
 0001:00080370       ?DrawLastKjHaoma@CGuangDong11X5@@AAEXPAVCDC@@AAVGraphics@Gdiplus@@@Z 00481370 f   GuangDong11X5.obj
 0001:00080b40       ?DrawTopKjHaoma@CGuangDong11X5@@AAEXPAVCDC@@AAVGraphics@Gdiplus@@@Z 00481b40 f   GuangDong11X5.obj
 0001:00080f10       ?DrawZongZhushuJinE@CGuangDong11X5@@AAEXPAVCDC@@@Z 00481f10 f   GuangDong11X5.obj
 0001:000810f0       ?SetLockText@CChongQing11X5@@AAEXMM@Z 004820f0 f   ChongQing11X5.obj
 0001:000810f0       ?SetLockText@CJiangXi11X5@@AAEXMM@Z 004820f0 f   JiangXi11X5.obj
 0001:000810f0       ?SetLockText@CGuangDong11X5@@AAEXMM@Z 004820f0 f   GuangDong11X5.obj
 0001:000811f0       ?GetDanShiHaoma@CGuangDong11X5@@AAE_NAAV?$CStringT@_WV?$StrTraitMFC_DLL@_WV?$ChTraitsCRT@_W@ATL@@@@@ATL@@HH@Z 004821f0 f   GuangDong11X5.obj
 0001:00081680       ?InitWanFaMoShi@CGuangDong11X5@@AAEXXZ 00482680 f   GuangDong11X5.obj
 0001:000817f0       ?OnEventMissionLink@CGuangDong11X5@@UAE_NHH@Z 004827f0 f   GuangDong11X5.obj
 0001:00082c90       ?OnEventMissionRead@CGuangDong11X5@@UAE_NUTCP_Command@@PAXG@Z 00483c90 f   GuangDong11X5.obj
 0001:000836d0       ?OnMouseMove@CGuangDong11X5@@IAEXIVCPoint@@@Z 004846d0 f   GuangDong11X5.obj
 0001:00083750       ?OnLButtonDown@CJiangXi11X5@@IAEXIVCPoint@@@Z 00484750 f   JiangXi11X5.obj
 0001:00083750       ?OnLButtonDown@CGuangDong11X5@@IAEXIVCPoint@@@Z 00484750 f   GuangDong11X5.obj
 0001:000837e0       ?OnLButtonUp@CGuangDong11X5@@IAEXIVCPoint@@@Z 004847e0 f   GuangDong11X5.obj
 0001:000837e0       ?OnLButtonUp@CJiangXi11X5@@IAEXIVCPoint@@@Z 004847e0 f   JiangXi11X5.obj
 0001:00083880       ?OnBnClickedBtnLock@CGuangDong11X5@@AAEXXZ 00484880 f   GuangDong11X5.obj
 0001:00083a30       ??_ECGuangDong11X5@@WHE@AEPAXI@Z 00484a30 f i GuangDong11X5.obj
 0001:00083a40       ??0CCriticalSection@@QAE@XZ 00484a40 f i GuangDong11X5.obj
 0001:00083ac0       ?SendQueryGameResult@CPlazaViewItem@@IAEJIJ@Z 00484ac0 f i PlazaViewItem.obj
 0001:00083ac0       ?OnQueryGameResult@CPlatformFrame@@IAEJIJ@Z 00484ac0 f i PlatformFrame.obj
 0001:00083ac0       ?Unlock@CSyncObject@@UAEHJPAJ@Z 00484ac0 f i GuangDong11X5.obj
 0001:00083ae0       ?Init@CCriticalSection@@AAEHXZ 00484ae0 f i GuangDong11X5.obj
 0001:00083b90       ??_ECCriticalSection@@UAEPAXI@Z 00484b90 f i GuangDong11X5.obj
 0001:00083b90       ??_GCCriticalSection@@UAEPAXI@Z 00484b90 f i GuangDong11X5.obj
 0001:00083bd0       ??1CCriticalSection@@UAE@XZ 00484bd0 f i GuangDong11X5.obj
 0001:00083c10       ?Lock@CCriticalSection@@UAEHK@Z 00484c10 f i GuangDong11X5.obj
 0001:00083c30       ?_GetBaseClass@CHeaderCtrlCl@@KGPAUCRuntimeClass@@XZ 00484c30 f   HeaderCtrlCl.obj
 0001:00083c50       ?GetRuntimeClass@CHeaderCtrlCl@@UBEPAUCRuntimeClass@@XZ 00484c50 f   HeaderCtrlCl.obj
 0001:00083c70       ??0CHeaderCtrlCl@@QAE@XZ   00484c70 f   HeaderCtrlCl.obj
 0001:00083d60       ??_ECHeaderCtrlCl@@UAEPAXI@Z 00484d60 f i HeaderCtrlCl.obj
 0001:00083d60       ??_GCHeaderCtrlCl@@UAEPAXI@Z 00484d60 f i HeaderCtrlCl.obj
 0001:00083da0       ??1CHeaderCtrlCl@@UAE@XZ   00484da0 f   HeaderCtrlCl.obj
 0001:00083e20       ?GetMessageMap@CHeaderCtrlCl@@MBEPBUAFX_MSGMAP@@XZ 00484e20 f   HeaderCtrlCl.obj
 0001:00083e40       ?GetThisMessageMap@CHeaderCtrlCl@@KGPBUAFX_MSGMAP@@XZ 00484e40 f   HeaderCtrlCl.obj
 0001:00083e60       ?OnPaint@CHeaderCtrlCl@@QAEXXZ 00484e60 f   HeaderCtrlCl.obj
 0001:00084400       ?OnLayout@CHeaderCtrlCl@@QAEJIJ@Z 00485400 f   HeaderCtrlCl.obj
 0001:00084470       ?OffsetRect@CRect@@QAEXHH@Z 00485470 f i HeaderCtrlCl.obj
 0001:000844a0       ?FillRect@CDC@@QAEXPBUtagRECT@@PAVCBrush@@@Z 004854a0 f i HeaderCtrlCl.obj
 0001:000844d0       ?GetTextMetricsW@CDC@@QBEHPAUtagTEXTMETRICW@@@Z 004854d0 f i HeaderCtrlCl.obj
 0001:00084500       ??0CHeaderCtrl@@QAE@XZ     00485500 f i HeaderCtrlCl.obj
 0001:00084530       ??_ECHeaderCtrl@@UAEPAXI@Z 00485530 f i HeaderCtrlCl.obj
 0001:00084530       ??_GCHeaderCtrl@@UAEPAXI@Z 00485530 f i HeaderCtrlCl.obj
 0001:00084570       ?GetItemCount@CHeaderCtrl@@QBEHXZ 00485570 f i HeaderCtrlCl.obj
 0001:000845a0       ?GetItemRect@CHeaderCtrl@@QBEHHPAUtagRECT@@@Z 004855a0 f i HeaderCtrlCl.obj
 0001:000845d0       ?GetRuntimeClass@CHuiYuanChkxjtzhDlg@@UBEPAUCRuntimeClass@@XZ 004855d0 f   HuiYuanChkxjtzhDlg.obj
 0001:000845f0       ??0CHuiYuanChkxjtzhDlg@@QAE@PAVCWnd@@@Z 004855f0 f   HuiYuanChkxjtzhDlg.obj
 0001:00084850       ??0CDateTimeCtrl@@QAE@XZ   00485850 f i HuiYuanChkxjtzhDlg.obj
 0001:00084880       ??_ECDateTimeCtrl@@UAEPAXI@Z 00485880 f i HuiYuanChkxjtzhDlg.obj
 0001:00084880       ??_GCDateTimeCtrl@@UAEPAXI@Z 00485880 f i HuiYuanChkxjtzhDlg.obj
 0001:000848c0       ??_GCHuiYuanChkxjtzhDlg@@UAEPAXI@Z 004858c0 f i HuiYuanChkxjtzhDlg.obj
 0001:000848c0       ??_ECHuiYuanChkxjtzhDlg@@UAEPAXI@Z 004858c0 f i HuiYuanChkxjtzhDlg.obj
 0001:00084900       ??1CHuiYuanChkxjtzhDlg@@UAE@XZ 00485900 f   HuiYuanChkxjtzhDlg.obj
 0001:00084b30       ?DoDataExchange@CHuiYuanChkxjtzhDlg@@MAEXPAVCDataExchange@@@Z 00485b30 f   HuiYuanChkxjtzhDlg.obj
 0001:00084c70       ?GetMessageMap@CHuiYuanChkxjtzhDlg@@MBEPBUAFX_MSGMAP@@XZ 00485c70 f   HuiYuanChkxjtzhDlg.obj
 0001:00084c90       ?GetThisMessageMap@CHuiYuanChkxjtzhDlg@@KGPBUAFX_MSGMAP@@XZ 00485c90 f   HuiYuanChkxjtzhDlg.obj
 0001:00084cb0       ?OnPaint@CHuiYuanChkxjtzhDlg@@IAEXXZ 00485cb0 f   HuiYuanChkxjtzhDlg.obj
 0001:00085080       ?OnSize@CHuiYuanChkxjtzhDlg@@IAEXIHH@Z 00486080 f   HuiYuanChkxjtzhDlg.obj
 0001:000850c0       ?OnShowWindow@CHuiYuanChkxjtzhDlg@@IAEXHI@Z 004860c0 f   HuiYuanChkxjtzhDlg.obj
 0001:00085200       ?OnBnClickedBtnOk@CHuiYuanChkxjtzhDlg@@IAEXXZ 00486200 f   HuiYuanChkxjtzhDlg.obj
 0001:00085440       ?OnBnClickedBtnPrePage@CHuiYuanChkxjtzhDlg@@IAEXXZ 00486440 f   HuiYuanChkxjtzhDlg.obj
 0001:00085530       ?OnBnClickedBtnNextPage@CHuiYuanChkxjtzhDlg@@IAEXXZ 00486530 f   HuiYuanChkxjtzhDlg.obj
 0001:00085620       ?OnNMDblclkListLog@CHuiYuanChkxjtzhDlg@@IAEXPAUtagNMHDR@@PAJ@Z 00486620 f   HuiYuanChkxjtzhDlg.obj
 0001:00085700       ?OnChkxjtzhChkxj@CHuiYuanChkxjtzhDlg@@IAEXXZ 00486700 f   HuiYuanChkxjtzhDlg.obj
 0001:00085760       ?OnChkxjtzhChkxx@CHuiYuanChkxjtzhDlg@@IAEXXZ 00486760 f   HuiYuanChkxjtzhDlg.obj
 0001:00085830       ?OnNMRClickListLog@CHuiYuanChkxjtzhDlg@@IAEXPAUtagNMHDR@@PAJ@Z 00486830 f   HuiYuanChkxjtzhDlg.obj
 0001:00085900       ?OnInitDialog@CHuiYuanChkxjtzhDlg@@MAEHXZ 00486900 f   HuiYuanChkxjtzhDlg.obj
 0001:00085b20       ?InitListCtrl@CHuiYuanChkxjtzhDlg@@AAEXXZ 00486b20 f   HuiYuanChkxjtzhDlg.obj
 0001:00085c90       ?AdjustCtrls@CHuiYuanChkxjtzhDlg@@AAEXXZ 00486c90 f   HuiYuanChkxjtzhDlg.obj
 0001:00085e70       ?EnAbleCtrls@CHuiYuanChkxjtzhDlg@@AAEX_N@Z 00486e70 f   HuiYuanChkxjtzhDlg.obj
 0001:00085eb0       ?OnEventMissionLink@CHuiYuanChkxjtzhDlg@@UAE_NHH@Z 00486eb0 f   HuiYuanChkxjtzhDlg.obj
 0001:000863e0       ?OnEventMissionRead@CHuiYuanChkxjtzhDlg@@UAE_NUTCP_Command@@PAXG@Z 004873e0 f   HuiYuanChkxjtzhDlg.obj
 0001:00086c30       ?SendToServer@CHuiYuanChkxjtzhDlg@@IAEXH@Z 00487c30 f   HuiYuanChkxjtzhDlg.obj
 0001:00086d50       ?QueryChkXjTzh@CHuiYuanChkxjtzhDlg@@QAEXH@Z 00487d50 f   HuiYuanChkxjtzhDlg.obj
 0001:00086dc0       ??MATL@@YA_NABV?$CStringT@_WV?$StrTraitMFC_DLL@_WV?$ChTraitsCRT@_W@ATL@@@@@0@0@Z 00487dc0 f i HuiYuanChkxjtzhDlg.obj
 0001:00086df0       ??_ECHuiYuanChkxjtzhDlg@@WHE@AEPAXI@Z 00487df0 f i HuiYuanChkxjtzhDlg.obj
 0001:00086e00       ??8CTime@ATL@@QBE_NV01@@Z  00487e00 f i HuiYuanChkxjtzhDlg.obj
 0001:00086e50       ??OCTime@ATL@@QBE_NV01@@Z  00487e50 f i HuiYuanChkxjtzhDlg.obj
 0001:00086ea0       ??0CMenu@@QAE@XZ           00487ea0 f i HuiYuanChkxjtzhDlg.obj
 0001:00086ee0       ??_GCMenu@@UAEPAXI@Z       00487ee0 f i HuiYuanChkxjtzhDlg.obj
 0001:00086ee0       ??_ECMenu@@UAEPAXI@Z       00487ee0 f i HuiYuanChkxjtzhDlg.obj
 0001:00086f20       ??1CMenu@@UAE@XZ           00487f20 f i HuiYuanChkxjtzhDlg.obj
 0001:00086f90       ?GetSubMenu@CMenu@@QBEPAV1@H@Z 00487f90 f i HuiYuanChkxjtzhDlg.obj
 0001:00086fc0       ?LoadMenuW@CMenu@@QAEHI@Z  00487fc0 f i HuiYuanChkxjtzhDlg.obj
 0001:00087000       ?SetItemData@CListCtrl@@QAEHHK@Z 00488000 f i HuiYuanChkxjtzhDlg.obj
 0001:00087040       ?GetRuntimeClass@CHuiYuanChzhLogDlg@@UBEPAUCRuntimeClass@@XZ 00488040 f   HuiYuanChzhLogDlg.obj
 0001:00087060       ??0CHuiYuanChzhLogDlg@@QAE@PAVCWnd@@@Z 00488060 f   HuiYuanChzhLogDlg.obj
 0001:00087260       ??_ECHuiYuanChzhLogDlg@@UAEPAXI@Z 00488260 f i HuiYuanChzhLogDlg.obj
 0001:00087260       ??_GCHuiYuanChzhLogDlg@@UAEPAXI@Z 00488260 f i HuiYuanChzhLogDlg.obj
 0001:000872a0       ??1CHuiYuanChzhLogDlg@@UAE@XZ 004882a0 f   HuiYuanChzhLogDlg.obj
 0001:00087450       ?GetMessageMap@CHuiYuanChzhLogDlg@@MBEPBUAFX_MSGMAP@@XZ 00488450 f   HuiYuanChzhLogDlg.obj
 0001:00087470       ?GetThisMessageMap@CHuiYuanChzhLogDlg@@KGPBUAFX_MSGMAP@@XZ 00488470 f   HuiYuanChzhLogDlg.obj
 0001:00087490       ?OnPaint@CHuiYuanChzhLogDlg@@IAEXXZ 00488490 f   HuiYuanChzhLogDlg.obj
 0001:00087860       ?OnShowWindow@CHuiYuanChzhLogDlg@@IAEXHI@Z 00488860 f   HuiYuanChzhLogDlg.obj
 0001:00087860       ?OnShowWindow@CHuiYuanTxLogDlg@@IAEXHI@Z 00488860 f   HuiYuanTxLogDlg.obj
 0001:000879a0       ?OnBnClickedBtnOk@CHuiYuanChzhLogDlg@@IAEXXZ 004889a0 f   HuiYuanChzhLogDlg.obj
 0001:00087be0       ?OnBnClickedBtnPrePage@CHuiYuanChzhLogDlg@@IAEXXZ 00488be0 f   HuiYuanChzhLogDlg.obj
 0001:00087cd0       ?OnBnClickedBtnNextPage@CHuiYuanChzhLogDlg@@IAEXXZ 00488cd0 f   HuiYuanChzhLogDlg.obj
 0001:00087dc0       ?OnNMRClickListLog@CHuiYuanYkLogDlg@@IAEXPAUtagNMHDR@@PAJ@Z 00488dc0 f   HuiYuanYkLogDlg.obj
 0001:00087dc0       ?OnNMRClickListLog@CHuiYuanTxLogDlg@@IAEXPAUtagNMHDR@@PAJ@Z 00488dc0 f   HuiYuanTxLogDlg.obj
 0001:00087dc0       ?OnNMRClickListLog@CHuiYuanChzhLogDlg@@IAEXPAUtagNMHDR@@PAJ@Z 00488dc0 f   HuiYuanChzhLogDlg.obj
 0001:00087e90       ?OnInitDialog@CHuiYuanChzhLogDlg@@MAEHXZ 00488e90 f   HuiYuanChzhLogDlg.obj
 0001:000880b0       ?AssertValid@CObject@@UBEXXZ 004890b0 f   ChongQing11X5.obj
 0001:000880b0       ?OnOK@CGuangDong11X5@@MAEXXZ 004890b0 f   GuangDong11X5.obj
 0001:000880b0       ?OnMouseLeave@CGridCellBase@@MAEXXZ 004890b0 f   GridCellBase.obj
 0001:000880b0       ?OnOK@CHuiYuanChzhLogDlg@@MAEXXZ 004890b0 f   HuiYuanChzhLogDlg.obj
 0001:000880b0       ?OnOK@CHuiYuanDlg@@MAEXXZ  004890b0 f   HuiYuanDlg.obj
 0001:000880b0       ?OnOK@CHuiYuanYkLogDlg@@MAEXXZ 004890b0 f   HuiYuanYkLogDlg.obj
 0001:000880b0       ?EndEdit@CGridCellBase@@UAEXXZ 004890b0 f   GridCellBase.obj
 0001:000880b0       ?OnOK@CZhangHuBaseInfoDlg@@MAEXXZ 004890b0 f   ZhangHuBaseInfoDlg.obj
 0001:000880b0       ?OnCancel@CChongQingSSC@@MAEXXZ 004890b0 f   ChongQingSSC.obj
 0001:000880b0       ?OnOK@CFenFenCai@@MAEXXZ   004890b0 f   FenFenCai.obj
 0001:000880b0       ?OnCancel@CJiangXiSSC@@MAEXXZ 004890b0 f   JiangXiSSC.obj
 0001:000880b0       ?Release@CTableViewFrame@@UAEXXZ 004890b0 f   TableViewFrame.obj
 0001:000880b0       ?OnCancel@CWuFenCai@@MAEXXZ 004890b0 f   WuFenCai.obj
 0001:000880b0       ?OnOK@CHuoDongHuanLeSongDlg@@MAEXXZ 004890b0 f   HuoDongHuanLeLingDlg.obj
 0001:000880b0       ?OnOK@CHuiYuanYktjDlg@@MAEXXZ 004890b0 f   HuiYuanYktjDlg.obj
 0001:000880b0       ?OnOK@CJiangXi11X5@@MAEXXZ 004890b0 f   JiangXi11X5.obj
 0001:000880b0       ?OnOK@CShanDong11X5@@MAEXXZ 004890b0 f   ShanDong11X5.obj
 0001:000880b0       ?OnCancel@CZhangHuShZhTkZhhDlg@@MAEXXZ 004890b0 f   ZhangHuShZhTkZhhDlg.obj
 0001:000880b0       ?OnEndEdit@CGridCellBase@@MAEXXZ 004890b0 f   GridCellBase.obj
 0001:000880b0       ?ValidateTips@CJiangXi11X5@@AAEXXZ 004890b0 f   JiangXi11X5.obj
 0001:000880b0       ?OnOK@CChongQing11X5@@MAEXXZ 004890b0 f   ChongQing11X5.obj
 0001:000880b0       ?ValidateTips@CChongQing11X5@@AAEXXZ 004890b0 f   ChongQing11X5.obj
 0001:000880b0       ?OnCancel@CZhangHuYkLogDlg@@MAEXXZ 004890b0 f   ZhangHuYkLogDlg.obj
 0001:000880b0       ?OnCancel@CHuiYuanTxLogDlg@@MAEXXZ 004890b0 f   HuiYuanTxLogDlg.obj
 0001:000880b0       ?ValidateTips@CShanDong11X5@@AAEXXZ 004890b0 f   ShanDong11X5.obj
 0001:000880b0       ?OnCancel@CHuiYuanHyxxDlg@@MAEXXZ 004890b0 f   HuiYuanHyxxDlg.obj
 0001:000880b0       ?OnOK@CZhangHuYkLogDlg@@MAEXXZ 004890b0 f   ZhangHuYkLogDlg.obj
 0001:000880b0       ?OnCancel@CHuiYuanChkxjtzhDlg@@MAEXXZ 004890b0 f   HuiYuanChkxjtzhDlg.obj
 0001:000880b0       ?OnCancel@CChongZhiDlg@@MAEXXZ 004890b0 f   ChongZhiDlg.obj
 0001:000880b0       ?OnOK@CWuFenCai@@MAEXXZ    004890b0 f   WuFenCai.obj
 0001:000880b0       ?OnCancel@CJiangXi11X5@@MAEXXZ 004890b0 f   JiangXi11X5.obj
 0001:000880b0       ?OnCancel@CXinJiangSSC@@MAEXXZ 004890b0 f   XinJiangSSC.obj
 0001:000880b0       ?OnOK@CZhangHuXgmmDlg@@MAEXXZ 004890b0 f   ZhangHuXgmmDlg.obj
 0001:000880b0       ??1CNoTrackObject@@UAE@XZ  004890b0 f   GamePlaza.obj
 0001:000880b0       ?OnOK@CHuiYuanTxLogDlg@@MAEXXZ 004890b0 f   HuiYuanTxLogDlg.obj
 0001:000880b0       ?OnCancel@CChongQing11X5@@MAEXXZ 004890b0 f   ChongQing11X5.obj
 0001:000880b0       ?OnOK@CXinJiangSSC@@MAEXXZ 004890b0 f   XinJiangSSC.obj
 0001:000880b0       ?Release@CServerViewItem@@UAEXXZ 004890b0 f   ServerViewItem.obj
 0001:000880b0       ?OnCancel@CZhangHuTzhLogDlg@@MAEXXZ 004890b0 f   ZhangHuTzhLogDlg.obj
 0001:000880b0       ?OnCancel@CHuoDongHuanLeSongDlg@@MAEXXZ 004890b0 f   HuoDongHuanLeLingDlg.obj
 0001:000880b0       ?OnCancel@CGuangDong11X5@@MAEXXZ 004890b0 f   GuangDong11X5.obj
 0001:000880b0       ?OnOK@CDlgEnquire@@MAEXXZ  004890b0 f   DlgEnquire.obj
 0001:000880b0       ?OnCancel@CZhangHuBaseInfoDlg@@MAEXXZ 004890b0 f   ZhangHuBaseInfoDlg.obj
 0001:000880b0       ?OnCancel@CPlazaViewItem@@MAEXXZ 004890b0 f   PlazaViewItem.obj
 0001:000880b0       ?OnCancel@CZhangHuXgmmDlg@@MAEXXZ 004890b0 f   ZhangHuXgmmDlg.obj
 0001:000880b0       ?OnOK@CZhangHuYkMXDlg@@MAEXXZ 004890b0 f   ZhangHuYkMXDlg.obj
 0001:000880b0       ?OnCancel@CFenFenCai@@MAEXXZ 004890b0 f   FenFenCai.obj
 0001:000880b0       ?OnOK@CHuiYuanHyxxDlg@@MAEXXZ 004890b0 f   HuiYuanHyxxDlg.obj
 0001:000880b0       ?OnCancel@CZhangHuTxLogDlg@@MAEXXZ 004890b0 f   ZhangHuTxLogDlg.obj
 0001:000880b0       ?OnOK@CHuiYuanTjxjDlg@@MAEXXZ 004890b0 f   HuiYuanTjxjDlg.obj
 0001:000880b0       ?Release@CDownLoadSink@@UAEXXZ 004890b0 f   DlgDownLoad.obj
 0001:000880b0       ?OnMouseOver@CGridCellBase@@MAEXXZ 004890b0 f   GridCellBase.obj
 0001:000880b0       ?OnOK@CChongQingSSC@@MAEXXZ 004890b0 f   ChongQingSSC.obj
 0001:000880b0       ?OnCancel@CShanDong11X5@@MAEXXZ 004890b0 f   ShanDong11X5.obj
 0001:000880b0       ?ValidateTips@CGuangDong11X5@@AAEXXZ 004890b0 f   GuangDong11X5.obj
 0001:000880b0       ?OnOK@CZhangHuChzhLogDlg@@MAEXXZ 004890b0 f   ZhangHuChzhLogDlg.obj
 0001:000880b0       ?OnCancel@CHuoDongDlg@@MAEXXZ 004890b0 f   HuoDongDlg.obj
 0001:000880b0       ?OnCancel@CZhangHuQPYkDlg@@MAEXXZ 004890b0 f   ZhangHuQPYkDlg.obj
 0001:000880b0       ?OnOK@CQuKuanDlg@@MAEXXZ   004890b0 f   QuKuanDlg.obj
 0001:000880b0       ?OnCancel@CHuiYuanTjxjDlg@@MAEXXZ 004890b0 f   HuiYuanTjxjDlg.obj
 0001:000880b0       ?OnCancel@CZhangHuDlg@@MAEXXZ 004890b0 f   ZhangHuDlg.obj
 0001:000880b0       ?OnOK@CJiangXiSSC@@MAEXXZ  004890b0 f   JiangXiSSC.obj
 0001:000880b0       ??1CObject@@UAE@XZ         004890b0 f   ChongQing11X5.obj
 0001:000880b0       ?OnCancel@CZhangHuYkMXDlg@@MAEXXZ 004890b0 f   ZhangHuYkMXDlg.obj
 0001:000880b0       ?OnCancel@CZhangHuChzhLogDlg@@MAEXXZ 004890b0 f   ZhangHuChzhLogDlg.obj
 0001:000880b0       ?OnOK@CHuiYuanXjtzhtjDlg@@MAEXXZ 004890b0 f   HuiYuanXjtzhtjDlg.obj
 0001:000880b0       ?OnOK@CChongZhiDlg@@MAEXXZ 004890b0 f   ChongZhiDlg.obj
 0001:000880b0       ?OnOK@CZhangHuShZhTkZhhDlg@@MAEXXZ 004890b0 f   ZhangHuShZhTkZhhDlg.obj
 0001:000880b0       ?OnOK@HuodongZhuanzhuan@@MAEXXZ 004890b0 f   HuodongZhuanzhuan.obj
 0001:000880b0       ?OnOK@CZhangHuTzhLogDlg@@MAEXXZ 004890b0 f   ZhangHuTzhLogDlg.obj
 0001:000880b0       ?OnCancel@CHuiYuanYktjDlg@@MAEXXZ 004890b0 f   HuiYuanYktjDlg.obj
 0001:000880b0       ?OnOK@CZhangHuTxLogDlg@@MAEXXZ 004890b0 f   ZhangHuTxLogDlg.obj
 0001:000880b0       ?OnOK@CHuiYuanHyshjDlg@@MAEXXZ 004890b0 f   HuiYuanHyshjDlg.obj
 0001:000880b0       ?OnOK@CHuiYuanChkxjtzhDlg@@MAEXXZ 004890b0 f   HuiYuanChkxjtzhDlg.obj
 0001:000880b0       ?OnCancel@CHuiYuanXjtzhtjDlg@@MAEXXZ 004890b0 f   HuiYuanXjtzhtjDlg.obj
 0001:000880b0       ?OnCancel@CHuiYuanChzhLogDlg@@MAEXXZ 004890b0 f   HuiYuanChzhLogDlg.obj
 0001:000880b0       ?OnOK@CZhangHuDlg@@MAEXXZ  004890b0 f   ZhangHuDlg.obj
 0001:000880b0       ?OnOK@CZhangHuQPYkDlg@@MAEXXZ 004890b0 f   ZhangHuQPYkDlg.obj
 0001:000880b0       ?OnCancel@CHuiYuanYkLogDlg@@MAEXXZ 004890b0 f   HuiYuanYkLogDlg.obj
 0001:000880b0       ?OnCancel@CQuKuanDlg@@MAEXXZ 004890b0 f   QuKuanDlg.obj
 0001:000880b0       ?OnOK@CHuoDongDlg@@MAEXXZ  004890b0 f   HuoDongDlg.obj
 0001:000880b0       ?OnCancel@CHuiYuanHyshjDlg@@MAEXXZ 004890b0 f   HuiYuanHyshjDlg.obj
 0001:000880b0       ?OnMouseEnter@CGridCellBase@@MAEXXZ 004890b0 f   GridCellBase.obj
 0001:000880b0       ?OnOK@CZhangHuZhhbhDlg@@MAEXXZ 004890b0 f   ZhangHuZhhbhDlg.obj
 0001:000880b0       ?OnCancel@CHuiYuanDlg@@MAEXXZ 004890b0 f   HuiYuanDlg.obj
 0001:000880b0       ?OnCancel@HuodongZhuanzhuan@@MAEXXZ 004890b0 f   HuodongZhuanzhuan.obj
 0001:000880b0       ?OnOK@CPlazaViewItem@@MAEXXZ 004890b0 f   PlazaViewItem.obj
 0001:000880b0       ?OnCancel@CZhangHuZhhbhDlg@@MAEXXZ 004890b0 f   ZhangHuZhhbhDlg.obj
 0001:000880d0       ?InitListCtrl@CHuiYuanChzhLogDlg@@AAEXXZ 004890d0 f   HuiYuanChzhLogDlg.obj
 0001:00088210       ?OnEventMissionLink@CHuiYuanChzhLogDlg@@UAE_NHH@Z 00489210 f   HuiYuanChzhLogDlg.obj
 0001:00088710       ?OnEventMissionRead@CHuiYuanChzhLogDlg@@UAE_NUTCP_Command@@PAXG@Z 00489710 f   HuiYuanChzhLogDlg.obj
 0001:00088a80       ??_ECHuiYuanChzhLogDlg@@WHE@AEPAXI@Z 00489a80 f i HuiYuanChzhLogDlg.obj
 0001:00088a90       ?GetRuntimeClass@CHuiYuanDlg@@UBEPAUCRuntimeClass@@XZ 00489a90 f   HuiYuanDlg.obj
 0001:00088ab0       ??0CHuiYuanDlg@@QAE@PAVCWnd@@@Z 00489ab0 f   HuiYuanDlg.obj
 0001:00088cc0       ??_ECHuiYuanDlg@@UAEPAXI@Z 00489cc0 f i HuiYuanDlg.obj
 0001:00088cc0       ??_GCHuiYuanDlg@@UAEPAXI@Z 00489cc0 f i HuiYuanDlg.obj
 0001:00088d00       ??1CHuiYuanDlg@@UAE@XZ     00489d00 f   HuiYuanDlg.obj
 0001:00088f00       ?DoDataExchange@CHuiYuanDlg@@MAEXPAVCDataExchange@@@Z 00489f00 f   HuiYuanDlg.obj
 0001:00088ff0       ?GetMessageMap@CHuiYuanDlg@@MBEPBUAFX_MSGMAP@@XZ 00489ff0 f   HuiYuanDlg.obj
 0001:00089010       ?GetThisMessageMap@CHuiYuanDlg@@KGPBUAFX_MSGMAP@@XZ 0048a010 f   HuiYuanDlg.obj
 0001:00089030       ?OnInitDialog@CHuiYuanDlg@@MAEHXZ 0048a030 f   HuiYuanDlg.obj
 0001:00089270       ?OnShowWindow@CHuiYuanDlg@@IAEXHI@Z 0048a270 f   HuiYuanDlg.obj
 0001:000892b0       ?OnPaint@CHuiYuanDlg@@IAEXXZ 0048a2b0 f   HuiYuanDlg.obj
 0001:000893b0       ?OnSize@CHuiYuanDlg@@IAEXIHH@Z 0048a3b0 f   HuiYuanDlg.obj
 0001:00089860       ?OnBnClickedBtnHuiyuanxinxi@CHuiYuanDlg@@IAEXXZ 0048a860 f   HuiYuanDlg.obj
 0001:000899a0       ?OnBnClickedBtnTianjiaxiaji@CHuiYuanDlg@@IAEXXZ 0048a9a0 f   HuiYuanDlg.obj
 0001:00089ae0       ?OnBnClickedBtnXiajitouzhutongji@CHuiYuanDlg@@IAEXXZ 0048aae0 f   HuiYuanDlg.obj
 0001:00089c20       ?OnBnClickedBtnChakanxiajitouzhu@CHuiYuanDlg@@IAEXXZ 0048ac20 f   HuiYuanDlg.obj
 0001:00089d60       ?OnBnClickedBtnHuiyuanshuju@CHuiYuanDlg@@IAEXXZ 0048ad60 f   HuiYuanDlg.obj
 0001:00089ea0       ?OnBnClickedBtnYingkuitongji@CHuiYuanDlg@@IAEXXZ 0048aea0 f   HuiYuanDlg.obj
 0001:00089fe0       ?OnBnClickedBtnYingkuijilu@CHuiYuanDlg@@IAEXXZ 0048afe0 f   HuiYuanDlg.obj
 0001:0008a120       ?OnBnClickedBtnChongzhijilu@CHuiYuanDlg@@IAEXXZ 0048b120 f   HuiYuanDlg.obj
 0001:0008a260       ?OnBnClickedBtnTixianjilu@CHuiYuanDlg@@IAEXXZ 0048b260 f   HuiYuanDlg.obj
 0001:0008a3a0       ?InitBtns@CHuiYuanDlg@@AAEXXZ 0048b3a0 f   HuiYuanDlg.obj
 0001:0008a5a0       ?OnQueryXJykmx@CHuiYuanDlg@@IAEJIJ@Z 0048b5a0 f   HuiYuanDlg.obj
 0001:0008a5e0       ?OnQueryXJTzh@CHuiYuanDlg@@IAEJIJ@Z 0048b5e0 f   HuiYuanDlg.obj
 0001:0008a620       ?GetRuntimeClass@CHuiYuanHyshjDlg@@UBEPAUCRuntimeClass@@XZ 0048b620 f   HuiYuanHyshjDlg.obj
 0001:0008a640       ??0CHuiYuanHyshjDlg@@QAE@PAVCWnd@@@Z 0048b640 f   HuiYuanHyshjDlg.obj
 0001:0008a7a0       ??_GCHuiYuanHyshjDlg@@UAEPAXI@Z 0048b7a0 f i HuiYuanHyshjDlg.obj
 0001:0008a7a0       ??_ECHuiYuanHyshjDlg@@UAEPAXI@Z 0048b7a0 f i HuiYuanHyshjDlg.obj
 0001:0008a7e0       ??1CHuiYuanHyshjDlg@@UAE@XZ 0048b7e0 f   HuiYuanHyshjDlg.obj
 0001:0008a970       ?DoDataExchange@CHuiYuanHyshjDlg@@MAEXPAVCDataExchange@@@Z 0048b970 f   HuiYuanHyshjDlg.obj
 0001:0008a970       ?DoDataExchange@CHuoDongZaJinDanDlg@@MAEXPAVCDataExchange@@@Z 0048b970 f   HuoDongZaJinDanDlg.obj
 0001:0008a9a0       ?GetMessageMap@CHuiYuanHyshjDlg@@MBEPBUAFX_MSGMAP@@XZ 0048b9a0 f   HuiYuanHyshjDlg.obj
 0001:0008a9c0       ?GetThisMessageMap@CHuiYuanHyshjDlg@@KGPBUAFX_MSGMAP@@XZ 0048b9c0 f   HuiYuanHyshjDlg.obj
 0001:0008a9e0       ?OnPaint@CHuiYuanHyshjDlg@@IAEXXZ 0048b9e0 f   HuiYuanHyshjDlg.obj
 0001:0008ad00       ?OnShowWindow@CHuiYuanHyshjDlg@@IAEXHI@Z 0048bd00 f   HuiYuanHyshjDlg.obj
 0001:0008adb0       ?OnInitDialog@CHuiYuanHyshjDlg@@MAEHXZ 0048bdb0 f   HuiYuanHyshjDlg.obj
 0001:0008aed0       ?OnEventMissionLink@CHuiYuanHyshjDlg@@UAE_NHH@Z 0048bed0 f   HuiYuanHyshjDlg.obj
 0001:0008af80       ?OnEventMissionRead@CHuiYuanHyshjDlg@@UAE_NUTCP_Command@@PAXG@Z 0048bf80 f   HuiYuanHyshjDlg.obj
 0001:0008b100       ?SendToServer@CHuiYuanHyshjDlg@@IAEXH@Z 0048c100 f   HuiYuanHyshjDlg.obj
 0001:0008b1f0       ??_ECHuiYuanHyshjDlg@@WHE@AEPAXI@Z 0048c1f0 f i HuiYuanHyshjDlg.obj
 0001:0008b200       ?GetRuntimeClass@CHuiYuanHyxxDlg@@UBEPAUCRuntimeClass@@XZ 0048c200 f   HuiYuanHyxxDlg.obj
 0001:0008b220       ??0CHuiYuanHyxxDlg@@QAE@PAVCWnd@@@Z 0048c220 f   HuiYuanHyxxDlg.obj
 0001:0008b440       ??_GCHuiYuanHyxxDlg@@UAEPAXI@Z 0048c440 f i HuiYuanHyxxDlg.obj
 0001:0008b440       ??_ECHuiYuanHyxxDlg@@UAEPAXI@Z 0048c440 f i HuiYuanHyxxDlg.obj
 0001:0008b480       ??1CHuiYuanHyxxDlg@@UAE@XZ 0048c480 f   HuiYuanHyxxDlg.obj
 0001:0008b630       ?DoDataExchange@CHuiYuanHyxxDlg@@MAEXPAVCDataExchange@@@Z 0048c630 f   HuiYuanHyxxDlg.obj
 0001:0008b770       ?GetMessageMap@CHuiYuanHyxxDlg@@MBEPBUAFX_MSGMAP@@XZ 0048c770 f   HuiYuanHyxxDlg.obj
 0001:0008b790       ?GetThisMessageMap@CHuiYuanHyxxDlg@@KGPBUAFX_MSGMAP@@XZ 0048c790 f   HuiYuanHyxxDlg.obj
 0001:0008b7b0       ?OnPaint@CHuiYuanHyxxDlg@@IAEXXZ 0048c7b0 f   HuiYuanHyxxDlg.obj
 0001:0008bb80       ?OnSize@CHuiYuanHyxxDlg@@IAEXIHH@Z 0048cb80 f   HuiYuanHyxxDlg.obj
 0001:0008bbc0       ?OnShowWindow@CHuiYuanHyxxDlg@@IAEXHI@Z 0048cbc0 f   HuiYuanHyxxDlg.obj
 0001:0008bd20       ?OnBnClickedBtnOk@CHuiYuanHyxxDlg@@IAEXXZ 0048cd20 f   HuiYuanHyxxDlg.obj
 0001:0008bf60       ?OnBnClickedBtnPrePage@CHuiYuanHyxxDlg@@IAEXXZ 0048cf60 f   HuiYuanHyxxDlg.obj
 0001:0008c050       ?OnBnClickedBtnNextPage@CHuiYuanHyxxDlg@@IAEXXZ 0048d050 f   HuiYuanHyxxDlg.obj
 0001:0008c140       ?OnHyxxChkxj@CHuiYuanHyxxDlg@@IAEXXZ 0048d140 f   HuiYuanHyxxDlg.obj
 0001:0008c280       ?OnHyxxXgfd@CHuiYuanHyxxDlg@@IAEXXZ 0048d280 f   HuiYuanHyxxDlg.obj
 0001:0008c440       ?OnHyxxSwdl@CHuiYuanHyxxDlg@@IAEXXZ 0048d440 f   HuiYuanHyxxDlg.obj
 0001:0008c4a0       ?OnNMRclickListLog@CHuiYuanHyxxDlg@@IAEXPAUtagNMHDR@@PAJ@Z 0048d4a0 f   HuiYuanHyxxDlg.obj
 0001:0008c580       ?OnInitDialog@CHuiYuanHyxxDlg@@MAEHXZ 0048d580 f   HuiYuanHyxxDlg.obj
 0001:0008c7a0       ?InitListCtrl@CHuiYuanHyxxDlg@@AAEXXZ 0048d7a0 f   HuiYuanHyxxDlg.obj
 0001:0008c900       ?AdjustCtrls@CHuiYuanHyxxDlg@@AAEXXZ 0048d900 f   HuiYuanHyxxDlg.obj
 0001:0008cae0       ?OnEventMissionLink@CHuiYuanHyxxDlg@@UAE_NHH@Z 0048dae0 f   HuiYuanHyxxDlg.obj
 0001:0008d150       ?OnEventMissionRead@CHuiYuanHyxxDlg@@UAE_NUTCP_Command@@PAXG@Z 0048e150 f   HuiYuanHyxxDlg.obj
 0001:0008d830       ?SendToServer@CHuiYuanHyxxDlg@@IAEXH@Z 0048e830 f   HuiYuanHyxxDlg.obj
 0001:0008d970       ??_ECHuiYuanHyxxDlg@@WHE@AEPAXI@Z 0048e970 f i HuiYuanHyxxDlg.obj
 0001:0008d980       ?GetRuntimeClass@CHuiYuanTjxjDlg@@UBEPAUCRuntimeClass@@XZ 0048e980 f   HuiYuanTjxjDlg.obj
 0001:0008d9a0       ??0CHuiYuanTjxjDlg@@QAE@PAVCWnd@@@Z 0048e9a0 f   HuiYuanTjxjDlg.obj
 0001:0008dc00       ??_GCHuiYuanTjxjDlg@@UAEPAXI@Z 0048ec00 f i HuiYuanTjxjDlg.obj
 0001:0008dc00       ??_ECHuiYuanTjxjDlg@@UAEPAXI@Z 0048ec00 f i HuiYuanTjxjDlg.obj
 0001:0008dc40       ??1CHuiYuanTjxjDlg@@UAE@XZ 0048ec40 f   HuiYuanTjxjDlg.obj
 0001:0008de80       ?DoDataExchange@CHuiYuanTjxjDlg@@MAEXPAVCDataExchange@@@Z 0048ee80 f   HuiYuanTjxjDlg.obj
 0001:0008e040       ?GetMessageMap@CHuiYuanTjxjDlg@@MBEPBUAFX_MSGMAP@@XZ 0048f040 f   HuiYuanTjxjDlg.obj
 0001:0008e060       ?GetThisMessageMap@CHuiYuanTjxjDlg@@KGPBUAFX_MSGMAP@@XZ 0048f060 f   HuiYuanTjxjDlg.obj
 0001:0008e080       ?OnPaint@CHuiYuanTjxjDlg@@IAEXXZ 0048f080 f   HuiYuanTjxjDlg.obj
 0001:0008e350       ?OnSize@CHuiYuanTjxjDlg@@IAEXIHH@Z 0048f350 f   HuiYuanTjxjDlg.obj
 0001:0008e390       ?OnShowWindow@CHuiYuanTjxjDlg@@IAEXHI@Z 0048f390 f   HuiYuanTjxjDlg.obj
 0001:0008e460       ?OnLButtonDown@CHuiYuanTjxjDlg@@IAEXIVCPoint@@@Z 0048f460 f   HuiYuanTjxjDlg.obj
 0001:0008e510       ?OnInitDialog@CHuiYuanTjxjDlg@@MAEHXZ 0048f510 f   HuiYuanTjxjDlg.obj
 0001:0008e790       ?OnBnClickedRioDaili@CHuiYuanTjxjDlg@@IAEXXZ 0048f790 f   HuiYuanTjxjDlg.obj
 0001:0008e7d0       ?OnBnClickedRioHuiyuan@CHuiYuanTjxjDlg@@IAEXXZ 0048f7d0 f   HuiYuanTjxjDlg.obj
 0001:0008e810       ?OnBnClickedSetWebFandian@CHuiYuanTjxjDlg@@IAEXXZ 0048f810 f   HuiYuanTjxjDlg.obj
 0001:0008e830       ?OnBnClickedSetMorenMima@CHuiYuanTjxjDlg@@IAEXXZ 0048f830 f   HuiYuanTjxjDlg.obj
 0001:0008e950       ?OnBnClickedBtnOk@CHuiYuanTjxjDlg@@IAEXXZ 0048f950 f   HuiYuanTjxjDlg.obj
 0001:0008efc0       ?OnBnClickedBtnCpRegurl@CHuiYuanTjxjDlg@@IAEXXZ 0048ffc0 f   HuiYuanTjxjDlg.obj
 0001:0008f1e0       ?AdjustCtrls@CHuiYuanTjxjDlg@@AAEXXZ 004901e0 f   HuiYuanTjxjDlg.obj
 0001:0008f550       ?EnableCtrls@CHuiYuanTjxjDlg@@AAEXH@Z 00490550 f   HuiYuanTjxjDlg.obj
 0001:0008f730       ?InitFanDianCmb@CHuiYuanTjxjDlg@@AAEXXZ 00490730 f   HuiYuanTjxjDlg.obj
 0001:0008f980       ?OnEventMissionLink@CHuiYuanTjxjDlg@@UAE_NHH@Z 00490980 f   HuiYuanTjxjDlg.obj
 0001:0008fd70       ?OnEventMissionRead@CHuiYuanTjxjDlg@@UAE_NUTCP_Command@@PAXG@Z 00490d70 f   HuiYuanTjxjDlg.obj
 0001:00090140       ?SendToServer@CHuiYuanTjxjDlg@@IAEXH@Z 00491140 f   HuiYuanTjxjDlg.obj
 0001:00090250       ??_ECHuiYuanTjxjDlg@@WHE@AEPAXI@Z 00491250 f i HuiYuanTjxjDlg.obj
 0001:00090260       ??0CComboBox@@QAE@XZ       00491260 f i HuiYuanTjxjDlg.obj
 0001:00090290       ??_ECComboBox@@UAEPAXI@Z   00491290 f i HuiYuanTjxjDlg.obj
 0001:00090290       ??_GCComboBox@@UAEPAXI@Z   00491290 f i HuiYuanTjxjDlg.obj
 0001:000902d0       ?ResetContent@CComboBox@@QAEXXZ 004912d0 f i HuiYuanTjxjDlg.obj
 0001:00090300       ?FindString@CComboBox@@QBEHHPB_W@Z 00491300 f i HuiYuanTjxjDlg.obj
 0001:00090330       ?GetRuntimeClass@CHuiYuanTxLogDlg@@UBEPAUCRuntimeClass@@XZ 00491330 f   HuiYuanTxLogDlg.obj
 0001:00090350       ??0CHuiYuanTxLogDlg@@QAE@PAVCWnd@@@Z 00491350 f   HuiYuanTxLogDlg.obj
 0001:00090550       ??_GCHuiYuanTxLogDlg@@UAEPAXI@Z 00491550 f i HuiYuanTxLogDlg.obj
 0001:00090550       ??_ECHuiYuanTxLogDlg@@UAEPAXI@Z 00491550 f i HuiYuanTxLogDlg.obj
 0001:00090590       ??1CHuiYuanTxLogDlg@@UAE@XZ 00491590 f   HuiYuanTxLogDlg.obj
 0001:00090740       ?GetMessageMap@CHuiYuanTxLogDlg@@MBEPBUAFX_MSGMAP@@XZ 00491740 f   HuiYuanTxLogDlg.obj
 0001:00090760       ?GetThisMessageMap@CHuiYuanTxLogDlg@@KGPBUAFX_MSGMAP@@XZ 00491760 f   HuiYuanTxLogDlg.obj
 0001:00090780       ?OnPaint@CHuiYuanTxLogDlg@@IAEXXZ 00491780 f   HuiYuanTxLogDlg.obj
 0001:00090ba0       ?OnSize@CHuiYuanXjtzhtjDlg@@IAEXIHH@Z 00491ba0 f   HuiYuanXjtzhtjDlg.obj
 0001:00090ba0       ?OnSize@CHuiYuanChzhLogDlg@@IAEXIHH@Z 00491ba0 f   HuiYuanChzhLogDlg.obj
 0001:00090ba0       ?OnSize@CHuiYuanYktjDlg@@IAEXIHH@Z 00491ba0 f   HuiYuanYktjDlg.obj
 0001:00090ba0       ?OnSize@CHuiYuanYkLogDlg@@IAEXIHH@Z 00491ba0 f   HuiYuanYkLogDlg.obj
 0001:00090ba0       ?OnSize@CHuiYuanTxLogDlg@@IAEXIHH@Z 00491ba0 f   HuiYuanTxLogDlg.obj
 0001:00090be0       ?OnBnClickedBtnOk@CHuiYuanTxLogDlg@@IAEXXZ 00491be0 f   HuiYuanTxLogDlg.obj
 0001:00090e20       ?OnBnClickedBtnPrePage@CHuiYuanTxLogDlg@@IAEXXZ 00491e20 f   HuiYuanTxLogDlg.obj
 0001:00090f00       ?OnBnClickedBtnNextPage@CHuiYuanTxLogDlg@@IAEXXZ 00491f00 f   HuiYuanTxLogDlg.obj
 0001:00090fe0       ?OnXjtxlogChkxj@CHuiYuanTxLogDlg@@IAEXXZ 00491fe0 f   HuiYuanTxLogDlg.obj
 0001:00091040       ?OnInitDialog@CHuiYuanTxLogDlg@@MAEHXZ 00492040 f   HuiYuanTxLogDlg.obj
 0001:00091260       ?InitListCtrl@CHuiYuanTxLogDlg@@AAEXXZ 00492260 f   HuiYuanTxLogDlg.obj
 0001:000913d0       ?AdjustCtrls@CHuiYuanTxLogDlg@@AAEXXZ 004923d0 f   HuiYuanTxLogDlg.obj
 0001:000913d0       ?AdjustCtrls@CHuiYuanChzhLogDlg@@AAEXXZ 004923d0 f   HuiYuanChzhLogDlg.obj
 0001:000913d0       ?AdjustCtrls@CHuiYuanXjtzhtjDlg@@AAEXXZ 004923d0 f   HuiYuanXjtzhtjDlg.obj
 0001:000913d0       ?AdjustCtrls@CHuiYuanYktjDlg@@AAEXXZ 004923d0 f   HuiYuanYktjDlg.obj
 0001:000913d0       ?AdjustCtrls@CHuiYuanYkLogDlg@@AAEXXZ 004923d0 f   HuiYuanYkLogDlg.obj
 0001:000915b0       ?OnEventMissionLink@CHuiYuanTxLogDlg@@UAE_NHH@Z 004925b0 f   HuiYuanTxLogDlg.obj
 0001:00091aa0       ?OnEventMissionRead@CHuiYuanTxLogDlg@@UAE_NUTCP_Command@@PAXG@Z 00492aa0 f   HuiYuanTxLogDlg.obj
 0001:00091e80       ??_ECHuiYuanTxLogDlg@@WHE@AEPAXI@Z 00492e80 f i HuiYuanTxLogDlg.obj
 0001:00091e90       ?GetRuntimeClass@CHuiYuanXjtzhtjDlg@@UBEPAUCRuntimeClass@@XZ 00492e90 f   HuiYuanXjtzhtjDlg.obj
 0001:00091eb0       ??0CHuiYuanXjtzhtjDlg@@QAE@PAVCWnd@@@Z 00492eb0 f   HuiYuanXjtzhtjDlg.obj
 0001:000920b0       ??_GCHuiYuanXjtzhtjDlg@@UAEPAXI@Z 004930b0 f i HuiYuanXjtzhtjDlg.obj
 0001:000920b0       ??_ECHuiYuanXjtzhtjDlg@@UAEPAXI@Z 004930b0 f i HuiYuanXjtzhtjDlg.obj
 0001:000920f0       ??1CHuiYuanXjtzhtjDlg@@UAE@XZ 004930f0 f   HuiYuanXjtzhtjDlg.obj
 0001:000922a0       ?GetMessageMap@CHuiYuanXjtzhtjDlg@@MBEPBUAFX_MSGMAP@@XZ 004932a0 f   HuiYuanXjtzhtjDlg.obj
 0001:000922c0       ?GetThisMessageMap@CHuiYuanXjtzhtjDlg@@KGPBUAFX_MSGMAP@@XZ 004932c0 f   HuiYuanXjtzhtjDlg.obj
 0001:000922e0       ?OnPaint@CHuiYuanXjtzhtjDlg@@IAEXXZ 004932e0 f   HuiYuanXjtzhtjDlg.obj
 0001:000926b0       ?OnShowWindow@CHuiYuanXjtzhtjDlg@@IAEXHI@Z 004936b0 f   HuiYuanXjtzhtjDlg.obj
 0001:000927d0       ?OnBnClickedBtnOk@CHuiYuanXjtzhtjDlg@@IAEXXZ 004937d0 f   HuiYuanXjtzhtjDlg.obj
 0001:00092a20       ?OnBnClickedBtnPrePage@CHuiYuanXjtzhtjDlg@@IAEXXZ 00493a20 f   HuiYuanXjtzhtjDlg.obj
 0001:00092b10       ?OnBnClickedBtnNextPage@CHuiYuanXjtzhtjDlg@@IAEXXZ 00493b10 f   HuiYuanXjtzhtjDlg.obj
 0001:00092c00       ?OnXjtzhtjChkmx@CHuiYuanXjtzhtjDlg@@IAEXXZ 00493c00 f   HuiYuanXjtzhtjDlg.obj
 0001:00092c80       ?OnNMLclickListLog@CHuiYuanXjtzhtjDlg@@IAEXPAUtagNMHDR@@PAJ@Z 00493c80 f   HuiYuanXjtzhtjDlg.obj
 0001:00092c80       ?OnNMRClickListLog@CHuiYuanXjtzhtjDlg@@IAEXPAUtagNMHDR@@PAJ@Z 00493c80 f   HuiYuanXjtzhtjDlg.obj
 0001:00092c80       ?OnNMRClickListLog@CHuiYuanYktjDlg@@IAEXPAUtagNMHDR@@PAJ@Z 00493c80 f   HuiYuanYktjDlg.obj
 0001:00092d40       ?OnInitDialog@CHuiYuanXjtzhtjDlg@@MAEHXZ 00493d40 f   HuiYuanXjtzhtjDlg.obj
 0001:00092f60       ?InitListCtrl@CHuiYuanXjtzhtjDlg@@AAEXXZ 00493f60 f   HuiYuanXjtzhtjDlg.obj
 0001:00093080       ?OnEventMissionLink@CHuiYuanXjtzhtjDlg@@UAE_NHH@Z 00494080 f   HuiYuanXjtzhtjDlg.obj
 0001:000935c0       ?OnEventMissionRead@CHuiYuanXjtzhtjDlg@@UAE_NUTCP_Command@@PAXG@Z 004945c0 f   HuiYuanXjtzhtjDlg.obj
 0001:000938e0       ??_ECHuiYuanXjtzhtjDlg@@WHE@AEPAXI@Z 004948e0 f i HuiYuanXjtzhtjDlg.obj
 0001:000938f0       ?GetRuntimeClass@CHuiYuanYkLogDlg@@UBEPAUCRuntimeClass@@XZ 004948f0 f   HuiYuanYkLogDlg.obj
 0001:00093910       ??0CHuiYuanYkLogDlg@@QAE@PAVCWnd@@@Z 00494910 f   HuiYuanYkLogDlg.obj
 0001:00093b10       ??_GCHuiYuanYkLogDlg@@UAEPAXI@Z 00494b10 f i HuiYuanYkLogDlg.obj
 0001:00093b10       ??_ECHuiYuanYkLogDlg@@UAEPAXI@Z 00494b10 f i HuiYuanYkLogDlg.obj
 0001:00093b50       ??1CHuiYuanYkLogDlg@@UAE@XZ 00494b50 f   HuiYuanYkLogDlg.obj
 0001:00093d00       ?GetMessageMap@CHuiYuanYkLogDlg@@MBEPBUAFX_MSGMAP@@XZ 00494d00 f   HuiYuanYkLogDlg.obj
 0001:00093d20       ?GetThisMessageMap@CHuiYuanYkLogDlg@@KGPBUAFX_MSGMAP@@XZ 00494d20 f   HuiYuanYkLogDlg.obj
 0001:00093d40       ?OnPaint@CHuiYuanYkLogDlg@@IAEXXZ 00494d40 f   HuiYuanYkLogDlg.obj
 0001:00094150       ?OnShowWindow@CHuiYuanYkLogDlg@@IAEXHI@Z 00495150 f   HuiYuanYkLogDlg.obj
 0001:00094270       ?OnBnClickedBtnOk@CHuiYuanYkLogDlg@@IAEXXZ 00495270 f   HuiYuanYkLogDlg.obj
 0001:000944b0       ?OnBnClickedBtnPrePage@CHuiYuanYkLogDlg@@IAEXXZ 004954b0 f   HuiYuanYkLogDlg.obj
 0001:000945a0       ?OnBnClickedBtnNextPage@CHuiYuanYkLogDlg@@IAEXXZ 004955a0 f   HuiYuanYkLogDlg.obj
 0001:00094690       ?OnXjchzhlogChkxj@CHuiYuanChzhLogDlg@@IAEXXZ 00495690 f   HuiYuanChzhLogDlg.obj
 0001:00094690       ?OnYklogChkxj@CHuiYuanYkLogDlg@@IAEXXZ 00495690 f   HuiYuanYkLogDlg.obj
 0001:00094700       ?OnInitDialog@CHuiYuanYkLogDlg@@MAEHXZ 00495700 f   HuiYuanYkLogDlg.obj
 0001:00094920       ?InitListCtrl@CHuiYuanYkLogDlg@@AAEXXZ 00495920 f   HuiYuanYkLogDlg.obj
 0001:00094a60       ?OnEventMissionLink@CHuiYuanYkLogDlg@@UAE_NHH@Z 00495a60 f   HuiYuanYkLogDlg.obj
 0001:00094f70       ?OnEventMissionRead@CHuiYuanYkLogDlg@@UAE_NUTCP_Command@@PAXG@Z 00495f70 f   HuiYuanYkLogDlg.obj
 0001:000956e0       ?SendToServer@CHuiYuanTxLogDlg@@IAEXH@Z 004966e0 f   HuiYuanTxLogDlg.obj
 0001:000956e0       ?SendToServer@CHuiYuanXjtzhtjDlg@@IAEXH@Z 004966e0 f   HuiYuanXjtzhtjDlg.obj
 0001:000956e0       ?SendToServer@CHuiYuanYkLogDlg@@IAEXH@Z 004966e0 f   HuiYuanYkLogDlg.obj
 0001:000956e0       ?SendToServer@CHuiYuanYktjDlg@@IAEXH@Z 004966e0 f   HuiYuanYktjDlg.obj
 0001:000956e0       ?SendToServer@CHuiYuanChzhLogDlg@@IAEXH@Z 004966e0 f   HuiYuanChzhLogDlg.obj
 0001:00095800       ?QueryXJYKMX@CHuiYuanYkLogDlg@@QAEXH@Z 00496800 f   HuiYuanYkLogDlg.obj
 0001:00095870       ??_ECHuiYuanYkLogDlg@@WHE@AEPAXI@Z 00496870 f i HuiYuanYkLogDlg.obj
 0001:00095880       ?GetRuntimeClass@CHuiYuanYktjDlg@@UBEPAUCRuntimeClass@@XZ 00496880 f   HuiYuanYktjDlg.obj
 0001:000958a0       ??0CHuiYuanYktjDlg@@QAE@PAVCWnd@@@Z 004968a0 f   HuiYuanYktjDlg.obj
 0001:00095aa0       ??_GCHuiYuanYktjDlg@@UAEPAXI@Z 00496aa0 f i HuiYuanYktjDlg.obj
 0001:00095aa0       ??_ECHuiYuanYktjDlg@@UAEPAXI@Z 00496aa0 f i HuiYuanYktjDlg.obj
 0001:00095ae0       ??1CHuiYuanYktjDlg@@UAE@XZ 00496ae0 f   HuiYuanYktjDlg.obj
 0001:00095c90       ?DoDataExchange@CHuiYuanYkLogDlg@@MAEXPAVCDataExchange@@@Z 00496c90 f   HuiYuanYkLogDlg.obj
 0001:00095c90       ?DoDataExchange@CHuiYuanXjtzhtjDlg@@MAEXPAVCDataExchange@@@Z 00496c90 f   HuiYuanXjtzhtjDlg.obj
 0001:00095c90       ?DoDataExchange@CHuiYuanTxLogDlg@@MAEXPAVCDataExchange@@@Z 00496c90 f   HuiYuanTxLogDlg.obj
 0001:00095c90       ?DoDataExchange@CHuiYuanYktjDlg@@MAEXPAVCDataExchange@@@Z 00496c90 f   HuiYuanYktjDlg.obj
 0001:00095c90       ?DoDataExchange@CHuiYuanChzhLogDlg@@MAEXPAVCDataExchange@@@Z 00496c90 f   HuiYuanChzhLogDlg.obj
 0001:00095dd0       ?GetMessageMap@CHuiYuanYktjDlg@@MBEPBUAFX_MSGMAP@@XZ 00496dd0 f   HuiYuanYktjDlg.obj
 0001:00095df0       ?GetThisMessageMap@CHuiYuanYktjDlg@@KGPBUAFX_MSGMAP@@XZ 00496df0 f   HuiYuanYktjDlg.obj
 0001:00095e10       ?OnPaint@CHuiYuanYktjDlg@@IAEXXZ 00496e10 f   HuiYuanYktjDlg.obj
 0001:000961e0       ?OnShowWindow@CHuiYuanYktjDlg@@IAEXHI@Z 004971e0 f   HuiYuanYktjDlg.obj
 0001:00096310       ?OnBnClickedBtnOk@CHuiYuanYktjDlg@@IAEXXZ 00497310 f   HuiYuanYktjDlg.obj
 0001:00096560       ?OnBnClickedBtnPrePage@CHuiYuanYktjDlg@@IAEXXZ 00497560 f   HuiYuanYktjDlg.obj
 0001:00096650       ?OnBnClickedBtnNextPage@CHuiYuanYktjDlg@@IAEXXZ 00497650 f   HuiYuanYktjDlg.obj
 0001:00096740       ?OnXjyktjChkxx@CHuiYuanYktjDlg@@IAEXXZ 00497740 f   HuiYuanYktjDlg.obj
 0001:00096740       ?OnXjtzhtjChkxj@CHuiYuanXjtzhtjDlg@@IAEXXZ 00497740 f   HuiYuanXjtzhtjDlg.obj
 0001:00096880       ?OnXjyktjChkmx@CHuiYuanYktjDlg@@IAEXXZ 00497880 f   HuiYuanYktjDlg.obj
 0001:00096900       ?OnNMLclickListLog@CHuiYuanYktjDlg@@IAEXPAUtagNMHDR@@PAJ@Z 00497900 f   HuiYuanYktjDlg.obj
 0001:000969b0       ?OnInitDialog@CHuiYuanYktjDlg@@MAEHXZ 004979b0 f   HuiYuanYktjDlg.obj
 0001:00096bd0       ?InitListCtrl@CHuiYuanYktjDlg@@AAEXXZ 00497bd0 f   HuiYuanYktjDlg.obj
 0001:00096d70       ?EnAbleCtrls@CHuiYuanHyxxDlg@@AAEX_N@Z 00497d70 f   HuiYuanHyxxDlg.obj
 0001:00096d70       ?EnAbleCtrls@CHuiYuanTxLogDlg@@AAEX_N@Z 00497d70 f   HuiYuanTxLogDlg.obj
 0001:00096d70       ?EnAbleCtrls@CHuiYuanXjtzhtjDlg@@AAEX_N@Z 00497d70 f   HuiYuanXjtzhtjDlg.obj
 0001:00096d70       ?EnAbleCtrls@CHuiYuanYktjDlg@@AAEX_N@Z 00497d70 f   HuiYuanYktjDlg.obj
 0001:00096d70       ?EnAbleCtrls@CHuiYuanChzhLogDlg@@AAEX_N@Z 00497d70 f   HuiYuanChzhLogDlg.obj
 0001:00096db0       ?OnEventMissionLink@CHuiYuanYktjDlg@@UAE_NHH@Z 00497db0 f   HuiYuanYktjDlg.obj
 0001:000972b0       ?OnEventMissionShut@CShanDong11X5@@UAE_NE@Z 004982b0 f   ShanDong11X5.obj
 0001:000972b0       ?OnEventMissionShut@CGuangDong11X5@@UAE_NE@Z 004982b0 f   GuangDong11X5.obj
 0001:000972b0       ?OnEventMissionShut@CTzhxxDlg@@UAE_NE@Z 004982b0 f   TzhxxDlg.obj
 0001:000972b0       ?OnEventMissionShut@CHuiYuanTxLogDlg@@UAE_NE@Z 004982b0 f   HuiYuanTxLogDlg.obj
 0001:000972b0       ?OnEventMissionShut@CHuiYuanTjxjDlg@@UAE_NE@Z 004982b0 f   HuiYuanTjxjDlg.obj
 0001:000972b0       ?OnEventMissionShut@CHuiYuanChzhLogDlg@@UAE_NE@Z 004982b0 f   HuiYuanChzhLogDlg.obj
 0001:000972b0       ?OnEventMissionShut@CHuiYuanChkxjtzhDlg@@UAE_NE@Z 004982b0 f   HuiYuanChkxjtzhDlg.obj
 0001:000972b0       ?OnEventMissionShut@CHuiYuanHyxxDlg@@UAE_NE@Z 004982b0 f   HuiYuanHyxxDlg.obj
 0001:000972b0       ?OnEventMissionShut@CHuiYuanYktjDlg@@UAE_NE@Z 004982b0 f   HuiYuanYktjDlg.obj
 0001:000972b0       ?OnEventMissionShut@CHuiYuanXjtzhtjDlg@@UAE_NE@Z 004982b0 f   HuiYuanXjtzhtjDlg.obj
 0001:000972b0       ?OnEventMissionShut@CHuoDongDaliBaoDlg@@UAE_NE@Z 004982b0 f   HuoDongDaliBaoDlg.obj
 0001:000972b0       ?OnEventMissionShut@CChongQing11X5@@UAE_NE@Z 004982b0 f   ChongQing11X5.obj
 0001:000972b0       ?OnEventMissionShut@CHuiYuanHyshjDlg@@UAE_NE@Z 004982b0 f   HuiYuanHyshjDlg.obj
 0001:000972b0       ?OnEventMissionShut@CJiangXi11X5@@UAE_NE@Z 004982b0 f   JiangXi11X5.obj
 0001:000972b0       ?OnEventMissionShut@CHuiYuanYkLogDlg@@UAE_NE@Z 004982b0 f   HuiYuanYkLogDlg.obj
 0001:000972b0       ?OnEventMissionShut@CChongZhiDlg@@UAE_NE@Z 004982b0 f   ChongZhiDlg.obj
 0001:00097310       ?OnEventMissionRead@CHuiYuanYktjDlg@@UAE_NUTCP_Command@@PAXG@Z 00498310 f   HuiYuanYktjDlg.obj
 0001:00097b10       ??_ECHuiYuanYktjDlg@@WHE@AEPAXI@Z 00498b10 f i HuiYuanYktjDlg.obj
 0001:00097b20       ?GetRuntimeClass@CHuoDongDaliBaoDlg@@UBEPAUCRuntimeClass@@XZ 00498b20 f   HuoDongDaliBaoDlg.obj
 0001:00097b40       ??0CHuoDongDaliBaoDlg@@QAE@PAVCWnd@@@Z 00498b40 f   HuoDongDaliBaoDlg.obj
 0001:00097c40       ??_GCHuoDongDaliBaoDlg@@UAEPAXI@Z 00498c40 f i HuoDongDaliBaoDlg.obj
 0001:00097c40       ??_ECHuoDongDaliBaoDlg@@UAEPAXI@Z 00498c40 f i HuoDongDaliBaoDlg.obj
 0001:00097c80       ??1CHuoDongDaliBaoDlg@@UAE@XZ 00498c80 f   HuoDongDaliBaoDlg.obj
 0001:00097d90       ?DoDataExchange@CHuoDongDaliBaoDlg@@MAEXPAVCDataExchange@@@Z 00498d90 f   HuoDongDaliBaoDlg.obj
 0001:00097dd0       ?GetMessageMap@CHuoDongDaliBaoDlg@@MBEPBUAFX_MSGMAP@@XZ 00498dd0 f   HuoDongDaliBaoDlg.obj
 0001:00097df0       ?GetThisMessageMap@CHuoDongDaliBaoDlg@@KGPBUAFX_MSGMAP@@XZ 00498df0 f   HuoDongDaliBaoDlg.obj
 0001:00097e10       ?OnInitDialog@CHuoDongDaliBaoDlg@@MAEHXZ 00498e10 f   HuoDongDaliBaoDlg.obj
 0001:00097f80       ?OnPaint@CHuoDongDaliBaoDlg@@IAEXXZ 00498f80 f   HuoDongDaliBaoDlg.obj
 0001:00098270       ?OnSize@CHuoDongDaliBaoDlg@@IAEXIHH@Z 00499270 f   HuoDongDaliBaoDlg.obj
 0001:00098300       ?OnBnClickedLingJiang@CHuoDongDaliBaoDlg@@IAEXXZ 00499300 f   HuoDongDaliBaoDlg.obj
 0001:00098330       ?OnShowWindow@CHuoDongDaliBaoDlg@@IAEXHI@Z 00499330 f   HuoDongDaliBaoDlg.obj
 0001:000983e0       ?OnEventMissionLink@CHuoDongDaliBaoDlg@@UAE_NHH@Z 004993e0 f   HuoDongDaliBaoDlg.obj
 0001:00098540       ?OnEventMissionRead@CHuoDongDaliBaoDlg@@UAE_NUTCP_Command@@PAXG@Z 00499540 f   HuoDongDaliBaoDlg.obj
 0001:00098740       ?SendToServer@CHuoDongDaliBaoDlg@@QAEXH@Z 00499740 f   HuoDongDaliBaoDlg.obj
 0001:00098860       ??_ECHuoDongDaliBaoDlg@@WHE@AEPAXI@Z 00499860 f i HuoDongDaliBaoDlg.obj
 0001:00098870       ?GetRuntimeClass@CHuoDongDlg@@UBEPAUCRuntimeClass@@XZ 00499870 f   HuoDongDlg.obj
 0001:00098890       ??0CHuoDongDlg@@QAE@PAVCWnd@@@Z 00499890 f   HuoDongDlg.obj
 0001:000989a0       ??_GCHuoDongDlg@@UAEPAXI@Z 004999a0 f i HuoDongDlg.obj
 0001:000989a0       ??_ECHuoDongDlg@@UAEPAXI@Z 004999a0 f i HuoDongDlg.obj
 0001:000989e0       ??1CHuoDongDlg@@UAE@XZ     004999e0 f   HuoDongDlg.obj
 0001:00098b10       ?OnShowWindow@CHuoDongDlg@@IAEXHI@Z 00499b10 f   HuoDongDlg.obj
 0001:00098b50       ?DoDataExchange@CHuoDongDlg@@MAEXPAVCDataExchange@@@Z 00499b50 f   HuoDongDlg.obj
 0001:00098bd0       ?GetMessageMap@CHuoDongDlg@@MBEPBUAFX_MSGMAP@@XZ 00499bd0 f   HuoDongDlg.obj
 0001:00098bf0       ?GetThisMessageMap@CHuoDongDlg@@KGPBUAFX_MSGMAP@@XZ 00499bf0 f   HuoDongDlg.obj
 0001:00098c10       ?OnInitDialog@CHuoDongDlg@@MAEHXZ 00499c10 f   HuoDongDlg.obj
 0001:00098ee0       ?OnSize@CHuoDongDlg@@IAEXIHH@Z 00499ee0 f   HuoDongDlg.obj
 0001:00098f20       ?OnBnClickedBtnDalibao@CHuoDongDlg@@IAEXXZ 00499f20 f   HuoDongDlg.obj
 0001:00098fb0       ?OnBnClickedBtnZajindan@CHuoDongDlg@@IAEXXZ 00499fb0 f   HuoDongDlg.obj
 0001:00099040       ?OnBnClickedBtnHuanlesong@CHuoDongDlg@@IAEXXZ 0049a040 f   HuoDongDlg.obj
 0001:000990d0       ?OnBnClickedBtnZhuanzhuan@CHuoDongDlg@@IAEXXZ 0049a0d0 f   HuoDongDlg.obj
 0001:00099160       ?AdjustCtrls@CHuoDongDlg@@AAEXXZ 0049a160 f   HuoDongDlg.obj
 0001:00099360       ?GetRuntimeClass@CHuoDongHuanLeSongDlg@@UBEPAUCRuntimeClass@@XZ 0049a360 f   HuoDongHuanLeLingDlg.obj
 0001:00099380       ??0CHuoDongHuanLeSongDlg@@QAE@PAVCWnd@@@Z 0049a380 f   HuoDongHuanLeLingDlg.obj
 0001:000994b0       ??_GCHuoDongHuanLeSongDlg@@UAEPAXI@Z 0049a4b0 f i HuoDongHuanLeLingDlg.obj
 0001:000994b0       ??_ECHuoDongHuanLeSongDlg@@UAEPAXI@Z 0049a4b0 f i HuoDongHuanLeLingDlg.obj
 0001:000994f0       ??1CHuoDongHuanLeSongDlg@@UAE@XZ 0049a4f0 f   HuoDongHuanLeLingDlg.obj
 0001:00099610       ?DoDataExchange@CHuoDongHuanLeSongDlg@@MAEXPAVCDataExchange@@@Z 0049a610 f   HuoDongHuanLeLingDlg.obj
 0001:00099660       ?GetMessageMap@CHuoDongHuanLeSongDlg@@MBEPBUAFX_MSGMAP@@XZ 0049a660 f   HuoDongHuanLeLingDlg.obj
 0001:00099680       ?GetThisMessageMap@CHuoDongHuanLeSongDlg@@KGPBUAFX_MSGMAP@@XZ 0049a680 f   HuoDongHuanLeLingDlg.obj
 0001:000996a0       ?OnInitDialog@CHuoDongHuanLeSongDlg@@MAEHXZ 0049a6a0 f   HuoDongHuanLeLingDlg.obj
 0001:00099880       ?OnPaint@CHuoDongHuanLeSongDlg@@IAEXXZ 0049a880 f   HuoDongHuanLeLingDlg.obj
 0001:00099bf0       ?OnSize@CHuoDongHuanLeSongDlg@@IAEXIHH@Z 0049abf0 f   HuoDongHuanLeLingDlg.obj
 0001:00099cd0       ?OnBnClickedBtnQiandao@CHuoDongHuanLeSongDlg@@AAEXXZ 0049acd0 f   HuoDongHuanLeLingDlg.obj
 0001:00099cf0       ?OnBnClickedBtnLingjiang@CHuoDongHuanLeSongDlg@@AAEXXZ 0049acf0 f   HuoDongHuanLeLingDlg.obj
 0001:00099d20       ?GetUserHuanlesongInfo@CHuoDongHuanLeSongDlg@@QAEXXZ 0049ad20 f   HuoDongHuanLeLingDlg.obj
 0001:00099d40       ?OnShowWindow@CHuoDongHuanLeSongDlg@@IAEXHI@Z 0049ad40 f   HuoDongHuanLeLingDlg.obj
 0001:00099df0       ?OnEventMissionLink@CHuoDongHuanLeSongDlg@@UAE_NHH@Z 0049adf0 f   HuoDongHuanLeLingDlg.obj
 0001:00099f50       ?OnEventMissionRead@CHuoDongHuanLeSongDlg@@UAE_NUTCP_Command@@PAXG@Z 0049af50 f   HuoDongHuanLeLingDlg.obj
 0001:0009a2b0       ?SendToServer@CHuoDongHuanLeSongDlg@@QAEXH@Z 0049b2b0 f   HuoDongHuanLeLingDlg.obj
 0001:0009a3c0       ??_ECHuoDongHuanLeSongDlg@@WHE@AEPAXI@Z 0049b3c0 f i HuoDongHuanLeLingDlg.obj
 0001:0009a3d0       ?GetRuntimeClass@CHuoDongZaJinDanDlg@@UBEPAUCRuntimeClass@@XZ 0049b3d0 f   HuoDongZaJinDanDlg.obj
 0001:0009a3f0       ??0CHuoDongZaJinDanDlg@@QAE@PAVCWnd@@@Z 0049b3f0 f   HuoDongZaJinDanDlg.obj
 0001:0009a540       ??_GCHuoDongZaJinDanDlg@@UAEPAXI@Z 0049b540 f i HuoDongZaJinDanDlg.obj
 0001:0009a540       ??_ECHuoDongZaJinDanDlg@@UAEPAXI@Z 0049b540 f i HuoDongZaJinDanDlg.obj
 0001:0009a580       ??1CHuoDongZaJinDanDlg@@UAE@XZ 0049b580 f   HuoDongZaJinDanDlg.obj
 0001:0009a660       ?GetMessageMap@CHuoDongZaJinDanDlg@@MBEPBUAFX_MSGMAP@@XZ 0049b660 f   HuoDongZaJinDanDlg.obj
 0001:0009a680       ?GetThisMessageMap@CHuoDongZaJinDanDlg@@KGPBUAFX_MSGMAP@@XZ 0049b680 f   HuoDongZaJinDanDlg.obj
 0001:0009a6a0       ?OnInitDialog@CHuoDongZaJinDanDlg@@MAEHXZ 0049b6a0 f   HuoDongZaJinDanDlg.obj
 0001:0009b830       ?OnPaint@CHuoDongZaJinDanDlg@@IAEXXZ 0049c830 f   HuoDongZaJinDanDlg.obj
 0001:0009ba30       ?OnTimer@CHuoDongZaJinDanDlg@@IAEXI@Z 0049ca30 f   HuoDongZaJinDanDlg.obj
 0001:0009bf90       ?OnShowWindow@CHuoDongZaJinDanDlg@@IAEXHI@Z 0049cf90 f   HuoDongZaJinDanDlg.obj
 0001:0009c060       ?OnLButtonDown@CHuoDongZaJinDanDlg@@IAEXIVCPoint@@@Z 0049d060 f   HuoDongZaJinDanDlg.obj
 0001:0009c320       ?DrawJinDanImage@CHuoDongZaJinDanDlg@@AAEXAAVGraphics@Gdiplus@@@Z 0049d320 f   HuoDongZaJinDanDlg.obj
 0001:0009c3f0       ?DrawYinDanImage@CHuoDongZaJinDanDlg@@AAEXAAVGraphics@Gdiplus@@@Z 0049d3f0 f   HuoDongZaJinDanDlg.obj
 0001:0009c4c0       ?DrawTongDanImage@CHuoDongZaJinDanDlg@@AAEXAAVGraphics@Gdiplus@@@Z 0049d4c0 f   HuoDongZaJinDanDlg.obj
 0001:0009c590       ?Getjiangjin@CHuoDongZaJinDanDlg@@AAEXH@Z 0049d590 f   HuoDongZaJinDanDlg.obj
 0001:0009c5d0       ?OnEventMissionLink@CHuoDongZaJinDanDlg@@UAE_NHH@Z 0049d5d0 f   HuoDongZaJinDanDlg.obj
 0001:0009c740       ?OnEventMissionRead@CHuoDongZaJinDanDlg@@UAE_NUTCP_Command@@PAXG@Z 0049d740 f   HuoDongZaJinDanDlg.obj
 0001:0009c8d0       ?SendToServer@CHuoDongZaJinDanDlg@@QAEXH@Z 0049d8d0 f   HuoDongZaJinDanDlg.obj
 0001:0009c9e0       ??_ECHuoDongZaJinDanDlg@@WHE@AEPAXI@Z 0049d9e0 f i HuoDongZaJinDanDlg.obj
 0001:0009c9f0       ?GetRuntimeClass@HuodongZhuanzhuan@@UBEPAUCRuntimeClass@@XZ 0049d9f0 f   HuodongZhuanzhuan.obj
 0001:0009ca10       ??0HuodongZhuanzhuan@@QAE@PAVCWnd@@@Z 0049da10 f   HuodongZhuanzhuan.obj
 0001:0009caf0       ??_EHuodongZhuanzhuan@@UAEPAXI@Z 0049daf0 f i HuodongZhuanzhuan.obj
 0001:0009caf0       ??_GHuodongZhuanzhuan@@UAEPAXI@Z 0049daf0 f i HuodongZhuanzhuan.obj
 0001:0009cb30       ??1HuodongZhuanzhuan@@UAE@XZ 0049db30 f   HuodongZhuanzhuan.obj
 0001:0009cc40       ?DoDataExchange@HuodongZhuanzhuan@@MAEXPAVCDataExchange@@@Z 0049dc40 f   HuodongZhuanzhuan.obj
 0001:0009cc80       ?GetMessageMap@HuodongZhuanzhuan@@MBEPBUAFX_MSGMAP@@XZ 0049dc80 f   HuodongZhuanzhuan.obj
 0001:0009cca0       ?GetThisMessageMap@HuodongZhuanzhuan@@KGPBUAFX_MSGMAP@@XZ 0049dca0 f   HuodongZhuanzhuan.obj
 0001:0009ccc0       ?OnInitDialog@HuodongZhuanzhuan@@MAEHXZ 0049dcc0 f   HuodongZhuanzhuan.obj
 0001:0009ce30       ?OnPaint@HuodongZhuanzhuan@@IAEXXZ 0049de30 f   HuodongZhuanzhuan.obj
 0001:0009d080       ?OnSize@HuodongZhuanzhuan@@IAEXIHH@Z 0049e080 f   HuodongZhuanzhuan.obj
 0001:0009d110       ?OnShowWindow@HuodongZhuanzhuan@@IAEXHI@Z 0049e110 f   HuodongZhuanzhuan.obj
 0001:0009d1c0       ?OnBnClickedBtChouJiang@HuodongZhuanzhuan@@IAEXXZ 0049e1c0 f   HuodongZhuanzhuan.obj
 0001:0009d280       ?OnEventMissionLink@HuodongZhuanzhuan@@UAE_NHH@Z 0049e280 f   HuodongZhuanzhuan.obj
 0001:0009d3e0       ?OnEventMissionShut@CHuoDongHuanLeSongDlg@@UAE_NE@Z 0049e3e0 f   HuoDongHuanLeLingDlg.obj
 0001:0009d3e0       ?OnEventMissionShut@HuodongZhuanzhuan@@UAE_NE@Z 0049e3e0 f   HuodongZhuanzhuan.obj
 0001:0009d3e0       ?OnEventMissionShut@CZhangHuTzhLogDlg@@UAE_NE@Z 0049e3e0 f   ZhangHuTzhLogDlg.obj
 0001:0009d3e0       ?OnEventMissionShut@CZhangHuYkMXDlg@@UAE_NE@Z 0049e3e0 f   ZhangHuYkMXDlg.obj
 0001:0009d3e0       ?OnEventMissionShut@CHuoDongZaJinDanDlg@@UAE_NE@Z 0049e3e0 f   HuoDongZaJinDanDlg.obj
 0001:0009d3e0       ?OnEventMissionShut@CZhangHuYkLogDlg@@UAE_NE@Z 0049e3e0 f   ZhangHuYkLogDlg.obj
 0001:0009d3e0       ?OnEventMissionShut@CZhangHuZhhbhDlg@@UAE_NE@Z 0049e3e0 f   ZhangHuZhhbhDlg.obj
 0001:0009d3e0       ?OnEventMissionShut@CQuKuanDlg@@UAE_NE@Z 0049e3e0 f   QuKuanDlg.obj
 0001:0009d3e0       ?OnEventMissionShut@CZhangHuTxLogDlg@@UAE_NE@Z 0049e3e0 f   ZhangHuTxLogDlg.obj
 0001:0009d3e0       ?OnEventMissionShut@CZhangHuXgmmDlg@@UAE_NE@Z 0049e3e0 f   ZhangHuXgmmDlg.obj
 0001:0009d3e0       ?OnEventMissionShut@CZhangHuChzhLogDlg@@UAE_NE@Z 0049e3e0 f   ZhangHuChzhLogDlg.obj
 0001:0009d3e0       ?OnEventMissionShut@CTiShiDlg@@UAE_NE@Z 0049e3e0 f   TiShiDlg.obj
 0001:0009d3e0       ?OnEventMissionShut@CZhangHuQPYkDlg@@UAE_NE@Z 0049e3e0 f   ZhangHuQPYkDlg.obj
 0001:0009d3e0       ?OnEventMissionShut@CZhangHuBaseInfoDlg@@UAE_NE@Z 0049e3e0 f   ZhangHuBaseInfoDlg.obj
 0001:0009d3e0       ?OnEventMissionShut@CZhangHuShZhTkZhhDlg@@UAE_NE@Z 0049e3e0 f   ZhangHuShZhTkZhhDlg.obj
 0001:0009d480       ?OnEventMissionRead@HuodongZhuanzhuan@@UAE_NUTCP_Command@@PAXG@Z 0049e480 f   HuodongZhuanzhuan.obj
 0001:0009d6e0       ?SendToServer@HuodongZhuanzhuan@@QAEXH@Z 0049e6e0 f   HuodongZhuanzhuan.obj
 0001:0009d7f0       ??_EHuodongZhuanzhuan@@WHE@AEPAXI@Z 0049e7f0 f i HuodongZhuanzhuan.obj
 0001:0009d800       ??0CImpIDispatch@@QAE@XZ   0049e800 f   IDispimp.obj
 0001:0009d840       ??0IDispatch@@QAE@XZ       0049e840 f i IDispimp.obj
 0001:0009d840       ??0IDocHostUIHandler@@QAE@XZ 0049e840 f i GamePlaza.obj
 0001:0009d860       ??1CImpIDispatch@@QAE@XZ   0049e860 f   IDispimp.obj
 0001:0009d880       ?QueryInterface@CImpIDispatch@@UAGJABU_GUID@@PAPAX@Z 0049e880 f   IDispimp.obj
 0001:0009d8e0       ?AddRef@CImpIDispatch@@UAGKXZ 0049e8e0 f   IDispimp.obj
 0001:0009d910       ?Release@CImpIDispatch@@UAGKXZ 0049e910 f   IDispimp.obj
 0001:0009d940       ?GetTypeInfoCount@CImpIDispatch@@UAGJPAI@Z 0049e940 f   IDispimp.obj
 0001:0009d960       ?GetTypeInfo@CImpIDispatch@@UAGJIKPAPAUITypeInfo@@@Z 0049e960 f   IDispimp.obj
 0001:0009d980       ?GetIDsOfNames@CImpIDispatch@@UAGJABU_GUID@@PAPA_WIKPAJ@Z 0049e980 f   IDispimp.obj
 0001:0009da10       ?Invoke@CImpIDispatch@@UAGJJABU_GUID@@KGPAUtagDISPPARAMS@@PAUtagVARIANT@@PAUtagEXCEPINFO@@PAI@Z 0049ea10 f   IDispimp.obj
 0001:0009dab0       ?_GetBaseClass@CImageButton@@KGPAUCRuntimeClass@@XZ 0049eab0 f   ImageButton.obj
 0001:0009dab0       ?_GetBaseClass@CImgRioButton@@KGPAUCRuntimeClass@@XZ 0049eab0 f   ImgRioButton.obj
 0001:0009dab0       ?_GetBaseClass@CNumerButton@@KGPAUCRuntimeClass@@XZ 0049eab0 f   NumerButton.obj
 0001:0009dab0       ?_GetBaseClass@CTextButton@@KGPAUCRuntimeClass@@XZ 0049eab0 f   TextButton.obj
 0001:0009dad0       ?GetRuntimeClass@CImageButton@@UBEPAUCRuntimeClass@@XZ 0049ead0 f   ImageButton.obj
 0001:0009daf0       ??0CImageButton@@QAE@XZ    0049eaf0 f   ImageButton.obj
 0001:0009dc00       ??_GCImageButton@@UAEPAXI@Z 0049ec00 f i ImageButton.obj
 0001:0009dc00       ??_ECImageButton@@UAEPAXI@Z 0049ec00 f i ImageButton.obj
 0001:0009dc40       ??1CImageButton@@UAE@XZ    0049ec40 f   ImageButton.obj
 0001:0009dd30       ?SetImage@CImageButton@@QAEXPB_W@Z 0049ed30 f   ImageButton.obj
 0001:0009ddf0       ?SetPushed@CTextButton@@QAEX_N@Z 0049edf0 f   TextButton.obj
 0001:0009ddf0       ?SetPushed@CImgRioButton@@QAEX_N@Z 0049edf0 f   ImgRioButton.obj
 0001:0009ddf0       ?SetPushed@CImageButton@@QAEX_N@Z 0049edf0 f   ImageButton.obj
 0001:0009de30       ?GetMessageMap@CImageButton@@MBEPBUAFX_MSGMAP@@XZ 0049ee30 f   ImageButton.obj
 0001:0009de50       ?GetThisMessageMap@CImageButton@@KGPBUAFX_MSGMAP@@XZ 0049ee50 f   ImageButton.obj
 0001:0009de70       ?CtlColor@CTextButton@@IAEPAUHBRUSH__@@PAVCDC@@I@Z 0049ee70 f   TextButton.obj
 0001:0009de70       ?CtlColor@CImageButton@@IAEPAUHBRUSH__@@PAVCDC@@I@Z 0049ee70 f   ImageButton.obj
 0001:0009e480       ?DrawItem@CImageButton@@MAEXPAUtagDRAWITEMSTRUCT@@@Z 0049f480 f   ImageButton.obj
 0001:0009e580       ?PaintBtn@CImgRioButton@@AAEXPAVCDC@@@Z 0049f580 f   ImgRioButton.obj
 0001:0009e580       ?PaintBtn@CImageButton@@AAEXPAVCDC@@@Z 0049f580 f   ImageButton.obj
 0001:0009e5e0       ?GetRuntimeClass@CImgRioButton@@UBEPAUCRuntimeClass@@XZ 0049f5e0 f   ImgRioButton.obj
 0001:0009e600       ??0CImgRioButton@@QAE@XZ   0049f600 f   ImgRioButton.obj
 0001:0009e820       ??_GCImgRioButton@@UAEPAXI@Z 0049f820 f i ImgRioButton.obj
 0001:0009e820       ??_ECImgRioButton@@UAEPAXI@Z 0049f820 f i ImgRioButton.obj
 0001:0009e860       ??1CImgRioButton@@UAE@XZ   0049f860 f   ImgRioButton.obj
 0001:0009e970       ?GetMessageMap@CImgRioButton@@MBEPBUAFX_MSGMAP@@XZ 0049f970 f   ImgRioButton.obj
 0001:0009e990       ?GetThisMessageMap@CImgRioButton@@KGPBUAFX_MSGMAP@@XZ 0049f990 f   ImgRioButton.obj
 0001:0009e9b0       ?CtlColor@CImgRioButton@@IAEPAUHBRUSH__@@PAVCDC@@I@Z 0049f9b0 f   ImgRioButton.obj
 0001:0009f010       ?DrawItem@CImgRioButton@@MAEXPAUtagDRAWITEMSTRUCT@@@Z 004a0010 f   ImgRioButton.obj
 0001:0009f0e0       ?OnMouseHover@CImageButton@@IAEJIJ@Z 004a00e0 f   ImageButton.obj
 0001:0009f0e0       ?OnMouseHover@CTextButton@@IAEJIJ@Z 004a00e0 f   TextButton.obj
 0001:0009f0e0       ?OnMouseHover@CImgRioButton@@IAEJIJ@Z 004a00e0 f   ImgRioButton.obj
 0001:0009f110       ?OnMouseMove@CImageButton@@IAEXIVCPoint@@@Z 004a0110 f   ImageButton.obj
 0001:0009f110       ?OnMouseMove@CTextButton@@IAEXIVCPoint@@@Z 004a0110 f   TextButton.obj
 0001:0009f110       ?OnMouseMove@CImgRioButton@@IAEXIVCPoint@@@Z 004a0110 f   ImgRioButton.obj
 0001:0009f180       ?PaintText@CImgRioButton@@AAEXPAVCDC@@@Z 004a0180 f   ImgRioButton.obj
 0001:0009f320       ?GetRuntimeClass@CImgStatic@@UBEPAUCRuntimeClass@@XZ 004a0320 f   ImgStatic.obj
 0001:0009f340       ??0CImgStatic@@QAE@XZ      004a0340 f   ImgStatic.obj
 0001:0009f390       ??_GCImgStatic@@UAEPAXI@Z  004a0390 f i ImgStatic.obj
 0001:0009f390       ??_ECImgStatic@@UAEPAXI@Z  004a0390 f i ImgStatic.obj
 0001:0009f3d0       ??1CImgStatic@@UAE@XZ      004a03d0 f   ImgStatic.obj
 0001:0009f400       ?SetImage@CImgStatic@@QAEXPAVBitmap@Gdiplus@@HH@Z 004a0400 f   ImgStatic.obj
 0001:0009f450       ?GetMessageMap@CImgStatic@@MBEPBUAFX_MSGMAP@@XZ 004a0450 f   ImgStatic.obj
 0001:0009f470       ?GetThisMessageMap@CImgStatic@@KGPBUAFX_MSGMAP@@XZ 004a0470 f   ImgStatic.obj
 0001:0009f490       ?OnPaint@CImgStatic@@IAEXXZ 004a0490 f   ImgStatic.obj
 0001:0009f590       ?PreSubclassWindow@CImgRioButton@@MAEXXZ 004a0590 f   ImgRioButton.obj
 0001:0009f590       ?PreSubclassWindow@CNumerButton@@MAEXXZ 004a0590 f   NumerButton.obj
 0001:0009f590       ?PreSubclassWindow@CImageButton@@MAEXXZ 004a0590 f   ImageButton.obj
 0001:0009f590       ?PreSubclassWindow@CTextButton@@MAEXXZ 004a0590 f   TextButton.obj
 0001:0009f590       ?PreSubclassWindow@CImgStatic@@MAEXXZ 004a0590 f   ImgStatic.obj
 0001:0009f5c0       ?GetRuntimeClass@CJiangXi11X5@@UBEPAUCRuntimeClass@@XZ 004a05c0 f   JiangXi11X5.obj
 0001:0009f5e0       ??0CJiangXi11X5@@QAE@PAVCWnd@@@Z 004a05e0 f   JiangXi11X5.obj
 0001:000a04f0       ??_GCJiangXi11X5@@UAEPAXI@Z 004a14f0 f i JiangXi11X5.obj
 0001:000a04f0       ??_ECJiangXi11X5@@UAEPAXI@Z 004a14f0 f i JiangXi11X5.obj
 0001:000a0530       ??1CJiangXi11X5@@UAE@XZ    004a1530 f   JiangXi11X5.obj
 0001:000a1340       ?ConnectMainDlg@CGuangDong11X5@@QAEXPAVCPlazaViewItem@@@Z 004a2340 f   GuangDong11X5.obj
 0001:000a1340       ?ConnectMainDlg@CJiangXi11X5@@QAEXPAVCPlazaViewItem@@@Z 004a2340 f   JiangXi11X5.obj
 0001:000a1370       ?FlushZongjine@CJiangXi11X5@@QAEXXZ 004a2370 f   JiangXi11X5.obj
 0001:000a13a0       ?GetMessageMap@CJiangXi11X5@@MBEPBUAFX_MSGMAP@@XZ 004a23a0 f   JiangXi11X5.obj
 0001:000a13c0       ?GetThisMessageMap@CJiangXi11X5@@KGPBUAFX_MSGMAP@@XZ 004a23c0 f   JiangXi11X5.obj
 0001:000a13e0       ?OnPaint@CJiangXi11X5@@IAEXXZ 004a23e0 f   JiangXi11X5.obj
 0001:000a1670       ?OnShowWindow@CJiangXi11X5@@IAEXHI@Z 004a2670 f   JiangXi11X5.obj
 0001:000a1770       ?OnTimer@CJiangXi11X5@@IAEXI@Z 004a2770 f   JiangXi11X5.obj
 0001:000a1a60       ?OnBnClickedBtnHszhx@CJiangXi11X5@@IAEXXZ 004a2a60 f   JiangXi11X5.obj
 0001:000a1ab0       ?OnBnClickedBtnHszx@CJiangXi11X5@@IAEXXZ 004a2ab0 f   JiangXi11X5.obj
 0001:000a1b00       ?OnBnClickedBtnWxhe@CJiangXi11X5@@IAEXXZ 004a2b00 f   JiangXi11X5.obj
 0001:000a1b50       ?OnBnClickedBtnHezx@CJiangXi11X5@@IAEXXZ 004a2b50 f   JiangXi11X5.obj
 0001:000a1ba0       ?OnBnClickedBtnDxdsh@CJiangXi11X5@@IAEXXZ 004a2ba0 f   JiangXi11X5.obj
 0001:000a1bf0       ?OnBnClickedBtnBdw@CJiangXi11X5@@IAEXXZ 004a2bf0 f   JiangXi11X5.obj
 0001:000a1c40       ?OnBnClickedBtnQszhx@CJiangXi11X5@@IAEXXZ 004a2c40 f   JiangXi11X5.obj
 0001:000a1c90       ?OnBnClickedBtnQszx@CJiangXi11X5@@IAEXXZ 004a2c90 f   JiangXi11X5.obj
 0001:000a1ce0       ?OnBnClickedBtnWxqe@CJiangXi11X5@@IAEXXZ 004a2ce0 f   JiangXi11X5.obj
 0001:000a1d40       ?OnBnClickedBtnQezx@CJiangXi11X5@@IAEXXZ 004a2d40 f   JiangXi11X5.obj
 0001:000a1da0       ?OnInitDialog@CJiangXi11X5@@MAEHXZ 004a2da0 f   JiangXi11X5.obj
 0001:000a28a0       ?OnBnClickedBtnWanShuang@CJiangXi11X5@@IAEXXZ 004a38a0 f   JiangXi11X5.obj
 0001:000a28a0       ?OnBnClickedBtnWanShuang@CChongQing11X5@@IAEXXZ 004a38a0 f   ChongQing11X5.obj
 0001:000a28a0       ?OnBnClickedBtnWanShuang@CGuangDong11X5@@IAEXXZ 004a38a0 f   GuangDong11X5.obj
 0001:000a2970       ?OnBnClickedBtnQianDa@CJiangXi11X5@@IAEXXZ 004a3970 f   JiangXi11X5.obj
 0001:000a2970       ?OnBnClickedBtnQianDa@CChongQing11X5@@IAEXXZ 004a3970 f   ChongQing11X5.obj
 0001:000a2970       ?OnBnClickedBtnQianDa@CGuangDong11X5@@IAEXXZ 004a3970 f   GuangDong11X5.obj
 0001:000a2a40       ?OnBnClickedBtnBaiQuan@CChongQing11X5@@IAEXXZ 004a3a40 f   ChongQing11X5.obj
 0001:000a2a40       ?OnBnClickedBtnBaiQuan@CGuangDong11X5@@IAEXXZ 004a3a40 f   GuangDong11X5.obj
 0001:000a2a40       ?OnBnClickedBtnBaiQuan@CJiangXi11X5@@IAEXXZ 004a3a40 f   JiangXi11X5.obj
 0001:000a2b10       ?OnBnClickedBtnBaiDa@CJiangXi11X5@@IAEXXZ 004a3b10 f   JiangXi11X5.obj
 0001:000a2b10       ?OnBnClickedBtnBaiDa@CChongQing11X5@@IAEXXZ 004a3b10 f   ChongQing11X5.obj
 0001:000a2b10       ?OnBnClickedBtnBaiDa@CGuangDong11X5@@IAEXXZ 004a3b10 f   GuangDong11X5.obj
 0001:000a2be0       ?OnBnClickedBtnBaiXiao@CChongQing11X5@@IAEXXZ 004a3be0 f   ChongQing11X5.obj
 0001:000a2be0       ?OnBnClickedBtnBaiXiao@CGuangDong11X5@@IAEXXZ 004a3be0 f   GuangDong11X5.obj
 0001:000a2be0       ?OnBnClickedBtnBaiXiao@CJiangXi11X5@@IAEXXZ 004a3be0 f   JiangXi11X5.obj
 0001:000a2cb0       ?OnBnClickedBtnBaiDan@CGuangDong11X5@@IAEXXZ 004a3cb0 f   GuangDong11X5.obj
 0001:000a2cb0       ?OnBnClickedBtnBaiDan@CChongQing11X5@@IAEXXZ 004a3cb0 f   ChongQing11X5.obj
 0001:000a2cb0       ?OnBnClickedBtnBaiDan@CJiangXi11X5@@IAEXXZ 004a3cb0 f   JiangXi11X5.obj
 0001:000a2d80       ?OnBnClickedBtnBaiShuang@CGuangDong11X5@@IAEXXZ 004a3d80 f   GuangDong11X5.obj
 0001:000a2d80       ?OnBnClickedBtnBaiShuang@CJiangXi11X5@@IAEXXZ 004a3d80 f   JiangXi11X5.obj
 0001:000a2d80       ?OnBnClickedBtnBaiShuang@CChongQing11X5@@IAEXXZ 004a3d80 f   ChongQing11X5.obj
 0001:000a2e50       ?OnBnClickedBtnBaiQing@CChongQing11X5@@IAEXXZ 004a3e50 f   ChongQing11X5.obj
 0001:000a2e50       ?OnBnClickedBtnBaiQing@CGuangDong11X5@@IAEXXZ 004a3e50 f   GuangDong11X5.obj
 0001:000a2e50       ?OnBnClickedBtnBaiQing@CJiangXi11X5@@IAEXXZ 004a3e50 f   JiangXi11X5.obj
 0001:000a2f20       ?OnBnClickedBtnShiQing@CGuangDong11X5@@IAEXXZ 004a3f20 f   GuangDong11X5.obj
 0001:000a2f20       ?OnBnClickedBtnShiQing@CChongQing11X5@@IAEXXZ 004a3f20 f   ChongQing11X5.obj
 0001:000a2f20       ?OnBnClickedBtnShiQing@CJiangXi11X5@@IAEXXZ 004a3f20 f   JiangXi11X5.obj
 0001:000a2ff0       ?OnBnClickedBtnGeQuan@CJiangXi11X5@@IAEXXZ 004a3ff0 f   JiangXi11X5.obj
 0001:000a2ff0       ?OnBnClickedBtnGeQuan@CChongQing11X5@@IAEXXZ 004a3ff0 f   ChongQing11X5.obj
 0001:000a2ff0       ?OnBnClickedBtnGeQuan@CGuangDong11X5@@IAEXXZ 004a3ff0 f   GuangDong11X5.obj
 0001:000a30c0       ?OnBnClickedBtnChqAdd@CJiangXi11X5@@IAEXXZ 004a40c0 f   JiangXi11X5.obj
 0001:000a62d0       ?OnBnClickedRioHszhxFushi@CJiangXi11X5@@IAEXXZ 004a72d0 f   JiangXi11X5.obj
 0001:000a63b0       ?OnBnClickedRioRenXuan2@CJiangXi11X5@@IAEXXZ 004a73b0 f   JiangXi11X5.obj
 0001:000a6490       ?OnBnClickedRioHszsFushi@CJiangXi11X5@@IAEXXZ 004a7490 f   JiangXi11X5.obj
 0001:000a6570       ?OnBnClickedRioQszsFushi@CJiangXi11X5@@IAEXXZ 004a7570 f   JiangXi11X5.obj
 0001:000a6600       ?OnBnClickedRioHezhxFushi@CJiangXi11X5@@IAEXXZ 004a7600 f   JiangXi11X5.obj
 0001:000a66e0       ?OnBnClickedRioHezxFushi@CJiangXi11X5@@IAEXXZ 004a76e0 f   JiangXi11X5.obj
 0001:000a67c0       ?OnBnClickedRioQezhxFushi@CJiangXi11X5@@IAEXXZ 004a77c0 f   JiangXi11X5.obj
 0001:000a68b0       ?OnBnClickedRioQezhxDanshi@CJiangXi11X5@@IAEXXZ 004a78b0 f   JiangXi11X5.obj
 0001:000a6970       ?OnBnClickedRioQezxFushi@CJiangXi11X5@@IAEXXZ 004a7970 f   JiangXi11X5.obj
 0001:000a6a60       ?OnBnClickedRioQezxDanshi@CJiangXi11X5@@IAEXXZ 004a7a60 f   JiangXi11X5.obj
 0001:000a6b20       ?OnBnClickedRioDxdsh@CJiangXi11X5@@IAEXXZ 004a7b20 f   JiangXi11X5.obj
 0001:000a6c00       ?OnBnClickedRioHsbdw@CJiangXi11X5@@IAEXXZ 004a7c00 f   JiangXi11X5.obj
 0001:000a6ce0       ?OnBnClickedBtnZhuihao@CJiangXi11X5@@IAEXXZ 004a7ce0 f   JiangXi11X5.obj
 0001:000a70b0       ?OnBnClickedBtnTouzhu@CJiangXi11X5@@IAEXXZ 004a80b0 f   JiangXi11X5.obj
 0001:000a7200       ?OnBnClickedBtnDelSel@CJiangXi11X5@@IAEXXZ 004a8200 f   JiangXi11X5.obj
 0001:000a7310       ?OnBnClickedBtnClsList@CJiangXi11X5@@IAEXXZ 004a8310 f   JiangXi11X5.obj
 0001:000a73a0       ?OnEnChangeEditBeishu@CJiangXi11X5@@IAEXXZ 004a83a0 f   JiangXi11X5.obj
 0001:000a7550       ?GetQianString@CJiangXi11X5@@AAE?AV?$CStringT@_WV?$StrTraitMFC_DLL@_WV?$ChTraitsCRT@_W@ATL@@@@@ATL@@XZ 004a8550 f   JiangXi11X5.obj
 0001:000a7550       ?GetQianString@CGuangDong11X5@@AAE?AV?$CStringT@_WV?$StrTraitMFC_DLL@_WV?$ChTraitsCRT@_W@ATL@@@@@ATL@@XZ 004a8550 f   GuangDong11X5.obj
 0001:000a7550       ?GetQianString@CChongQing11X5@@AAE?AV?$CStringT@_WV?$StrTraitMFC_DLL@_WV?$ChTraitsCRT@_W@ATL@@@@@ATL@@XZ 004a8550 f   ChongQing11X5.obj
 0001:000a7780       ?GetBaiString@CChongQing11X5@@AAE?AV?$CStringT@_WV?$StrTraitMFC_DLL@_WV?$ChTraitsCRT@_W@ATL@@@@@ATL@@XZ 004a8780 f   ChongQing11X5.obj
 0001:000a7780       ?GetBaiString@CGuangDong11X5@@AAE?AV?$CStringT@_WV?$StrTraitMFC_DLL@_WV?$ChTraitsCRT@_W@ATL@@@@@ATL@@XZ 004a8780 f   GuangDong11X5.obj
 0001:000a7780       ?GetBaiString@CJiangXi11X5@@AAE?AV?$CStringT@_WV?$StrTraitMFC_DLL@_WV?$ChTraitsCRT@_W@ATL@@@@@ATL@@XZ 004a8780 f   JiangXi11X5.obj
 0001:000a79b0       ?GetShiString@CChongQing11X5@@AAE?AV?$CStringT@_WV?$StrTraitMFC_DLL@_WV?$ChTraitsCRT@_W@ATL@@@@@ATL@@XZ 004a89b0 f   ChongQing11X5.obj
 0001:000a79b0       ?GetShiString@CJiangXi11X5@@AAE?AV?$CStringT@_WV?$StrTraitMFC_DLL@_WV?$ChTraitsCRT@_W@ATL@@@@@ATL@@XZ 004a89b0 f   JiangXi11X5.obj
 0001:000a79b0       ?GetShiString@CGuangDong11X5@@AAE?AV?$CStringT@_WV?$StrTraitMFC_DLL@_WV?$ChTraitsCRT@_W@ATL@@@@@ATL@@XZ 004a89b0 f   GuangDong11X5.obj
 0001:000a7be0       ?GetWanDesc@CJiangXi11X5@@AAE?AV?$CStringT@_WV?$StrTraitMFC_DLL@_WV?$ChTraitsCRT@_W@ATL@@@@@ATL@@XZ 004a8be0 f   JiangXi11X5.obj
 0001:000a7c30       ?HideWanNums@CChongQing11X5@@AAEXXZ 004a8c30 f   ChongQing11X5.obj
 0001:000a7c30       ?HideWanNums@CGuangDong11X5@@AAEXXZ 004a8c30 f   GuangDong11X5.obj
 0001:000a7c30       ?HideWanNums@CJiangXi11X5@@AAEXXZ 004a8c30 f   JiangXi11X5.obj
 0001:000a7d70       ?HideQianNums@CChongQing11X5@@AAEXXZ 004a8d70 f   ChongQing11X5.obj
 0001:000a7d70       ?HideQianNums@CJiangXi11X5@@AAEXXZ 004a8d70 f   JiangXi11X5.obj
 0001:000a7d70       ?HideQianNums@CGuangDong11X5@@AAEXXZ 004a8d70 f   GuangDong11X5.obj
 0001:000a7eb0       ?HideBaiNums@CGuangDong11X5@@AAEXXZ 004a8eb0 f   GuangDong11X5.obj
 0001:000a7eb0       ?HideBaiNums@CJiangXi11X5@@AAEXXZ 004a8eb0 f   JiangXi11X5.obj
 0001:000a8010       ?ShowWanNums@CGuangDong11X5@@AAEXXZ 004a9010 f   GuangDong11X5.obj
 0001:000a8010       ?ShowWanNums@CChongQing11X5@@AAEXXZ 004a9010 f   ChongQing11X5.obj
 0001:000a8010       ?ShowWanNums@CJiangXi11X5@@AAEXXZ 004a9010 f   JiangXi11X5.obj
 0001:000a8150       ?ShowQianNums@CJiangXi11X5@@AAEXXZ 004a9150 f   JiangXi11X5.obj
 0001:000a8150       ?ShowQianNums@CGuangDong11X5@@AAEXXZ 004a9150 f   GuangDong11X5.obj
 0001:000a8150       ?ShowQianNums@CChongQing11X5@@AAEXXZ 004a9150 f   ChongQing11X5.obj
 0001:000a8290       ?ShowBaiNums@CJiangXi11X5@@AAEXXZ 004a9290 f   JiangXi11X5.obj
 0001:000a8290       ?ShowBaiNums@CGuangDong11X5@@AAEXXZ 004a9290 f   GuangDong11X5.obj
 0001:000a83f0       ?ShowZuXuan@CJiangXi11X5@@AAEXXZ 004a93f0 f   JiangXi11X5.obj
 0001:000a83f0       ?ShowZuXuan@CGuangDong11X5@@AAEXXZ 004a93f0 f   GuangDong11X5.obj
 0001:000a8440       ?HideDaXiaoDanShuang@CGuangDong11X5@@AAEXXZ 004a9440 f   GuangDong11X5.obj
 0001:000a8440       ?HideDaXiaoDanShuang@CJiangXi11X5@@AAEXXZ 004a9440 f   JiangXi11X5.obj
 0001:000a84e0       ?HideDanShiEdit@CChongQing11X5@@AAEXXZ 004a94e0 f   ChongQing11X5.obj
 0001:000a84e0       ?HideDanShiEdit@CGuangDong11X5@@AAEXXZ 004a94e0 f   GuangDong11X5.obj
 0001:000a84e0       ?HideDanShiEdit@CJiangXi11X5@@AAEXXZ 004a94e0 f   JiangXi11X5.obj
 0001:000a8510       ?ShowDanShiEdit@CGuangDong11X5@@AAEXXZ 004a9510 f   GuangDong11X5.obj
 0001:000a8510       ?ShowDanShiEdit@CJiangXi11X5@@AAEXXZ 004a9510 f   JiangXi11X5.obj
 0001:000a8510       ?ShowDanShiEdit@CChongQing11X5@@AAEXXZ 004a9510 f   ChongQing11X5.obj
 0001:000a8540       ?SendToServer@CJiangXi11X5@@AAEXH@Z 004a9540 f   JiangXi11X5.obj
 0001:000a86e0       ?LuckyNumCQSSC@CJiangXi11X5@@AAE_NXZ 004a96e0 f   JiangXi11X5.obj
 0001:000a8bc0       ?DrawLastKjHaoma@CJiangXi11X5@@AAEXPAVCDC@@AAVGraphics@Gdiplus@@@Z 004a9bc0 f   JiangXi11X5.obj
 0001:000a93a0       ?DrawTopKjHaoma@CJiangXi11X5@@AAEXPAVCDC@@AAVGraphics@Gdiplus@@@Z 004aa3a0 f   JiangXi11X5.obj
 0001:000a9770       ?DrawBigNum@CChongQing11X5@@AAEXAAVGraphics@Gdiplus@@PAVBitmap@3@AAVRect@3@H@Z 004aa770 f   ChongQing11X5.obj
 0001:000a9770       ?DrawBigNum@CGuangDong11X5@@AAEXAAVGraphics@Gdiplus@@PAVBitmap@3@AAVRect@3@H@Z 004aa770 f   GuangDong11X5.obj
 0001:000a9770       ?DrawBigNum@CJiangXi11X5@@AAEXAAVGraphics@Gdiplus@@PAVBitmap@3@AAVRect@3@H@Z 004aa770 f   JiangXi11X5.obj
 0001:000a97d0       ?DrawBigNum@CShanDong11X5@@AAEXAAVGraphics@Gdiplus@@PAVBitmap@3@AAVRect@3@H@Z 004aa7d0 f   ShanDong11X5.obj
 0001:000a97d0       ?DrawSmallNum@CGuangDong11X5@@AAEXAAVGraphics@Gdiplus@@PAVBitmap@3@AAVRect@3@H@Z 004aa7d0 f   GuangDong11X5.obj
 0001:000a97d0       ?DrawSmallNum@CChongQing11X5@@AAEXAAVGraphics@Gdiplus@@PAVBitmap@3@AAVRect@3@H@Z 004aa7d0 f   ChongQing11X5.obj
 0001:000a97d0       ?DrawSmallNum@CJiangXi11X5@@AAEXAAVGraphics@Gdiplus@@PAVBitmap@3@AAVRect@3@H@Z 004aa7d0 f   JiangXi11X5.obj
 0001:000a9830       ?DrawZongZhushuJinE@CJiangXi11X5@@AAEXPAVCDC@@@Z 004aa830 f   JiangXi11X5.obj
 0001:000a9a10       ?ResetAllNums@CJiangXi11X5@@AAEXXZ 004aaa10 f   JiangXi11X5.obj
 0001:000a9a10       ?ResetAllNums@CGuangDong11X5@@AAEXXZ 004aaa10 f   GuangDong11X5.obj
 0001:000a9e70       ?GetDanShiHaoma@CJiangXi11X5@@AAE_NAAV?$CStringT@_WV?$StrTraitMFC_DLL@_WV?$ChTraitsCRT@_W@ATL@@@@@ATL@@HH@Z 004aae70 f   JiangXi11X5.obj
 0001:000aa2f0       ?InitWanFaMoShi@CJiangXi11X5@@AAEXXZ 004ab2f0 f   JiangXi11X5.obj
 0001:000aa460       ?OnEventMissionLink@CJiangXi11X5@@UAE_NHH@Z 004ab460 f   JiangXi11X5.obj
 0001:000ab900       ?OnEventMissionRead@CJiangXi11X5@@UAE_NUTCP_Command@@PAXG@Z 004ac900 f   JiangXi11X5.obj
 0001:000ac310       ?GetGameHoverIndex@CJiangXi11X5@@IAEGVCPoint@@@Z 004ad310 f   JiangXi11X5.obj
 0001:000ac310       ?GetGameHoverIndex@CGuangDong11X5@@IAEGVCPoint@@@Z 004ad310 f   GuangDong11X5.obj
 0001:000ac3b0       ?OnMouseMove@CJiangXi11X5@@IAEXIVCPoint@@@Z 004ad3b0 f   JiangXi11X5.obj
 0001:000ac450       ?OnMouseLeave@CGuangDong11X5@@IAEJIJ@Z 004ad450 f   GuangDong11X5.obj
 0001:000ac450       ?OnMouseLeave@CJiangXi11X5@@IAEJIJ@Z 004ad450 f   JiangXi11X5.obj
 0001:000ac480       ?OnBnClickedRioMouseInput@CJiangXi11X5@@AAEXXZ 004ad480 f   JiangXi11X5.obj
 0001:000ac480       ?OnBnClickedRioMouseInput@CGuangDong11X5@@AAEXXZ 004ad480 f   GuangDong11X5.obj
 0001:000ac840       ?OnBnClickedRioKeyboardInput@CGuangDong11X5@@AAEXXZ 004ad840 f   GuangDong11X5.obj
 0001:000ac840       ?OnBnClickedRioKeyboardInput@CJiangXi11X5@@AAEXXZ 004ad840 f   JiangXi11X5.obj
 0001:000ac8d0       ?OnBnClickedBtnLock@CJiangXi11X5@@AAEXXZ 004ad8d0 f   JiangXi11X5.obj
 0001:000ac9f0       ??_ECJiangXi11X5@@WHE@AEPAXI@Z 004ad9f0 f i JiangXi11X5.obj
 0001:000aca00       ?GetRuntimeClass@CJiangXiSSC@@UBEPAUCRuntimeClass@@XZ 004ada00 f   JiangXiSSC.obj
 0001:000aca20       ??0CJiangXiSSC@@QAE@PAVCWnd@@@Z 004ada20 f   JiangXiSSC.obj
 0001:000adce0       ??_GCJiangXiSSC@@UAEPAXI@Z 004aece0 f i JiangXiSSC.obj
 0001:000adce0       ??_ECJiangXiSSC@@UAEPAXI@Z 004aece0 f i JiangXiSSC.obj
 0001:000add20       ??1CJiangXiSSC@@UAE@XZ     004aed20 f   JiangXiSSC.obj
 0001:000aef90       ?ConnectMainDlg@CJiangXiSSC@@QAEXPAVCPlazaViewItem@@@Z 004aff90 f   JiangXiSSC.obj
 0001:000aefc0       ?FlushZongjine@CJiangXiSSC@@QAEXXZ 004affc0 f   JiangXiSSC.obj
 0001:000aeff0       ?DoDataExchange@CJiangXiSSC@@MAEXPAVCDataExchange@@@Z 004afff0 f   JiangXiSSC.obj
 0001:000b03a0       ?GetMessageMap@CJiangXiSSC@@MBEPBUAFX_MSGMAP@@XZ 004b13a0 f   JiangXiSSC.obj
 0001:000b03c0       ?GetThisMessageMap@CJiangXiSSC@@KGPBUAFX_MSGMAP@@XZ 004b13c0 f   JiangXiSSC.obj
 0001:000b03e0       ?OnPaint@CJiangXiSSC@@IAEXXZ 004b13e0 f   JiangXiSSC.obj
 0001:000b0630       ?OnSize@CJiangXiSSC@@IAEXIHH@Z 004b1630 f   JiangXiSSC.obj
 0001:000b06a0       ?OnShowWindow@CJiangXiSSC@@IAEXHI@Z 004b16a0 f   JiangXiSSC.obj
 0001:000b0770       ?OnTimer@CJiangXiSSC@@IAEXI@Z 004b1770 f   JiangXiSSC.obj
 0001:000b0a20       ?OnBnClickedBtnHszhx@CJiangXiSSC@@IAEXXZ 004b1a20 f   JiangXiSSC.obj
 0001:000b0a90       ?OnBnClickedBtnHszx@CJiangXiSSC@@IAEXXZ 004b1a90 f   JiangXiSSC.obj
 0001:000b0af0       ?OnBnClickedBtnWxhe@CJiangXiSSC@@IAEXXZ 004b1af0 f   JiangXiSSC.obj
 0001:000b0ba0       ?OnBnClickedBtnHezx@CJiangXiSSC@@IAEXXZ 004b1ba0 f   JiangXiSSC.obj
 0001:000b0c20       ?OnBnClickedBtnDxdsh@CJiangXiSSC@@IAEXXZ 004b1c20 f   JiangXiSSC.obj
 0001:000b0c80       ?OnBnClickedBtnBdw@CJiangXiSSC@@IAEXXZ 004b1c80 f   JiangXiSSC.obj
 0001:000b0d00       ?OnBnClickedBtnQszhx@CJiangXiSSC@@IAEXXZ 004b1d00 f   JiangXiSSC.obj
 0001:000b0d80       ?OnBnClickedBtnQszx@CJiangXiSSC@@IAEXXZ 004b1d80 f   JiangXiSSC.obj
 0001:000b0df0       ?OnBnClickedBtnWxqe@CJiangXiSSC@@IAEXXZ 004b1df0 f   JiangXiSSC.obj
 0001:000b0e70       ?OnBnClickedBtnQezx@CJiangXiSSC@@IAEXXZ 004b1e70 f   JiangXiSSC.obj
 0001:000b0ef0       ?OnBnClickedBtnHszhxhzh@CJiangXiSSC@@IAEXXZ 004b1ef0 f   JiangXiSSC.obj
 0001:000b0f70       ?OnBnClickedBtnDwd@CJiangXiSSC@@IAEXXZ 004b1f70 f   JiangXiSSC.obj
 0001:000b0fd0       ?OnInitDialog@CJiangXiSSC@@MAEHXZ 004b1fd0 f   JiangXiSSC.obj
 0001:000b1cd0       ?OnBnClickedBtnWanQuan@CWuFenCai@@IAEXXZ 004b2cd0 f   WuFenCai.obj
 0001:000b1cd0       ?OnBnClickedBtnWanQuan@CFenFenCai@@IAEXXZ 004b2cd0 f   FenFenCai.obj
 0001:000b1cd0       ?OnBnClickedBtnWanQuan@CJiangXiSSC@@IAEXXZ 004b2cd0 f   JiangXiSSC.obj
 0001:000b1d90       ?OnBnClickedBtnWanDan@CFenFenCai@@IAEXXZ 004b2d90 f   FenFenCai.obj
 0001:000b1d90       ?OnBnClickedBtnWanDan@CJiangXiSSC@@IAEXXZ 004b2d90 f   JiangXiSSC.obj
 0001:000b1d90       ?OnBnClickedBtnWanDan@CWuFenCai@@IAEXXZ 004b2d90 f   WuFenCai.obj
 0001:000b1e50       ?OnBnClickedBtnWanQing@CJiangXiSSC@@IAEXXZ 004b2e50 f   JiangXiSSC.obj
 0001:000b1e50       ?OnBnClickedBtnWanQing@CWuFenCai@@IAEXXZ 004b2e50 f   WuFenCai.obj
 0001:000b1e50       ?OnBnClickedBtnWanQing@CFenFenCai@@IAEXXZ 004b2e50 f   FenFenCai.obj
 0001:000b1f10       ?OnBnClickedBtnQianQuan@CFenFenCai@@IAEXXZ 004b2f10 f   FenFenCai.obj
 0001:000b1f10       ?OnBnClickedBtnQianQuan@CJiangXiSSC@@IAEXXZ 004b2f10 f   JiangXiSSC.obj
 0001:000b1f10       ?OnBnClickedBtnQianQuan@CWuFenCai@@IAEXXZ 004b2f10 f   WuFenCai.obj
 0001:000b1fd0       ?OnBnClickedBtnQw@CJiangXiSSC@@IAEXXZ 004b2fd0 f   JiangXiSSC.obj
 0001:000b2050       ?ShowXuanHao@CJiangXiSSC@@AAEXXZ 004b3050 f   JiangXiSSC.obj
 0001:000b20f0       ?OnBnClickedRioYffs@CJiangXiSSC@@IAEXXZ 004b30f0 f   JiangXiSSC.obj
 0001:000b21c0       ?OnBnClickedRioHscs@CJiangXiSSC@@IAEXXZ 004b31c0 f   JiangXiSSC.obj
 0001:000b2290       ?OnBnClickedRioSxbx@CJiangXiSSC@@IAEXXZ 004b3290 f   JiangXiSSC.obj
 0001:000b2360       ?OnBnClickedRioSjfc@CJiangXiSSC@@IAEXXZ 004b3360 f   JiangXiSSC.obj
 0001:000b2430       ?OnBnClickedBtnJxAdd@CJiangXiSSC@@IAEXXZ 004b3430 f   JiangXiSSC.obj
 0001:000be000       ?InitNumberBtns@CJiangXiSSC@@AAEXXZ 004bf000 f   JiangXiSSC.obj
 0001:000bee30       ?InitListCtrl@CJiangXiSSC@@AAEXXZ 004bfe30 f   JiangXiSSC.obj
 0001:000beed0       ?OnBnClickedRioHszhxFushi@CJiangXiSSC@@IAEXXZ 004bfed0 f   JiangXiSSC.obj
 0001:000befd0       ?OnBnClickedRioHszhxDanshi@CJiangXiSSC@@IAEXXZ 004bffd0 f   JiangXiSSC.obj
 0001:000bf0d0       ?OnBnClickedRioQszhxFushi@CJiangXiSSC@@IAEXXZ 004c00d0 f   JiangXiSSC.obj
 0001:000bf1b0       ?OnBnClickedRioQszhxDanshi@CJiangXiSSC@@IAEXXZ 004c01b0 f   JiangXiSSC.obj
 0001:000bf2b0       ?OnBnClickedRioRenXuan2@CJiangXiSSC@@IAEXXZ 004c02b0 f   JiangXiSSC.obj
 0001:000bf3a0       ?OnBnClickedRioRenXuan3@CJiangXiSSC@@IAEXXZ 004c03a0 f   JiangXiSSC.obj
 0001:000bf490       ?OnBnClickedRioRenXuan4@CJiangXiSSC@@IAEXXZ 004c0490 f   JiangXiSSC.obj
 0001:000bf580       ?OnBnClickedRioHszsFushi@CJiangXiSSC@@IAEXXZ 004c0580 f   JiangXiSSC.obj
 0001:000bf690       ?OnBnClickedRioHszsDanshi@CJiangXiSSC@@IAEXXZ 004c0690 f   JiangXiSSC.obj
 0001:000bf730       ?OnBnClickedRioZszlFushi@CJiangXiSSC@@AAEXXZ 004c0730 f   JiangXiSSC.obj
 0001:000bf840       ?OnBnClickedRioZszsFushi@CJiangXiSSC@@AAEXXZ 004c0840 f   JiangXiSSC.obj
 0001:000bf950       ?OnBnClickedRioHszlFushi@CJiangXiSSC@@IAEXXZ 004c0950 f   JiangXiSSC.obj
 0001:000bfa60       ?OnBnClickedRioHszlDanshi@CJiangXiSSC@@IAEXXZ 004c0a60 f   JiangXiSSC.obj
 0001:000bfbb0       ?OnBnClickedRioQszsFushi@CJiangXiSSC@@IAEXXZ 004c0bb0 f   JiangXiSSC.obj
 0001:000bfcc0       ?OnBnClickedRioQszsDanshi@CJiangXiSSC@@IAEXXZ 004c0cc0 f   JiangXiSSC.obj
 0001:000bfd60       ?OnBnClickedRioQszlFushi@CJiangXiSSC@@IAEXXZ 004c0d60 f   JiangXiSSC.obj
 0001:000bfe70       ?OnBnClickedRioQszlDanshi@CJiangXiSSC@@IAEXXZ 004c0e70 f   JiangXiSSC.obj
 0001:000bff10       ?OnBnClickedRioHezhxFushi@CJiangXiSSC@@IAEXXZ 004c0f10 f   JiangXiSSC.obj
 0001:000bffd0       ?OnBnClickedRioHezhxDanshi@CJiangXiSSC@@IAEXXZ 004c0fd0 f   JiangXiSSC.obj
 0001:000c0090       ?OnBnClickedRioHezxFushi@CJiangXiSSC@@IAEXXZ 004c1090 f   JiangXiSSC.obj
 0001:000c0160       ?OnBnClickedRioHezxDanshi@CJiangXiSSC@@IAEXXZ 004c1160 f   JiangXiSSC.obj
 0001:000c0220       ?OnBnClickedRioQezhxFushi@CJiangXiSSC@@IAEXXZ 004c1220 f   JiangXiSSC.obj
 0001:000c02e0       ?OnBnClickedRioQezhxDanshi@CJiangXiSSC@@IAEXXZ 004c12e0 f   JiangXiSSC.obj
 0001:000c03a0       ?OnBnClickedRioQezxFushi@CJiangXiSSC@@IAEXXZ 004c13a0 f   JiangXiSSC.obj
 0001:000c0470       ?OnBnClickedRioQezxDanshi@CJiangXiSSC@@IAEXXZ 004c1470 f   JiangXiSSC.obj
 0001:000c0530       ?OnBnClickedRioDxdsh@CJiangXiSSC@@IAEXXZ 004c1530 f   JiangXiSSC.obj
 0001:000c05c0       ?OnBnClickedRioQsbdw@CJiangXiSSC@@IAEXXZ 004c15c0 f   JiangXiSSC.obj
 0001:000c0690       ?OnBnClickedRioHsbdw@CJiangXiSSC@@IAEXXZ 004c1690 f   JiangXiSSC.obj
 0001:000c0760       ?OnBnClickedRioQsHunhe@CJiangXiSSC@@IAEXXZ 004c1760 f   JiangXiSSC.obj
 0001:000c0810       ?OnBnClickedRioZsHunhe@CJiangXiSSC@@IAEXXZ 004c1810 f   JiangXiSSC.obj
 0001:000c08c0       ?OnBnClickedRioHsHunhe@CJiangXiSSC@@IAEXXZ 004c18c0 f   JiangXiSSC.obj
 0001:000c0970       ?OnBnClickedRioDwd@CJiangXiSSC@@IAEXXZ 004c1970 f   JiangXiSSC.obj
 0001:000c0a00       ?OnBnClickedBtnZhuihao@CJiangXiSSC@@QAEXXZ 004c1a00 f   JiangXiSSC.obj
 0001:000c0dc0       ?CheckInput@CJiangXiSSC@@QAE_NXZ 004c1dc0 f   JiangXiSSC.obj
 0001:000c16f0       ?OnBnClickedBtnTouzhu@CJiangXiSSC@@QAEXXZ 004c26f0 f   JiangXiSSC.obj
 0001:000c1850       ?OnBnClickedBtnDelSel@CJiangXiSSC@@IAEXXZ 004c2850 f   JiangXiSSC.obj
 0001:000c1970       ?OnBnClickedBtnClsList@CJiangXiSSC@@QAEXXZ 004c2970 f   JiangXiSSC.obj
 0001:000c1a20       ?OnEnChangeEditDanshiInput@CJiangXiSSC@@QAEXXZ 004c2a20 f   JiangXiSSC.obj
 0001:000c1a50       ?OnEnChangeEditBeishu@CJiangXiSSC@@QAEXXZ 004c2a50 f   JiangXiSSC.obj
 0001:000c1c00       ?HideAllRio@CJiangXiSSC@@AAEXXZ 004c2c00 f   JiangXiSSC.obj
 0001:000c1f40       ?GetGeString@CFenFenCai@@AAE?AV?$CStringT@_WV?$StrTraitMFC_DLL@_WV?$ChTraitsCRT@_W@ATL@@@@@ATL@@XZ 004c2f40 f   FenFenCai.obj
 0001:000c1f40       ?GetGeString@CJiangXiSSC@@AAE?AV?$CStringT@_WV?$StrTraitMFC_DLL@_WV?$ChTraitsCRT@_W@ATL@@@@@ATL@@XZ 004c2f40 f   JiangXiSSC.obj
 0001:000c1f40       ?GetGeString@CWuFenCai@@AAE?AV?$CStringT@_WV?$StrTraitMFC_DLL@_WV?$ChTraitsCRT@_W@ATL@@@@@ATL@@XZ 004c2f40 f   WuFenCai.obj
 0001:000c2140       ?GetShiDxdshString@CJiangXiSSC@@AAE?AV?$CStringT@_WV?$StrTraitMFC_DLL@_WV?$ChTraitsCRT@_W@ATL@@@@@ATL@@XZ 004c3140 f   JiangXiSSC.obj
 0001:000c2260       ?GetGeDxdshString@CJiangXiSSC@@AAE?AV?$CStringT@_WV?$StrTraitMFC_DLL@_WV?$ChTraitsCRT@_W@ATL@@@@@ATL@@XZ 004c3260 f   JiangXiSSC.obj
 0001:000c2380       ?GetWanDesc@CJiangXiSSC@@AAE?AV?$CStringT@_WV?$StrTraitMFC_DLL@_WV?$ChTraitsCRT@_W@ATL@@@@@ATL@@XZ 004c3380 f   JiangXiSSC.obj
 0001:000c23d0       ?AdjustWanFa@CJiangXiSSC@@AAEXXZ 004c33d0 f   JiangXiSSC.obj
 0001:000c27c0       ?AdjustRadio@CWuFenCai@@AAEXXZ 004c37c0 f   WuFenCai.obj
 0001:000c27c0       ?AdjustRadio@CFenFenCai@@AAEXXZ 004c37c0 f   FenFenCai.obj
 0001:000c27c0       ?AdjustRadio@CJiangXiSSC@@AAEXXZ 004c37c0 f   JiangXiSSC.obj
 0001:000c31a0       ?AdjustNumBtn@CJiangXiSSC@@AAEXXZ 004c41a0 f   JiangXiSSC.obj
 0001:000c5810       ?AdjustNumView@CJiangXiSSC@@AAEXXZ 004c6810 f   JiangXiSSC.obj
 0001:000c59c0       ?AdjustDanShi@CJiangXiSSC@@AAEXXZ 004c69c0 f   JiangXiSSC.obj
 0001:000c5af0       ?AdjustAdd@CJiangXiSSC@@AAEXXZ 004c6af0 f   JiangXiSSC.obj
 0001:000c5ba0       ?HideWanNums@CJiangXiSSC@@AAEXXZ 004c6ba0 f   JiangXiSSC.obj
 0001:000c5cd0       ?HideQianNums@CJiangXiSSC@@AAEXXZ 004c6cd0 f   JiangXiSSC.obj
 0001:000c5e00       ?HideBaiNums@CJiangXiSSC@@AAEXXZ 004c6e00 f   JiangXiSSC.obj
 0001:000c5fb0       ?HideShiNums@CJiangXiSSC@@AAEXXZ 004c6fb0 f   JiangXiSSC.obj
 0001:000c60f0       ?HideGeNums@CJiangXiSSC@@AAEXXZ 004c70f0 f   JiangXiSSC.obj
 0001:000c6220       ?ShowWanNums@CJiangXiSSC@@AAEXXZ 004c7220 f   JiangXiSSC.obj
 0001:000c6350       ?ShowQianNums@CJiangXiSSC@@AAEXXZ 004c7350 f   JiangXiSSC.obj
 0001:000c6480       ?ShowBaiNums@CJiangXiSSC@@AAEXXZ 004c7480 f   JiangXiSSC.obj
 0001:000c6630       ?ShowShiNums@CJiangXiSSC@@AAEXXZ 004c7630 f   JiangXiSSC.obj
 0001:000c6780       ?ShowGeNums@CJiangXiSSC@@AAEXXZ 004c7780 f   JiangXiSSC.obj
 0001:000c68b0       ?ShowZuXuan@CJiangXiSSC@@AAEXXZ 004c78b0 f   JiangXiSSC.obj
 0001:000c6950       ?ShowBuDingWei@CJiangXiSSC@@AAEXXZ 004c7950 f   JiangXiSSC.obj
 0001:000c69f0       ?ShowZu120@CJiangXiSSC@@AAEXXZ 004c79f0 f   JiangXiSSC.obj
 0001:000c6a90       ?ShowErChong@CJiangXiSSC@@AAEXXZ 004c7a90 f   JiangXiSSC.obj
 0001:000c6b30       ?ShowSanChong@CJiangXiSSC@@AAEXXZ 004c7b30 f   JiangXiSSC.obj
 0001:000c6bd0       ?ShowSiChong@CJiangXiSSC@@AAEXXZ 004c7bd0 f   JiangXiSSC.obj
 0001:000c6c70       ?ShowDaXiaoDanShuang@CJiangXiSSC@@AAEXXZ 004c7c70 f   JiangXiSSC.obj
 0001:000c6d30       ?HideDaXiaoDanShuang@CJiangXiSSC@@AAEXXZ 004c7d30 f   JiangXiSSC.obj
 0001:000c6dd0       ?HideDanShiEdit@CJiangXiSSC@@AAEXXZ 004c7dd0 f   JiangXiSSC.obj
 0001:000c6e00       ?ShowDanShiEdit@CJiangXiSSC@@AAEXXZ 004c7e00 f   JiangXiSSC.obj
 0001:000c6e30       ?CheckWanFaBtn@CJiangXiSSC@@AAEXAAVCTextButton@@@Z 004c7e30 f   JiangXiSSC.obj
 0001:000c6f20       ?LuckyNumCQSSC@CJiangXiSSC@@AAE_NXZ 004c7f20 f   JiangXiSSC.obj
 0001:000c7400       ?GetKjShjDiff@CJiangXiSSC@@AAEJXZ 004c8400 f   JiangXiSSC.obj
 0001:000c7450       ?DrawLastKjHaoma@CJiangXiSSC@@AAEXPAVCDC@@AAVGraphics@Gdiplus@@@Z 004c8450 f   JiangXiSSC.obj
 0001:000c7b90       ?DrawTopKjHaoma@CJiangXiSSC@@AAEXPAVCDC@@AAVGraphics@Gdiplus@@@Z 004c8b90 f   JiangXiSSC.obj
 0001:000c7e50       ?DrawZongZhushuJinE@CJiangXiSSC@@AAEXPAVCDC@@@Z 004c8e50 f   JiangXiSSC.obj
 0001:000c8030       ?ResetAllNums@CJiangXiSSC@@AAEXXZ 004c9030 f   JiangXiSSC.obj
 0001:000c8610       ?SetLockText@CJiangXiSSC@@AAEXMM@Z 004c9610 f   JiangXiSSC.obj
 0001:000c8710       ?GetZuSanHaoma@CJiangXiSSC@@AAE_NAAVCStringArray@@@Z 004c9710 f   JiangXiSSC.obj
 0001:000c88b0       ?GetZuSanHaoma@CJiangXiSSC@@AAE_NAAV?$CStringT@_WV?$StrTraitMFC_DLL@_WV?$ChTraitsCRT@_W@ATL@@@@@ATL@@AAH@Z 004c98b0 f   JiangXiSSC.obj
 0001:000c89b0       ?GetDanShiHaoma@CJiangXiSSC@@AAE_NAAV?$CStringT@_WV?$StrTraitMFC_DLL@_WV?$ChTraitsCRT@_W@ATL@@@@@ATL@@HAAHH@Z 004c99b0 f   JiangXiSSC.obj
 0001:000c8c80       ?GetHaomaStrs@CJiangXiSSC@@AAE_NAAVCStringArray@@V?$CStringT@_WV?$StrTraitMFC_DLL@_WV?$ChTraitsCRT@_W@ATL@@@@@ATL@@H@Z 004c9c80 f   JiangXiSSC.obj
 0001:000c8fd0       ?InitWanFaMoShi@CJiangXiSSC@@AAEXXZ 004c9fd0 f   JiangXiSSC.obj
 0001:000c9560       ?OnBnClickedRioMouseInput@CJiangXiSSC@@AAEXXZ 004ca560 f   JiangXiSSC.obj
 0001:000c9740       ?OnBnClickedRioKeyboardInput@CJiangXiSSC@@AAEXXZ 004ca740 f   JiangXiSSC.obj
 0001:000c9810       ?OnBnClickedChkWan@CJiangXiSSC@@AAEXXZ 004ca810 f   JiangXiSSC.obj
 0001:000c9810       ?OnBnClickedChkShi@CJiangXiSSC@@AAEXXZ 004ca810 f   JiangXiSSC.obj
 0001:000c9810       ?OnBnClickedChkQian@CFenFenCai@@AAEXXZ 004ca810 f   FenFenCai.obj
 0001:000c9810       ?OnBnClickedChkge@CWuFenCai@@AAEXXZ 004ca810 f   WuFenCai.obj
 0001:000c9810       ?OnBnClickedChkge@CFenFenCai@@AAEXXZ 004ca810 f   FenFenCai.obj
 0001:000c9810       ?OnBnClickedChkge@CJiangXiSSC@@AAEXXZ 004ca810 f   JiangXiSSC.obj
 0001:000c9810       ?OnBnClickedChkBai@CWuFenCai@@AAEXXZ 004ca810 f   WuFenCai.obj
 0001:000c9810       ?OnBnClickedChkShi@CWuFenCai@@AAEXXZ 004ca810 f   WuFenCai.obj
 0001:000c9810       ?OnBnClickedChkQian@CJiangXiSSC@@AAEXXZ 004ca810 f   JiangXiSSC.obj
 0001:000c9810       ?OnBnClickedChkShi@CFenFenCai@@AAEXXZ 004ca810 f   FenFenCai.obj
 0001:000c9810       ?OnBnClickedChkWan@CWuFenCai@@AAEXXZ 004ca810 f   WuFenCai.obj
 0001:000c9810       ?OnBnClickedChkBai@CJiangXiSSC@@AAEXXZ 004ca810 f   JiangXiSSC.obj
 0001:000c9810       ?OnBnClickedChkQian@CWuFenCai@@AAEXXZ 004ca810 f   WuFenCai.obj
 0001:000c9810       ?OnBnClickedChkBai@CFenFenCai@@AAEXXZ 004ca810 f   FenFenCai.obj
 0001:000c9810       ?OnBnClickedChkWan@CFenFenCai@@AAEXXZ 004ca810 f   FenFenCai.obj
 0001:000c9830       ?ValidateTips@CJiangXiSSC@@AAEXXZ 004ca830 f   JiangXiSSC.obj
 0001:000c9830       ?ValidateTips@CWuFenCai@@AAEXXZ 004ca830 f   WuFenCai.obj
 0001:000c9830       ?ValidateTips@CFenFenCai@@AAEXXZ 004ca830 f   FenFenCai.obj
 0001:000c9b10       ?GetRenXuanCheckBox@CWuFenCai@@AAEHAAH0000@Z 004cab10 f   WuFenCai.obj
 0001:000c9b10       ?GetRenXuanCheckBox@CFenFenCai@@AAEHAAH0000@Z 004cab10 f   FenFenCai.obj
 0001:000c9b10       ?GetRenXuanCheckBox@CChongQingSSC@@AAEHAAH0000@Z 004cab10 f   ChongQingSSC.obj
 0001:000c9b10       ?GetRenXuanCheckBox@CXinJiangSSC@@AAEHAAH0000@Z 004cab10 f   XinJiangSSC.obj
 0001:000c9b10       ?GetRenXuanCheckBox@CJiangXiSSC@@AAEHAAH0000@Z 004cab10 f   JiangXiSSC.obj
 0001:000c9c00       ?OnBnClickedBtnLock@CJiangXiSSC@@AAEXXZ 004cac00 f   JiangXiSSC.obj
 0001:000c9d20       ?GetGameHoverIndex@CJiangXiSSC@@IAEGVCPoint@@@Z 004cad20 f   JiangXiSSC.obj
 0001:000c9d20       ?GetGameHoverIndex@CShanDong11X5@@IAEGVCPoint@@@Z 004cad20 f   ShanDong11X5.obj
 0001:000c9dc0       ?OnMouseMove@CJiangXiSSC@@IAEXIVCPoint@@@Z 004cadc0 f   JiangXiSSC.obj
 0001:000c9e60       ?OnLButtonDown@CJiangXiSSC@@IAEXIVCPoint@@@Z 004cae60 f   JiangXiSSC.obj
 0001:000c9e60       ?OnLButtonDown@CShanDong11X5@@IAEXIVCPoint@@@Z 004cae60 f   ShanDong11X5.obj
 0001:000c9ef0       ?OnLButtonUp@CJiangXiSSC@@IAEXIVCPoint@@@Z 004caef0 f   JiangXiSSC.obj
 0001:000c9ef0       ?OnLButtonUp@CShanDong11X5@@IAEXIVCPoint@@@Z 004caef0 f   ShanDong11X5.obj
 0001:000c9f90       ?OnMouseLeave@CJiangXiSSC@@IAEJIJ@Z 004caf90 f   JiangXiSSC.obj
 0001:000c9fc0       ?SendToServer@CJiangXiSSC@@QAEXH@Z 004cafc0 f   JiangXiSSC.obj
 0001:000ca170       ?ChangeStringToA@CChongQingSSC@@QAE_NV?$CStringT@_WV?$StrTraitMFC_DLL@_WV?$ChTraitsCRT@_W@ATL@@@@@ATL@@AAV?$basic_string@DU?$char_traits@D@std@@V?$allocator@D@2@@std@@@Z 004cb170 f   ChongQingSSC.obj
 0001:000ca170       ?ChangeStringToA@CFenFenCai@@QAE_NV?$CStringT@_WV?$StrTraitMFC_DLL@_WV?$ChTraitsCRT@_W@ATL@@@@@ATL@@AAV?$basic_string@DU?$char_traits@D@std@@V?$allocator@D@2@@std@@@Z 004cb170 f   FenFenCai.obj
 0001:000ca170       ?ChangeStringToA@CTzhxxDlg@@IAE_NV?$CStringT@_WV?$StrTraitMFC_DLL@_WV?$ChTraitsCRT@_W@ATL@@@@@ATL@@AAV?$basic_string@DU?$char_traits@D@std@@V?$allocator@D@2@@std@@@Z 004cb170 f   TzhxxDlg.obj
 0001:000ca170       ?ChangeStringToA@CChongQing11X5@@QAE_NV?$CStringT@_WV?$StrTraitMFC_DLL@_WV?$ChTraitsCRT@_W@ATL@@@@@ATL@@AAV?$basic_string@DU?$char_traits@D@std@@V?$allocator@D@2@@std@@@Z 004cb170 f   ChongQing11X5.obj
 0001:000ca170       ?ChangeStringToA@CShanDong11X5@@QAE_NV?$CStringT@_WV?$StrTraitMFC_DLL@_WV?$ChTraitsCRT@_W@ATL@@@@@ATL@@AAV?$basic_string@DU?$char_traits@D@std@@V?$allocator@D@2@@std@@@Z 004cb170 f   ShanDong11X5.obj
 0001:000ca170       ?ChangeStringToA@CGuangDong11X5@@AAE_NV?$CStringT@_WV?$StrTraitMFC_DLL@_WV?$ChTraitsCRT@_W@ATL@@@@@ATL@@AAV?$basic_string@DU?$char_traits@D@std@@V?$allocator@D@2@@std@@@Z 004cb170 f   GuangDong11X5.obj
 0001:000ca170       ?ChangeStringToA@CJiangXi11X5@@QAE_NV?$CStringT@_WV?$StrTraitMFC_DLL@_WV?$ChTraitsCRT@_W@ATL@@@@@ATL@@AAV?$basic_string@DU?$char_traits@D@std@@V?$allocator@D@2@@std@@@Z 004cb170 f   JiangXi11X5.obj
 0001:000ca170       ?ChangeStringToA@CWuFenCai@@QAE_NV?$CStringT@_WV?$StrTraitMFC_DLL@_WV?$ChTraitsCRT@_W@ATL@@@@@ATL@@AAV?$basic_string@DU?$char_traits@D@std@@V?$allocator@D@2@@std@@@Z 004cb170 f   WuFenCai.obj
 0001:000ca170       ?ChangeStringToA@CJiangXiSSC@@QAE_NV?$CStringT@_WV?$StrTraitMFC_DLL@_WV?$ChTraitsCRT@_W@ATL@@@@@ATL@@AAV?$basic_string@DU?$char_traits@D@std@@V?$allocator@D@2@@std@@@Z 004cb170 f   JiangXiSSC.obj
 0001:000ca170       ?ChangeStringToA@CXinJiangSSC@@QAE_NV?$CStringT@_WV?$StrTraitMFC_DLL@_WV?$ChTraitsCRT@_W@ATL@@@@@ATL@@AAV?$basic_string@DU?$char_traits@D@std@@V?$allocator@D@2@@std@@@Z 004cb170 f   XinJiangSSC.obj
 0001:000ca260       ?OnEventMissionLink@CJiangXiSSC@@UAE_NHH@Z 004cb260 f   JiangXiSSC.obj
 0001:000cb9e0       ?OnEventMissionShut@CJiangXiSSC@@UAE_NE@Z 004cc9e0 f   JiangXiSSC.obj
 0001:000cbb10       ?OnEventMissionRead@CJiangXiSSC@@UAE_NUTCP_Command@@PAXG@Z 004ccb10 f   JiangXiSSC.obj
 0001:000cc470       ?OnBnClickedRioWuXingZhx@CJiangXiSSC@@IAEXXZ 004cd470 f   JiangXiSSC.obj
 0001:000cc590       ?OnBnClickedRioWuXingQs@CJiangXiSSC@@IAEXXZ 004cd590 f   JiangXiSSC.obj
 0001:000cc660       ?OnBnClickedRioWuXingHS@CJiangXiSSC@@IAEXXZ 004cd660 f   JiangXiSSC.obj
 0001:000cc730       ?OnBnClickedRioWuXingZS@CJiangXiSSC@@IAEXXZ 004cd730 f   JiangXiSSC.obj
 0001:000cc810       ?OnBnClickedRioZuXuan120@CJiangXiSSC@@AAEXXZ 004cd810 f   JiangXiSSC.obj
 0001:000cc930       ?OnBnClickedRioZuXuan60@CJiangXiSSC@@AAEXXZ 004cd930 f   JiangXiSSC.obj
 0001:000cca60       ?OnBnClickedRioZuXuan30@CJiangXiSSC@@AAEXXZ 004cda60 f   JiangXiSSC.obj
 0001:000ccb90       ?OnBnClickedRioZuXuan20@CJiangXiSSC@@AAEXXZ 004cdb90 f   JiangXiSSC.obj
 0001:000cccc0       ?OnBnClickedRioZuXuan10@CJiangXiSSC@@AAEXXZ 004cdcc0 f   JiangXiSSC.obj
 0001:000ccdf0       ?OnBnClickedRioZuXuan5@CJiangXiSSC@@AAEXXZ 004cddf0 f   JiangXiSSC.obj
 0001:000ccf20       ?ShowDanHao@CJiangXiSSC@@AAEXXZ 004cdf20 f   JiangXiSSC.obj
 0001:000ccf70       ?ShowErChong1@CJiangXiSSC@@AAEXXZ 004cdf70 f   JiangXiSSC.obj
 0001:000ccfc0       ?OnBnClickedRioQsHezhi@CJiangXiSSC@@QAEXXZ 004cdfc0 f   JiangXiSSC.obj
 0001:000cd070       ?OnBnClickedRioHsHezhi@CJiangXiSSC@@QAEXXZ 004ce070 f   JiangXiSSC.obj
 0001:000cd120       ?OnBnClickedRioHebdw@CJiangXiSSC@@IAEXXZ 004ce120 f   JiangXiSSC.obj
 0001:000cd1f0       ?OnBnClickedRioQebdw@CJiangXiSSC@@IAEXXZ 004ce1f0 f   JiangXiSSC.obj
 0001:000cd2c0       ?GetKeyBoardHaoma@CJiangXiSSC@@AAE_NAAV?$CStringT@_WV?$StrTraitMFC_DLL@_WV?$ChTraitsCRT@_W@ATL@@@@@ATL@@HH@Z 004ce2c0 f   JiangXiSSC.obj
 0001:000cd5a0       ?GetKeyHaomaStrs@CJiangXiSSC@@AAE_NAAVCStringArray@@V?$CStringT@_WV?$StrTraitMFC_DLL@_WV?$ChTraitsCRT@_W@ATL@@@@@ATL@@HH@Z 004ce5a0 f   JiangXiSSC.obj
 0001:000ce800       ??_ECJiangXiSSC@@WHE@AEPAXI@Z 004cf800 f i JiangXiSSC.obj
 0001:000ce810       ?_GetBaseClass@CListCtrlCl@@KGPAUCRuntimeClass@@XZ 004cf810 f   ListCtrlCl.obj
 0001:000ce830       ?GetRuntimeClass@CListCtrlCl@@UBEPAUCRuntimeClass@@XZ 004cf830 f   ListCtrlCl.obj
 0001:000ce850       ??0CListCtrlCl@@QAE@XZ     004cf850 f   ListCtrlCl.obj
 0001:000ce970       ??_GCListCtrlCl@@UAEPAXI@Z 004cf970 f i ListCtrlCl.obj
 0001:000ce970       ??_ECListCtrlCl@@UAEPAXI@Z 004cf970 f i ListCtrlCl.obj
 0001:000ce9b0       ??1CListCtrlCl@@UAE@XZ     004cf9b0 f   ListCtrlCl.obj
 0001:000cebc0       ?GetMessageMap@CListCtrlCl@@MBEPBUAFX_MSGMAP@@XZ 004cfbc0 f   ListCtrlCl.obj
 0001:000cebe0       ?GetThisMessageMap@CListCtrlCl@@KGPBUAFX_MSGMAP@@XZ 004cfbe0 f   ListCtrlCl.obj
 0001:000cec00       ?OnPaint@CListCtrlCl@@QAEXXZ 004cfc00 f   ListCtrlCl.obj
 0001:000cee20       ?PreSubclassWindow@CListCtrlCl@@MAEXXZ 004cfe20 f   ListCtrlCl.obj
 0001:000ceea0       ?DrawItem@CListCtrlCl@@UAEXPAUtagDRAWITEMSTRUCT@@@Z 004cfea0 f   ListCtrlCl.obj
 0001:000cf470       ?OnMeasureItem@CListCtrlCl@@QAEXHPAUtagMEASUREITEMSTRUCT@@@Z 004d0470 f   ListCtrlCl.obj
 0001:000cf4a0       ?MeasureItem@CListCtrlCl@@QAEXPAUtagMEASUREITEMSTRUCT@@@Z 004d04a0 f   ListCtrlCl.obj
 0001:000cf4d0       ?InsertColumn@CListCtrlCl@@QAEHHPB_WHHH@Z 004d04d0 f   ListCtrlCl.obj
 0001:000cf690       ?FindColColor@CListCtrlCl@@QAE_NHAAK@Z 004d0690 f   ListCtrlCl.obj
 0001:000cf710       ?FindItemColor@CListCtrlCl@@QAE_NHHAAK@Z 004d0710 f   ListCtrlCl.obj
 0001:000cf7a0       ?SetRowHeigt@CListCtrlCl@@QAEXH@Z 004d07a0 f   ListCtrlCl.obj
 0001:000cf810       ?SetHeaderTextColor@CListCtrlCl@@QAEXK@Z 004d0810 f   ListCtrlCl.obj
 0001:000cf840       ?SetTextColor@CListCtrlCl@@QAEHK@Z 004d0840 f   ListCtrlCl.obj
 0001:000cf870       ?SetFontHW@CListCtrlCl@@QAEXHH@Z 004d0870 f   ListCtrlCl.obj
 0001:000cf8a0       ?FindColTextColor@CListCtrlCl@@QAE_NHAAK@Z 004d08a0 f   ListCtrlCl.obj
 0001:000cf920       ?FindItemTextColor@CListCtrlCl@@QAE_NHHAAK@Z 004d0920 f   ListCtrlCl.obj
 0001:000cf9b0       ?GetNext@CPtrList@@QAEAAPAXAAPAU__POSITION@@@Z 004d09b0 f i ListCtrlCl.obj
 0001:000cf9f0       ??0CListCtrl@@QAE@XZ       004d09f0 f i ListCtrlCl.obj
 0001:000cfa20       ??_ECListCtrl@@UAEPAXI@Z   004d0a20 f i ListCtrlCl.obj
 0001:000cfa20       ??_GCListCtrl@@UAEPAXI@Z   004d0a20 f i ListCtrlCl.obj
 0001:000cfa60       ?GetBkColor@CListCtrl@@QBEKXZ 004d0a60 f i ListCtrlCl.obj
 0001:000cfa90       ?SetBkColor@CListCtrl@@QAEHK@Z 004d0a90 f i ListCtrlCl.obj
 0001:000cfac0       ?GetItem@CListCtrl@@QBEHPAUtagLVITEMW@@@Z 004d0ac0 f i ListCtrlCl.obj
 0001:000cfaf0       ?GetColumn@CListCtrl@@QBEHHPAUtagLVCOLUMNW@@@Z 004d0af0 f i ListCtrlCl.obj
 0001:000cfb20       ?GetColumnWidth@CListCtrl@@QBEHH@Z 004d0b20 f i ListCtrlCl.obj
 0001:000cfb50       ?x_StrInsertReplace@@YAXAAV?$CStringT@_WV?$StrTraitMFC_DLL@_WV?$ChTraitsCRT@_W@ATL@@@@@ATL@@HHABV12@@Z 004d0b50 f   Markup.obj
 0001:000cfc40       ?x_Hash@@YAHPB_WH@Z        004d0c40 f   Markup.obj
 0001:000cfc90       ?x_StrNCmp@@YAHPB_W0HH@Z   004d0c90 f   Markup.obj
 0001:000cfdc0       ?x_AddResult@@YAXAAV?$CStringT@_WV?$StrTraitMFC_DLL@_WV?$ChTraitsCRT@_W@ATL@@@@@ATL@@UMCD_CSTR@@1HHH@Z 004d0dc0 f   Markup.obj
 0001:000d0010       ?x_GetEncodingCodePage@@YAHUMCD_CSTR@@@Z 004d1010 f   Markup.obj
 0001:000d0240       ?x_NoDefaultChar@@YA_NH@Z  004d1240 f   Markup.obj
 0001:000d02d0       ?PerformConversion@TextEncoding@@QAEHPAXUMCD_CSTR@@@Z 004d12d0 f   Markup.obj
 0001:000d0690       ?FindRaggedEnd@TextEncoding@@QAE_NAAH@Z 004d1690 f   Markup.obj
 0001:000d0cf0       ?swprintf@@YAHPA_WPB_WZZ   004d1cf0 f i Markup.obj
 0001:000d0d30       ?x_EndianSwapRequired@@YA_NH@Z 004d1d30 f   Markup.obj
 0001:000d0d80       ?x_EndianSwapUTF16@@YAXPAGH@Z 004d1d80 f   Markup.obj
 0001:000d0dd0       ?ReleaseElemPosTree@ElemPosTree@@QAEXXZ 004d1dd0 f i Markup.obj
 0001:000d0e00       ?Release@ElemPosTree@@QAEXXZ 004d1e00 f i Markup.obj
 0001:000d0e70       ?Clear@ElemPosTree@@QAEXXZ 004d1e70 f i Markup.obj
 0001:000d0ea0       ?SegsUsed@ElemPosTree@@QBEHXZ 004d1ea0 f i Markup.obj
 0001:000d0ed0       ?GrowElemPosTree@ElemPosTree@@QAEXH@Z 004d1ed0 f   Markup.obj
 0001:000d10e0       ?FindAttrib@TokenPos@@QAE_NPB_WHPAV?$CStringT@_WV?$StrTraitMFC_DLL@_WV?$ChTraitsCRT@_W@ATL@@@@@ATL@@@Z 004d20e0 f   Markup.obj
 0001:000d1490       ?GetTokenText@TokenPos@@QBE?AV?$CStringT@_WV?$StrTraitMFC_DLL@_WV?$ChTraitsCRT@_W@ATL@@@@@ATL@@XZ 004d2490 f i Markup.obj
 0001:000d14e0       ?Length@TokenPos@@QBEHXZ   004d24e0 f i Markup.obj
 0001:000d1510       ?GetTokenPtr@TokenPos@@QBEPB_WXZ 004d2510 f i Markup.obj
 0001:000d1540       ?NextChar@TokenPos@@QAE_WXZ 004d2540 f i Markup.obj
 0001:000d1580       ?FindAny@TokenPos@@QAE_NXZ 004d2580 f i Markup.obj
 0001:000d1640       ?Match@TokenPos@@QAE_NUMCD_CSTR@@@Z 004d2640 f i Markup.obj
 0001:000d1710       ??_ETagPos@@QAEPAXI@Z      004d2710 f i Markup.obj
 0001:000d1790       ?CalcSlot@ElemStack@@SAHPB_WH_N@Z 004d2790 f   Markup.obj
 0001:000d1810       ?PushTagAndCount@ElemStack@@QAEXAAUTokenPos@@@Z 004d2810 f   Markup.obj
 0001:000d1a90       ?Init@TagPos@@QAEXHH@Z     004d2a90 f i Markup.obj
 0001:000d1af0       ?IncCount@TagPos@@QAEXXZ   004d2af0 f i Markup.obj
 0001:000d1b20       ?Current@ElemStack@@QAEAAUTagPos@@XZ 004d2b20 f i Markup.obj
 0001:000d1b50       ?Push@ElemStack@@QAEXPB_WH@Z 004d2b50 f i Markup.obj
 0001:000d1be0       ?SetTagName@TagPos@@QAEXPB_WH@Z 004d2be0 f i Markup.obj
 0001:000d1c30       ?Slot@ElemStack@@QAEXH@Z   004d2c30 f i Markup.obj
 0001:000d1cb0       ?Unslot@ElemStack@@QAEXAAUTagPos@@@Z 004d2cb0 f i Markup.obj
 0001:000d1d20       ?Alloc@ElemStack@@IAEXH@Z  004d2d20 f i Markup.obj
 0001:000d1e00       ??0TagPos@@QAE@XZ          004d2e00 f i Markup.obj
 0001:000d1e70       ?Copy@ElemStack@@IAEXPAUTagPos@@@Z 004d2e70 f i Markup.obj
 0001:000d1f00       ??4TagPos@@QAEAAU0@ABU0@@Z 004d2f00 f i Markup.obj
 0001:000d1f90       ?FileErrorAddResult@FilePos@@QAE_NXZ 004d2f90 f   Markup.obj
 0001:000d2170       ?FileSpecifyEncoding@FilePos@@QAEXPAV?$CStringT@_WV?$StrTraitMFC_DLL@_WV?$ChTraitsCRT@_W@ATL@@@@@ATL@@@Z 004d3170 f   Markup.obj
 0001:000d21f0       ?FileOpen@FilePos@@QAE_NUMCD_CSTR@@@Z 004d31f0 f   Markup.obj
 0001:000d2730       ??0TextEncoding@@QAE@UMCD_CSTR@@PBXH@Z 004d3730 f i Markup.obj
 0001:000d27e0       ??1TextEncoding@@QAE@XZ    004d37e0 f i Markup.obj
 0001:000d2810       ?FileRead@FilePos@@QAE_NPAX@Z 004d3810 f   Markup.obj
 0001:000d2a70       ?FileCheckRaggedEnd@FilePos@@QAE_NPAX@Z 004d3a70 f   Markup.obj
 0001:000d2c20       ?FileReadText@FilePos@@QAE_NAAV?$CStringT@_WV?$StrTraitMFC_DLL@_WV?$ChTraitsCRT@_W@ATL@@@@@ATL@@@Z 004d3c20 f   Markup.obj
 0001:000d2f80       ?FileWrite@FilePos@@QAE_NPAXPBX@Z 004d3f80 f   Markup.obj
 0001:000d3110       ?FileWriteText@FilePos@@QAE_NABV?$CStringT@_WV?$StrTraitMFC_DLL@_WV?$ChTraitsCRT@_W@ATL@@@@@ATL@@H@Z 004d4110 f   Markup.obj
 0001:000d3330       ?FileClose@FilePos@@QAE_NXZ 004d4330 f   Markup.obj
 0001:000d3390       ?FileReadNextBuffer@FilePos@@QAE_NXZ 004d4390 f   Markup.obj
 0001:000d35a0       ?FileFlush@FilePos@@QAE_NAAV?$CStringT@_WV?$StrTraitMFC_DLL@_WV?$ChTraitsCRT@_W@ATL@@@@@ATL@@H_N@Z 004d45a0 f   Markup.obj
 0001:000d3740       ?ParsePath@PathPos@@AAE_NXZ 004d4740 f   Markup.obj
 0001:000d38f0       ?GetTypeAndInc@PathPos@@QAEHXZ 004d48f0 f i Markup.obj
 0001:000d3980       ?GetNumAndInc@PathPos@@QAEHXZ 004d4980 f i Markup.obj
 0001:000d3a00       ?GetValAndInc@PathPos@@QAEPB_WXZ 004d4a00 f i Markup.obj
 0001:000d3ac0       ?GetChar@PathPos@@QAE_WXZ  004d4ac0 f i Markup.obj
 0001:000d3af0       ?SaveOffset@PathPos@@QAEXXZ 004d4af0 f i Markup.obj
 0001:000d3b10       ?RevertOffset@PathPos@@QAEXXZ 004d4b10 f i Markup.obj
 0001:000d3b30       ?IncWord@PathPos@@QAEXXZ   004d4b30 f i Markup.obj
 0001:000d3bc0       ?IncWord@PathPos@@QAEX_W@Z 004d4bc0 f i Markup.obj
 0001:000d3c20       ?IncChar@PathPos@@QAEXXZ   004d4c20 f i Markup.obj
 0001:000d3c50       ?IsAnywherePath@PathPos@@QAE_NXZ 004d4c50 f i Markup.obj
 0001:000d3c70       ?GetPtr@PathPos@@QAEPB_WXZ 004d4c70 f i Markup.obj
 0001:000d3ca0       ??_ESavedPos@@QAEPAXI@Z    004d4ca0 f i Markup.obj
 0001:000d3d20       ??1TagPos@@QAE@XZ          004d4d20 f i Markup.obj
 0001:000d3d20       ??1SavedPos@@QAE@XZ        004d4d20 f i Markup.obj
 0001:000d3d40       ?ReleaseMaps@SavedPosMapArray@@QAEXXZ 004d4d40 f i Markup.obj
 0001:000d3dc0       ??_GSavedPosMap@@QAEPAXI@Z 004d4dc0 f i Markup.obj
 0001:000d3e00       ??1SavedPosMap@@QAE@XZ     004d4e00 f i Markup.obj
 0001:000d3e90       ?ParseNode@TokenPos@@QAEHAAUNodePos@@@Z 004d4e90 f   Markup.obj
 0001:000d4930       ??1CMarkup@@QAE@XZ         004d5930 f   Markup.obj
 0001:000d49f0       ??_GSavedPosMapArray@@QAEPAXI@Z 004d59f0 f i Markup.obj
 0001:000d4a30       ??1SavedPosMapArray@@QAE@XZ 004d5a30 f i Markup.obj
 0001:000d4a50       ??_GElemPosTree@@QAEPAXI@Z 004d5a50 f i Markup.obj
 0001:000d4a90       ??1ElemPosTree@@QAE@XZ     004d5a90 f i Markup.obj
 0001:000d4ab0       ?SetDoc@CMarkup@@QAE_NPB_W@Z 004d5ab0 f   Markup.obj
 0001:000d4b70       ?IsWellFormed@CMarkup@@QAE_NXZ 004d5b70 f   Markup.obj
 0001:000d4c20       ?GetRefElemPosAt@ElemPosTree@@QBEAAUElemPos@@H@Z 004d5c20 f i Markup.obj
 0001:000d4c60       ?Load@CMarkup@@QAE_NUMCD_CSTR@@@Z 004d5c60 f   Markup.obj
 0001:000d4cc0       ?ReadTextFile@CMarkup@@SA_NUMCD_CSTR@@AAV?$CStringT@_WV?$StrTraitMFC_DLL@_WV?$ChTraitsCRT@_W@ATL@@@@@ATL@@PAV34@PAH2@Z 004d5cc0 f   Markup.obj
 0001:000d4e10       ??0FilePos@@QAE@XZ         004d5e10 f i Markup.obj
 0001:000d4f20       ??0ElemStack@@QAE@XZ       004d5f20 f i Markup.obj
 0001:000d4fa0       ?InitTable@ElemStack@@QAEXXZ 004d5fa0 f i Markup.obj
 0001:000d4fd0       ??1FilePos@@QAE@XZ         004d5fd0 f i Markup.obj
 0001:000d5060       ??1ElemStack@@QAE@XZ       004d6060 f i Markup.obj
 0001:000d50b0       ?FindElem@CMarkup@@QAE_NUMCD_CSTR@@@Z 004d60b0 f   Markup.obj
 0001:000d5140       ??0PathPos@@QAE@PB_W_N@Z   004d6140 f i Markup.obj
 0001:000d51b0       ?FindChildElem@CMarkup@@QAE_NUMCD_CSTR@@@Z 004d61b0 f   Markup.obj
 0001:000d5270       ?EscapeText@CMarkup@@SA?AV?$CStringT@_WV?$StrTraitMFC_DLL@_WV?$ChTraitsCRT@_W@ATL@@@@@ATL@@UMCD_CSTR@@H@Z 004d6270 f   Markup.obj
 0001:000d55e0       ?UnescapeText@CMarkup@@SA?AV?$CStringT@_WV?$StrTraitMFC_DLL@_WV?$ChTraitsCRT@_W@ATL@@@@@ATL@@UMCD_CSTR@@HH@Z 004d65e0 f   Markup.obj
 0001:000d5a30       ?DetectUTF8@CMarkup@@SA_NPBDHPAHPA_N@Z 004d6a30 f   Markup.obj
 0001:000d5ae0       ?DecodeCharUTF8@CMarkup@@SAHAAPBDPBD@Z 004d6ae0 f   Markup.obj
 0001:000d5bd0       ?EncodeCharUTF16@CMarkup@@SAXHPAGAAH@Z 004d6bd0 f   Markup.obj
 0001:000d5c90       ?DecodeCharUTF16@CMarkup@@SAHAAPBGPBG@Z 004d6c90 f   Markup.obj
 0001:000d5d20       ?EncodeCharUTF8@CMarkup@@SAXHPADAAH@Z 004d6d20 f   Markup.obj
 0001:000d5f30       ?GetDeclaredEncoding@CMarkup@@SA?AV?$CStringT@_WV?$StrTraitMFC_DLL@_WV?$ChTraitsCRT@_W@ATL@@@@@ATL@@UMCD_CSTR@@@Z 004d6f30 f   Markup.obj
 0001:000d62e0       ??0NodePos@@QAE@XZ         004d72e0 f i Markup.obj
 0001:000d6310       ??0TokenPos@@QAE@UMCD_CSTR@@HPAUFilePos@@@Z 004d7310 f i Markup.obj
 0001:000d6350       ?Clear@TokenPos@@QAEXXZ    004d7350 f i Markup.obj
 0001:000d6380       ?FindName@TokenPos@@QAE_NXZ 004d7380 f i Markup.obj
 0001:000d6430       ??1NodePos@@QAE@XZ         004d7430 f i Markup.obj
 0001:000d6450       ?IsEmptyElement@ElemPos@@QAE_NXZ 004d7450 f i Markup.obj
 0001:000d6480       ?StartTagLen@ElemPos@@QBEHXZ 004d7480 f i Markup.obj
 0001:000d64a0       ?StartContent@ElemPos@@QBEHXZ 004d74a0 f i Markup.obj
 0001:000d64c0       ?ContentLen@ElemPos@@QBEHXZ 004d74c0 f i Markup.obj
 0001:000d64f0       ?EndTagLen@ElemPos@@QBEHXZ 004d74f0 f i Markup.obj
 0001:000d6520       ?StartAfter@ElemPos@@QBEHXZ 004d7520 f i Markup.obj
 0001:000d6540       ?x_InitMarkup@CMarkup@@IAEXXZ 004d7540 f   Markup.obj
 0001:000d6620       ??0ElemPosTree@@QAE@XZ     004d7620 f i Markup.obj
 0001:000d6640       ??0?$CAtlSafeAllocBufferManager@VCCRTAllocator@ATL@@@_ATL_SAFE_ALLOCA_IMPL@ATL@@QAE@XZ 004d7640 f i DlgCollocate.obj
 0001:000d6640       ??0_Iterator_base@std@@QAE@XZ 004d7640 f i ChongQingSSC.obj
 0001:000d6640       ??0SavedPosMapArray@@QAE@XZ 004d7640 f i Markup.obj
 0001:000d6660       ?x_SetPos@CMarkup@@IAEXHHH@Z 004d7660 f   Markup.obj
 0001:000d66c0       ?x_GetFreePos@CMarkup@@IAEHXZ 004d76c0 f   Markup.obj
 0001:000d6710       ?x_AllocElemPos@CMarkup@@IAE_NH@Z 004d7710 f   Markup.obj
 0001:000d6760       ?x_ParseDoc@CMarkup@@IAE_NXZ 004d7760 f   Markup.obj
 0001:000d68c0       ?ClearVirtualParent@ElemPos@@QAEXXZ 004d78c0 f i Markup.obj
 0001:000d68f0       ?x_ParseElem@CMarkup@@IAEHHAAUTokenPos@@@Z 004d78f0 f   Markup.obj
 0001:000d6fa0       ?SetStartTagLen@ElemPos@@QAEXH@Z 004d7fa0 f i Markup.obj
 0001:000d6fe0       ?SetEndTagLen@ElemPos@@QAEXH@Z 004d7fe0 f i Markup.obj
 0001:000d7020       ?Level@ElemPos@@QBEHXZ     004d8020 f i Markup.obj
 0001:000d7040       ?SetLevel@ElemPos@@QAEXH@Z 004d8040 f i Markup.obj
 0001:000d7070       ?GetRefTagPosAt@ElemStack@@QAEAAUTagPos@@H@Z 004d8070 f i Markup.obj
 0001:000d70a0       ?PushIntoLevel@ElemStack@@QAEXPB_WH@Z 004d80a0 f i Markup.obj
 0001:000d7100       ?PopOutOfLevel@ElemStack@@QAEXXZ 004d8100 f i Markup.obj
 0001:000d7120       ?x_FindElem@CMarkup@@IBEHHHAAUPathPos@@@Z 004d8120 f   Markup.obj
 0001:000d7240       ?IsAbsolutePath@PathPos@@QAE_NXZ 004d8240 f i Markup.obj
 0001:000d7260       ?IsPath@PathPos@@QAE_NXZ   004d8260 f i Markup.obj
 0001:000d7280       ?ValidPath@PathPos@@QAE_NXZ 004d8280 f i Markup.obj
 0001:000d72a0       ?x_GetTagName@CMarkup@@IBE?AV?$CStringT@_WV?$StrTraitMFC_DLL@_WV?$ChTraitsCRT@_W@ATL@@@@@ATL@@H@Z 004d82a0 f   Markup.obj
 0001:000d7340       ?x_GetAttrib@CMarkup@@IBE?AV?$CStringT@_WV?$StrTraitMFC_DLL@_WV?$ChTraitsCRT@_W@ATL@@@@@ATL@@HPB_W@Z 004d8340 f   Markup.obj
 0001:000d7460       ?x_SetAttrib@CMarkup@@IAE_NHPB_WHH@Z 004d8460 f   Markup.obj
 0001:000d74c0       ?x_SetAttrib@CMarkup@@IAE_NHPB_W0H@Z 004d84c0 f   Markup.obj
 0001:000d7940       ?AdjustStartTagLen@ElemPos@@QAEXH@Z 004d8940 f i Markup.obj
 0001:000d7980       ?x_EncodeCDATASection@CMarkup@@KA?AV?$CStringT@_WV?$StrTraitMFC_DLL@_WV?$ChTraitsCRT@_W@ATL@@@@@ATL@@PB_W@Z 004d8980 f   Markup.obj
 0001:000d7ab0       ??0NodePos@@QAE@H@Z        004d8ab0 f i Markup.obj
 0001:000d7b00       ?x_GetData@CMarkup@@IAE?AV?$CStringT@_WV?$StrTraitMFC_DLL@_WV?$ChTraitsCRT@_W@ATL@@@@@ATL@@H@Z 004d8b00 f   Markup.obj
 0001:000d81b0       ?IsUnparsed@ElemPos@@QAE_NXZ 004d91b0 f i Markup.obj
 0001:000d81e0       ?OutOfLevel@ElemStack@@QAEXXZ 004d91e0 f i Markup.obj
 0001:000d8230       ?Pop@ElemStack@@QAEXXZ     004d9230 f i Markup.obj
 0001:000d82c0       ?x_DocChange@CMarkup@@IAEXHHABV?$CStringT@_WV?$StrTraitMFC_DLL@_WV?$ChTraitsCRT@_W@ATL@@@@@ATL@@@Z 004d92c0 f   Markup.obj
 0001:000d82f0       ?x_Adjust@CMarkup@@IAEXHH_N@Z 004d92f0 f   Markup.obj
 0001:000d8480       ?x_InsertNew@CMarkup@@IAEHHAAHAAUNodePos@@@Z 004d9480 f   Markup.obj
 0001:000d8b50       ?WhitespaceToTag@TokenPos@@QAEHH@Z 004d9b50 f i Markup.obj
 0001:000d8bb0       ?x_AddElem@CMarkup@@IAE_NPB_W0H@Z 004d9bb0 f   Markup.obj
 0001:000d9120       ?x_LinkElem@CMarkup@@IAEXHHH@Z 004da120 f   Markup.obj
 0001:000d9360       ?x_UnlinkPrevElem@CMarkup@@IAEHHHH@Z 004da360 f   Markup.obj
 0001:000d9420       ?x_ReleasePos@CMarkup@@IAEHH@Z 004da420 f   Markup.obj
 0001:000d9490       ?x_AdjustForNode@CMarkup@@IAEXHHH@Z 004da490 f   Markup.obj
 0001:000d9530       ??HATL@@YA?AV?$CStringT@_WV?$StrTraitMFC_DLL@_WV?$ChTraitsCRT@_W@ATL@@@@@0@PB_WABV10@@Z 004da530 f i Markup.obj
 0001:000d95f0       ??9ATL@@YA_NABV?$CStringT@_WV?$StrTraitMFC_DLL@_WV?$ChTraitsCRT@_W@ATL@@@@@0@PB_W@Z 004da5f0 f i Markup.obj
 0001:000d9620       ??0CMarkup@@QAE@UMCD_CSTR@@@Z 004da620 f i Markup.obj
 0001:000d96b0       ?ResetPos@CMarkup@@QAEXXZ  004da6b0 f i Markup.obj
 0001:000d96e0       ?AddElem@CMarkup@@QAE_NUMCD_CSTR@@0H@Z 004da6e0 f i Markup.obj
 0001:000d9720       ?SetAttrib@CMarkup@@QAE_NUMCD_CSTR@@0H@Z 004da720 f i Markup.obj
 0001:000d9760       ?SetAttrib@CMarkup@@QAE_NUMCD_CSTR@@HH@Z 004da760 f i Markup.obj
 0001:000d97a0       ?GetRuntimeClass@CMessageDlg@@UBEPAUCRuntimeClass@@XZ 004da7a0 f   MessageDlg.obj
 0001:000d97c0       ??0CMessageDlg@@QAE@PAVCWnd@@@Z 004da7c0 f   MessageDlg.obj
 0001:000d98b0       ??_GCMessageDlg@@UAEPAXI@Z 004da8b0 f i MessageDlg.obj
 0001:000d98b0       ??_ECMessageDlg@@UAEPAXI@Z 004da8b0 f i MessageDlg.obj
 0001:000d98f0       ??1CMessageDlg@@UAE@XZ     004da8f0 f   MessageDlg.obj
 0001:000d9a30       ?DoDataExchange@CMessageDlg@@MAEXPAVCDataExchange@@@Z 004daa30 f   MessageDlg.obj
 0001:000d9a80       ?GetMessageMap@CMessageDlg@@MBEPBUAFX_MSGMAP@@XZ 004daa80 f   MessageDlg.obj
 0001:000d9aa0       ?GetThisMessageMap@CMessageDlg@@KGPBUAFX_MSGMAP@@XZ 004daaa0 f   MessageDlg.obj
 0001:000d9ac0       ?OnPaint@CMessageDlg@@IAEXXZ 004daac0 f   MessageDlg.obj
 0001:000d9e10       ?OnInitDialog@CMessageDlg@@MAEHXZ 004dae10 f   MessageDlg.obj
 0001:000da0c0       ?OnSize@CMessageDlg@@IAEXIHH@Z 004db0c0 f   MessageDlg.obj
 0001:000da190       ?MyMessageBox@@YAXABV?$CStringT@_WV?$StrTraitMFC_DLL@_WV?$ChTraitsCRT@_W@ATL@@@@@ATL@@0@Z 004db190 f   MessageDlg.obj
 0001:000da220       ?OnLButtonDown@CDlgFandian@@IAEXIVCPoint@@@Z 004db220 f   DlgFandian.obj
 0001:000da220       ?OnLButtonDown@CMessageDlg@@IAEXIVCPoint@@@Z 004db220 f   MessageDlg.obj
 0001:000da220       ?OnLButtonDown@CQrTzhDlg@@IAEXIVCPoint@@@Z 004db220 f   QrTzhDlg.obj
 0001:000da220       ?OnLButtonDown@CDlgAddtional@@IAEXIVCPoint@@@Z 004db220 f   DlgAddtional.obj
 0001:000da220       ?OnLButtonDown@CTzhxxDlg@@IAEXIVCPoint@@@Z 004db220 f   TzhxxDlg.obj
 0001:000da280       ?GetMessageMap@CMissionList@@MBEPBUAFX_MSGMAP@@XZ 004db280 f   MissionList.obj
 0001:000da2a0       ?GetThisMessageMap@CMissionList@@KGPBUAFX_MSGMAP@@XZ 004db2a0 f   MissionList.obj
 0001:000da2c0       ??0CMissionList@@QAE@XZ    004db2c0 f   MissionList.obj
 0001:000da350       ??_ECMissionList@@UAEPAXI@Z 004db350 f i MissionList.obj
 0001:000da350       ??_GCMissionList@@UAEPAXI@Z 004db350 f i MissionList.obj
 0001:000da390       ??1CMissionList@@UAE@XZ    004db390 f   MissionList.obj
 0001:000da450       ?OnEventMissionLink@CMissionList@@UAE_NHH@Z 004db450 f   MissionList.obj
 0001:000da600       ?GetInstance@CServerListData@@SAPAV1@XZ 004db600 f i MissionList.obj
 0001:000da620       ?OnEventMissionShut@CMissionList@@UAE_NE@Z 004db620 f   MissionList.obj
 0001:000da6a0       ?OnEventMissionRead@CMissionList@@UAE_NUTCP_Command@@PAXG@Z 004db6a0 f   MissionList.obj
 0001:000dab20       ?UpdateOnLineInfo@CMissionList@@QAEXXZ 004dbb20 f   MissionList.obj
 0001:000dabc0       ?UpdateMissionStatus@CMissionList@@QAEX_N@Z 004dbbc0 f   MissionList.obj
 0001:000dac60       ?OnTimer@CMissionList@@IAEXI@Z 004dbc60 f   MissionList.obj
 0001:000dad10       ??_ECMissionList@@WFE@AEPAXI@Z 004dbd10 f i MissionList.obj
 0001:000dad20       ?GetMessageMap@CMissionLogon@@MBEPBUAFX_MSGMAP@@XZ 004dbd20 f   MissionLogon.obj
 0001:000dad40       ?GetThisMessageMap@CMissionLogon@@KGPBUAFX_MSGMAP@@XZ 004dbd40 f   MissionLogon.obj
 0001:000dad60       ??0CMissionLogon@@QAE@XZ   004dbd60 f   MissionLogon.obj
 0001:000dae60       ??_ECMissionLogon@@UAEPAXI@Z 004dbe60 f i MissionLogon.obj
 0001:000dae60       ??_GCMissionLogon@@UAEPAXI@Z 004dbe60 f i MissionLogon.obj
 0001:000daea0       ??1CMissionLogon@@UAE@XZ   004dbea0 f   MissionLogon.obj
 0001:000db010       ?OnStatusCancel@CMissionLogon@@UAEXXZ 004dc010 f   MissionLogon.obj
 0001:000db0b0       ?OnEventMissionLink@CMissionLogon@@UAE_NHH@Z 004dc0b0 f   MissionLogon.obj
 0001:000db210       ?OnEventMissionShut@CMissionLogon@@UAE_NE@Z 004dc210 f   MissionLogon.obj
 0001:000db340       ?OnEventMissionRead@CMissionLogon@@UAE_NUTCP_Command@@PAXG@Z 004dc340 f   MissionLogon.obj
 0001:000db470       ?ShowLogon@CMissionLogon@@QAEXXZ 004dc470 f   MissionLogon.obj
 0001:000db5c0       ?ShowRegister@CMissionLogon@@QAEXXZ 004dc5c0 f   MissionLogon.obj
 0001:000db700       ?UpdateUserInfo@CMissionLogon@@IAEXXZ 004dc700 f   MissionLogon.obj
 0001:000db9a0       ?PerformLogonMission@CMissionLogon@@IAE_N_N@Z 004dc9a0 f   MissionLogon.obj
 0001:000dbb50       ?OnSocketSubLogonSuccess@CMissionLogon@@IAE_NPAXG@Z 004dcb50 f   MissionLogon.obj
 0001:000dbd80       ?OnSocketSubLogonFailure@CMissionLogon@@IAE_NPAXG@Z 004dcd80 f   MissionLogon.obj
 0001:000dbe50       ?OnSocketSubLogonFinish@CMissionLogon@@IAE_NPAXG@Z 004dce50 f   MissionLogon.obj
 0001:000dc000       ?OnSocketSubUpdateNotify@CMissionLogon@@IAE_NPAXG@Z 004dd000 f   MissionLogon.obj
 0001:000dc180       ?GetInstance@CGlobalUnits@@SAPAV1@XZ 004dd180 f i MissionLogon.obj
 0001:000dc1a0       ??_ECMissionLogon@@WBEE@AEPAXI@Z 004dd1a0 f i MissionLogon.obj
 0001:000dc1b0       ?GetData@CRecvPacketHelper@@QAEPAXAAUtagDataDescribe@@@Z 004dd1b0 f i MissionLogon.obj
 0001:000dc280       ?OnPaint@CMyCheckBox@@QAEXXZ 004dd280 f   MyCheckBox.obj
 0001:000dc480       ?GetTextExtent@CDC@@QBE?AVCSize@@ABV?$CStringT@_WV?$StrTraitMFC_DLL@_WV?$ChTraitsCRT@_W@ATL@@@@@ATL@@@Z 004dd480 f i MyCheckBox.obj
 0001:000dc4d0       ?GetRuntimeClass@CNumerButton@@UBEPAUCRuntimeClass@@XZ 004dd4d0 f   NumerButton.obj
 0001:000dc4f0       ??0CNumerButton@@QAE@XZ    004dd4f0 f   NumerButton.obj
 0001:000dc620       ??_ECNumerButton@@UAEPAXI@Z 004dd620 f i NumerButton.obj
 0001:000dc620       ??_GCNumerButton@@UAEPAXI@Z 004dd620 f i NumerButton.obj
 0001:000dc660       ??1CNumerButton@@UAE@XZ    004dd660 f   NumerButton.obj
 0001:000dc720       ?SetImage@CNumerButton@@QAEXPAVBitmap@Gdiplus@@HH@Z 004dd720 f   NumerButton.obj
 0001:000dc780       ?SetSelect@CNumerButton@@QAEX_N@Z 004dd780 f   NumerButton.obj
 0001:000dc7c0       ?GetMessageMap@CNumerButton@@MBEPBUAFX_MSGMAP@@XZ 004dd7c0 f   NumerButton.obj
 0001:000dc7e0       ?GetThisMessageMap@CNumerButton@@KGPBUAFX_MSGMAP@@XZ 004dd7e0 f   NumerButton.obj
 0001:000dc800       ?CtlColor@CNumerButton@@IAEPAUHBRUSH__@@PAVCDC@@I@Z 004dd800 f   NumerButton.obj
 0001:000dce60       ?OnLButtonDown@CNumerButton@@IAEXIVCPoint@@@Z 004dde60 f   NumerButton.obj
 0001:000dcea0       ?DrawItem@CNumerButton@@MAEXPAUtagDRAWITEMSTRUCT@@@Z 004ddea0 f   NumerButton.obj
 0001:000dcf40       ?PaintBk@CNumerButton@@AAEXPAVCDC@@@Z 004ddf40 f   NumerButton.obj
 0001:000dcfa0       ?PaintBtn@CNumerButton@@AAEXPAVCDC@@@Z 004ddfa0 f   NumerButton.obj
 0001:000dd000       ?OnMouseHover@CNumerButton@@IAEJIJ@Z 004de000 f   NumerButton.obj
 0001:000dd030       ?OnMouseLeave@CNumerButton@@IAEJIJ@Z 004de030 f   NumerButton.obj
 0001:000dd070       ?OnMouseMove@CNumerButton@@IAEXIVCPoint@@@Z 004de070 f   NumerButton.obj
 0001:000dd0e0       ??0CPlatformEvent@@QAE@XZ  004de0e0 f   PlatformEvent.obj
 0001:000dd120       ??_ECPlatformEvent@@UAEPAXI@Z 004de120 f i PlatformEvent.obj
 0001:000dd120       ??_GCPlatformEvent@@UAEPAXI@Z 004de120 f i PlatformEvent.obj
 0001:000dd160       ??1CPlatformEvent@@UAE@XZ  004de160 f   PlatformEvent.obj
 0001:000dd1a0       ?RegisterEventWnd@CPlatformEvent@@QAE_NPAUHWND__@@@Z 004de1a0 f   PlatformEvent.obj
 0001:000dd220       ?SendPlatformEvent@CPlatformEvent@@QAEXGJ@Z 004de220 f   PlatformEvent.obj
 0001:000dd220       ?PostPlatformEvent@CPlatformEvent@@QAEXGJ@Z 004de220 f   PlatformEvent.obj
 0001:000dd2a0       ??0?$CWHArray@PAUHWND__@@ABQAU1@@@QAE@XZ 004de2a0 f i PlatformEvent.obj
 0001:000dd2f0       ??1?$CWHArray@PAUHWND__@@ABQAU1@@@UAE@XZ 004de2f0 f i PlatformEvent.obj
 0001:000dd360       ??_E?$CWHArray@PAUHWND__@@ABQAU1@@@UAEPAXI@Z 004de360 f i PlatformEvent.obj
 0001:000dd360       ??_G?$CWHArray@PAUHWND__@@ABQAU1@@@UAEPAXI@Z 004de360 f i PlatformEvent.obj
 0001:000dd3a0       ?CreateDumpFile@NSDumpFile@@YAXPB_WPAU_EXCEPTION_POINTERS@@@Z 004de3a0 f   PlatformFrame.obj
 0001:000dd410       ?UnhandledExceptionFilterEx@NSDumpFile@@YGJPAU_EXCEPTION_POINTERS@@@Z 004de410 f   PlatformFrame.obj
 0001:000dd4d0       ?RunCrashHandler@NSDumpFile@@YAXXZ 004de4d0 f   PlatformFrame.obj
 0001:000dd4f0       ?GetMessageMap@CPlatformFrame@@MBEPBUAFX_MSGMAP@@XZ 004de4f0 f   PlatformFrame.obj
 0001:000dd510       ?GetThisMessageMap@CPlatformFrame@@KGPBUAFX_MSGMAP@@XZ 004de510 f   PlatformFrame.obj
 0001:000dd530       ??0CPlatformFrame@@QAE@XZ  004de530 f   PlatformFrame.obj
 0001:000dda70       ?Release@CPlatformFrame@@UAEXXZ 004dea70 f i PlatformFrame.obj
 0001:000ddab0       ??_GCPlatformFrame@@UAEPAXI@Z 004deab0 f i PlatformFrame.obj
 0001:000ddab0       ??_ECPlatformFrame@@UAEPAXI@Z 004deab0 f i PlatformFrame.obj
 0001:000ddaf0       ??0IServerListDataSink@@QAE@XZ 004deaf0 f i PlatformFrame.obj
 0001:000ddb10       ??1CPlatformFrame@@UAE@XZ  004deb10 f   PlatformFrame.obj
 0001:000dde40       ?QueryInterface@CPlatformFrame@@UAEPAXABU_GUID@@K@Z 004dee40 f   PlatformFrame.obj
 0001:000dde40       ?CtlColor@CInPlaceList@@IAEPAUHBRUSH__@@PAVCDC@@I@Z 004dee40 f   GridCellCombo.obj
 0001:000dde60       ?OnGameItemFinish@CPlatformFrame@@UAEXXZ 004dee60 f   PlatformFrame.obj
 0001:000dde90       ?OnGameItemInsert@CPlatformFrame@@UAEXPAVCGameListItem@@@Z 004dee90 f   PlatformFrame.obj
 0001:000ddee0       ?OnEventMissionLink@CPlatformFrame@@MAE_NHH@Z 004deee0 f   PlatformFrame.obj
 0001:000de150       ?SendToServer@CPlatformFrame@@QAEXH@Z 004df150 f   PlatformFrame.obj
 0001:000de2b0       ?OnEventMissionShut@CPlatformFrame@@MAE_NE@Z 004df2b0 f   PlatformFrame.obj
 0001:000de310       ?GetLuckNumber@CPlatformFrame@@SAIPAX@Z 004df310 f   PlatformFrame.obj
 0001:000de960       ?OnEventMissionRead@CPlatformFrame@@UAE_NUTCP_Command@@PAXG@Z 004df960 f   PlatformFrame.obj
 0001:000defa0       ?PreTranslateMessage@CPlatformFrame@@MAEHPAUtagMSG@@@Z 004dffa0 f   PlatformFrame.obj
 0001:000defe0       ?OnTimer@CPlatformFrame@@QAEXI@Z 004dffe0 f   PlatformFrame.obj
 0001:000df2b0       ?OnCommand@CPlatformFrame@@MAEHIJ@Z 004e02b0 f   PlatformFrame.obj
 0001:000dfad0       ?RectifyControl@CPlatformFrame@@AAEXHH@Z 004e0ad0 f   PlatformFrame.obj
 0001:000e0210       ?RectifyResource@CPlatformFrame@@AAEXHH@Z 004e1210 f   PlatformFrame.obj
 0001:000e0390       ?DrawControlView@CPlatformFrame@@AAEXPAVCDC@@HH@Z 004e1390 f   PlatformFrame.obj
 0001:000e05b0       ?ActiveServerViewItem@CPlatformFrame@@QAE_NXZ 004e15b0 f   PlatformFrame.obj
 0001:000e06a0       ?DeleteServerViewItem@CPlatformFrame@@QAE_NXZ 004e16a0 f   PlatformFrame.obj
 0001:000e07b0       ?EntranceServerItem@CPlatformFrame@@QAE_NPAVCGameServerItem@@@Z 004e17b0 f   PlatformFrame.obj
 0001:000e09d0       ?OnClose@CPlatformFrame@@IAEXXZ 004e19d0 f   PlatformFrame.obj
 0001:000e0b30       ?Loadweb@CPlatformFrame@@QAEXXZ 004e1b30 f   PlatformFrame.obj
 0001:000e0c60       ?OnEraseBkgnd@CPlatformFrame@@IAEHPAVCDC@@@Z 004e1c60 f   PlatformFrame.obj
 0001:000e0e90       ?OnSize@CPlatformFrame@@IAEXIHH@Z 004e1e90 f   PlatformFrame.obj
 0001:000e0ee0       ?OnCreate@CPlatformFrame@@IAEHPAUtagCREATESTRUCTW@@@Z 004e1ee0 f   PlatformFrame.obj
 0001:000e1800       ?OnShowWindow@CPlatformFrame@@IAEXHI@Z 004e2800 f   PlatformFrame.obj
 0001:000e1870       ?OnWindowPosChanged@CPlatformFrame@@IAEXPAUtagWINDOWPOS@@@Z 004e2870 f   PlatformFrame.obj
 0001:000e18e0       ?OnLButtonDown@CPlatformFrame@@IAEXIVCPoint@@@Z 004e28e0 f   PlatformFrame.obj
 0001:000e1950       ?OnShowMenu@CPlatformFrame@@IAEJIJ@Z 004e2950 f   PlatformFrame.obj
 0001:000e19a0       ?OnZhuanhuanCaibi@CPlatformFrame@@IAEJIJ@Z 004e29a0 f   PlatformFrame.obj
 0001:000e1a70       ?OnZhuanhuanJinbi@CPlatformFrame@@IAEJIJ@Z 004e2a70 f   PlatformFrame.obj
 0001:000e1b30       ?OnUpdateButton@CPlatformFrame@@IAEJIJ@Z 004e2b30 f   PlatformFrame.obj
 0001:000e1b70       ?OnUpDateAccoount@CPlatformFrame@@IAEJIJ@Z 004e2b70 f   PlatformFrame.obj
 0001:000e1bb0       ?OnRefreshYue@CPlatformFrame@@IAEJIJ@Z 004e2bb0 f   PlatformFrame.obj
 0001:000e1be0       ?OnFreshGame@CPlatformFrame@@IAEJIJ@Z 004e2be0 f   PlatformFrame.obj
 0001:000e1c10       ?OnMessagePlatformEvent@CPlatformFrame@@IAEJIJ@Z 004e2c10 f   PlatformFrame.obj
 0001:000e1e00       ?OnMessageInsureUpdate@CPlatformFrame@@IAEJIJ@Z 004e2e00 f   PlatformFrame.obj
 0001:000e1e80       ?DrawTopUsers@CPlatformFrame@@QAEXPAVCDC@@@Z 004e2e80 f   PlatformFrame.obj
 0001:000e1fb0       ?GridCtrlInit@CPlatformFrame@@QAEXXZ 004e2fb0 f   PlatformFrame.obj
 0001:000e22b0       ?OnGridClick@CPlatformFrame@@QAEXPAUtagNMHDR@@PAJ@Z 004e32b0 f   PlatformFrame.obj
 0001:000e23d0       ?OnMouseMove@CPlatformFrame@@AAEXIVCPoint@@@Z 004e33d0 f   PlatformFrame.obj
 0001:000e23f0       ??_ECPlatformFrame@@WNI@AEPAXI@Z 004e33f0 f i PlatformFrame.obj
 0001:000e2400       ?IsZoomed@CWnd@@QBEHXZ     004e3400 f i PlatformFrame.obj
 0001:000e2420       ?LockWindowUpdate@CWnd@@QAEHXZ 004e3420 f i PlatformFrame.obj
 0001:000e2440       ?UnlockWindowUpdate@CWnd@@QAEXXZ 004e3440 f i PlatformFrame.obj
 0001:000e2460       ?Activate@CToolTipCtrl@@QAEXH@Z 004e3460 f i PlatformFrame.obj
 0001:000e2490       ?RelayEvent@CToolTipCtrl@@QAEXPAUtagMSG@@@Z 004e3490 f i PlatformFrame.obj
 0001:000e24c0       ??0CPlatformPublicize@@QAE@XZ 004e34c0 f   PlatformPublicize.obj
 0001:000e2510       ??_GCPlatformPublicize@@UAEPAXI@Z 004e3510 f i PlatformPublicize.obj
 0001:000e2510       ??_ECPlatformPublicize@@UAEPAXI@Z 004e3510 f i PlatformPublicize.obj
 0001:000e2550       ??1CPlatformPublicize@@UAE@XZ 004e3550 f   PlatformPublicize.obj
 0001:000e2580       ?GetWebBrowserRect@CPlatformPublicize@@MAEXAAVCRect@@@Z 004e3580 f   PlatformPublicize.obj
 0001:000e2620       ?DrawPublicizeView@CPlatformPublicize@@MAEXPAVCDC@@HHE@Z 004e3620 f   PlatformPublicize.obj
 0001:000e2690       ?GetMessageMap@CPlazaViewItem@@MBEPBUAFX_MSGMAP@@XZ 004e3690 f   PlazaViewItem.obj
 0001:000e26b0       ?GetThisMessageMap@CPlazaViewItem@@KGPBUAFX_MSGMAP@@XZ 004e36b0 f   PlazaViewItem.obj
 0001:000e26d0       ??0CPlazaViewItem@@QAE@XZ  004e36d0 f   PlazaViewItem.obj
 0001:000e29b0       ?Release@CPlazaViewItem@@UAEXXZ 004e39b0 f i PlazaViewItem.obj
 0001:000e2a00       ??_ECPlazaViewItem@@UAEPAXI@Z 004e3a00 f i PlazaViewItem.obj
 0001:000e2a00       ??_GCPlazaViewItem@@UAEPAXI@Z 004e3a00 f i PlazaViewItem.obj
 0001:000e2a40       ??1CPlazaViewItem@@UAE@XZ  004e3a40 f   PlazaViewItem.obj
 0001:000e2f10       ??_GtagGameKindInfo@@QAEPAXI@Z 004e3f10 f i PlazaViewItem.obj
 0001:000e2f50       ??1tagGameKindInfo@@QAE@XZ 004e3f50 f i PlazaViewItem.obj
 0001:000e2f70       ?QueryInterface@CPlazaViewItem@@UAEPAXABU_GUID@@K@Z 004e3f70 f   PlazaViewItem.obj
 0001:000e2fd0       ?OnInitDialog@CPlazaViewItem@@MAEHXZ 004e3fd0 f   PlazaViewItem.obj
 0001:000e3230       ?OnShowWindow@CPlazaViewItem@@AAEXHI@Z 004e4230 f   PlazaViewItem.obj
 0001:000e3330       ?ShowKindItemView@CPlazaViewItem@@QAEXGH@Z 004e4330 f   PlazaViewItem.obj
 0001:000e3a20       ??0tagGameKindInfo@@QAE@XZ 004e4a20 f i PlazaViewItem.obj
 0001:000e3a50       ?ShowServerItemView@CPlazaViewItem@@QAEXGH@Z 004e4a50 f   PlazaViewItem.obj
 0001:000e4260       ?OnSize@CPlazaViewItem@@IAEXIHH@Z 004e5260 f   PlazaViewItem.obj
 0001:000e4470       ?GetGameHoverIndex@CPlazaViewItem@@IAEGVCPoint@@@Z 004e5470 f   PlazaViewItem.obj
 0001:000e44c0       ?GetHoverIndex@CPlazaViewItem@@IAEGVCPoint@@@Z 004e54c0 f   PlazaViewItem.obj
 0001:000e4780       ?GetHoverButton@CPlazaViewItem@@IAEEGVCPoint@@@Z 004e5780 f   PlazaViewItem.obj
 0001:000e49b0       ?OnButtonViewRule@CPlazaViewItem@@QAEXG@Z 004e59b0 f   PlazaViewItem.obj
 0001:000e4a40       ?OnButtonEnterKind@CPlazaViewItem@@QAEXG@Z 004e5a40 f   PlazaViewItem.obj
 0001:000e50d0       ?OnButtonEnterServer@CPlazaViewItem@@QAEXG@Z 004e60d0 f   PlazaViewItem.obj
 0001:000e5120       ?OnEraseBkgnd@CPlazaViewItem@@IAEHPAVCDC@@@Z 004e6120 f   PlazaViewItem.obj
 0001:000e55a0       ?InValidateWndView@CPlazaViewItem@@QAEXE@Z 004e65a0 f   PlazaViewItem.obj
 0001:000e55d0       ?DrawKindItem@CPlazaViewItem@@AAEXPAVCDC@@GHHPAUtagGameKindInfo@@@Z 004e65d0 f   PlazaViewItem.obj
 0001:000e59f0       ?DrawServerItem@CPlazaViewItem@@AAEXPAVCDC@@GHHPAUtagGameServerInfo@@@Z 004e69f0 f   PlazaViewItem.obj
 0001:000e5ff0       ?RectifyControl@CPlazaViewItem@@IAEXHH@Z 004e6ff0 f   PlazaViewItem.obj
 0001:000e6160       ?GetGameDirectory@CPlazaViewItem@@IAEXQA_WGAAUtagGameKind@@@Z 004e7160 f   PlazaViewItem.obj
 0001:000e61e0       ?OnMouseMove@CPlazaViewItem@@IAEXIVCPoint@@@Z 004e71e0 f   PlazaViewItem.obj
 0001:000e6430       ?OnLButtonUp@CPlazaViewItem@@IAEXIVCPoint@@@Z 004e7430 f   PlazaViewItem.obj
 0001:000e6750       ?OnLButtonDown@CPlazaViewItem@@IAEXIVCPoint@@@Z 004e7750 f   PlazaViewItem.obj
 0001:000e6830       ?OnMouseLeave@CPlazaViewItem@@IAEJIJ@Z 004e7830 f   PlazaViewItem.obj
 0001:000e68b0       ?OnUpdateAccount@CPlazaViewItem@@IAEJIJ@Z 004e78b0 f   PlazaViewItem.obj
 0001:000e68f0       ?OnUpdateYue@CPlazaViewItem@@IAEJIJ@Z 004e78f0 f   PlazaViewItem.obj
 0001:000e6930       ?OnTanChuang@CPlazaViewItem@@IAEJIJ@Z 004e7930 f   PlazaViewItem.obj
 0001:000e6a80       ?ShowGameMenu@CPlazaViewItem@@QAEX_NGHH@Z 004e7a80 f   PlazaViewItem.obj
 0001:000e6f70       ?OnShowMenu@CPlazaViewItem@@IAEJIJ@Z 004e7f70 f   PlazaViewItem.obj
 0001:000e6fc0       ?OnBnClickedGameType@CPlazaViewItem@@IAEJIJ@Z 004e7fc0 f   PlazaViewItem.obj
 0001:000e70b0       ?FreshGame@CPlazaViewItem@@QAEXXZ 004e80b0 f   PlazaViewItem.obj
 0001:000e71b0       ?ShowMenu@CPlazaViewItem@@QAEXGAAV?$CWHArray@PAUtagGameKindInfo@@ABQAU1@@@@Z 004e81b0 f   PlazaViewItem.obj
 0001:000e7670       ??4?$CWHArray@PAUtagGameKindInfo@@ABQAU1@@@QAEAAV0@ABV0@@Z 004e8670 f i PlazaViewItem.obj
 0001:000e76c0       ??0?$CWHArray@PAUtagGameKindInfo@@ABQAU1@@@QAE@XZ 004e86c0 f i PlazaViewItem.obj
 0001:000e7710       ??1?$CWHArray@PAUtagGameKindInfo@@ABQAU1@@@UAE@XZ 004e8710 f i PlazaViewItem.obj
 0001:000e7780       ?GetCount@?$CWHArray@PAVCTableView@@ABQAV1@@@QBEHXZ 004e8780 f i TableViewFrame.obj
 0001:000e7780       ?GetCount@?$CWHArray@PAUtagGameServerInfo@@ABQAU1@@@QBEHXZ 004e8780 f i PlazaViewItem.obj
 0001:000e7780       ?GetImage@CGridCell@@UBEHXZ 004e8780 f i GridCell.obj
 0001:000e7780       ?GetCount@?$CWHArray@PAVCGameTypeItem@@ABQAV1@@@QBEHXZ 004e8780 f i WndGameTypeCtrl.obj
 0001:000e7780       ?GetCount@?$CWHArray@PAVCCollocateItem@@ABQAV1@@@QBEHXZ 004e8780 f i DlgCollocate.obj
 0001:000e7780       ?GetCount@?$CWHArray@PAUHWND__@@ABQAU1@@@QBEHXZ 004e8780 f i PlatformEvent.obj
 0001:000e7780       ?GetCount@?$CWHArray@PAUtagGameKindInfo@@ABQAU1@@@QBEHXZ 004e8780 f i PlazaViewItem.obj
 0001:000e7780       ?GetCount@?$CWHArray@PAVCDownLoadSink@@ABQAV1@@@QBEHXZ 004e8780 f i DlgDownLoad.obj
 0001:000e7780       ?GetCount@?$CWHArray@PAVCDlgServiceItem@@ABQAV1@@@QBEHXZ 004e8780 f i DlgService.obj
 0001:000e77a0       ?Append@?$CWHArray@PAUtagGameServerInfo@@ABQAU1@@@QAEHABV1@@Z 004e87a0 f i PlazaViewItem.obj
 0001:000e77a0       ?Append@?$CWHArray@PAUtagGameKindInfo@@ABQAU1@@@QAEHABV1@@Z 004e87a0 f i PlazaViewItem.obj
 0001:000e7840       ?RemoveAt@?$CWHArray@PAVCDownLoadSink@@ABQAV1@@@QAEXHH@Z 004e8840 f i DlgDownLoad.obj
 0001:000e7840       ?RemoveAt@?$CWHArray@PAUtagGameServerInfo@@ABQAU1@@@QAEXHH@Z 004e8840 f i PlazaViewItem.obj
 0001:000e7840       ?RemoveAt@?$CWHArray@PAUtagGameKindInfo@@ABQAU1@@@QAEXHH@Z 004e8840 f i PlazaViewItem.obj
 0001:000e78f0       ??0?$CWHArray@PAUtagGameServerInfo@@ABQAU1@@@QAE@XZ 004e88f0 f i PlazaViewItem.obj
 0001:000e7940       ??1?$CWHArray@PAUtagGameServerInfo@@ABQAU1@@@UAE@XZ 004e8940 f i PlazaViewItem.obj
 0001:000e79b0       ??A?$CWHArray@PAUtagGameServerInfo@@ABQAU1@@@QAEAAPAUtagGameServerInfo@@H@Z 004e89b0 f i PlazaViewItem.obj
 0001:000e79b0       ??A?$CWHArray@PAVCDownLoadSink@@ABQAV1@@@QAEAAPAVCDownLoadSink@@H@Z 004e89b0 f i DlgDownLoad.obj
 0001:000e79b0       ??A?$CWHArray@PAVCCollocateItem@@ABQAV1@@@QAEAAPAVCCollocateItem@@H@Z 004e89b0 f i DlgCollocate.obj
 0001:000e79b0       ??A?$CWHArray@PAUtagGameKindInfo@@ABQAU1@@@QAEAAPAUtagGameKindInfo@@H@Z 004e89b0 f i PlazaViewItem.obj
 0001:000e79b0       ??A?$CWHArray@PAUHWND__@@ABQAU1@@@QAEAAPAUHWND__@@H@Z 004e89b0 f i PlatformEvent.obj
 0001:000e79b0       ??A?$CWHArray@PAVCTableView@@ABQAV1@@@QAEAAPAVCTableView@@H@Z 004e89b0 f i TableViewFrame.obj
 0001:000e79b0       ??A?$CWHArray@PAVCDlgServiceItem@@ABQAV1@@@QAEAAPAVCDlgServiceItem@@H@Z 004e89b0 f i DlgService.obj
 0001:000e79b0       ??A?$CWHArray@PAVCGameTypeItem@@ABQAV1@@@QAEAAPAVCGameTypeItem@@H@Z 004e89b0 f i WndGameTypeCtrl.obj
 0001:000e79e0       ??_G?$CWHArray@PAUtagGameKindInfo@@ABQAU1@@@UAEPAXI@Z 004e89e0 f i PlazaViewItem.obj
 0001:000e79e0       ??_E?$CWHArray@PAUtagGameKindInfo@@ABQAU1@@@UAEPAXI@Z 004e89e0 f i PlazaViewItem.obj
 0001:000e7a20       ??_E?$CWHArray@PAUtagGameServerInfo@@ABQAU1@@@UAEPAXI@Z 004e8a20 f i PlazaViewItem.obj
 0001:000e7a20       ??_G?$CWHArray@PAUtagGameServerInfo@@ABQAU1@@@UAEPAXI@Z 004e8a20 f i PlazaViewItem.obj
 0001:000e7a60       ?ElementAt@?$CWHArray@PAVCCollocateItem@@ABQAV1@@@QAEAAPAVCCollocateItem@@H@Z 004e8a60 f i DlgCollocate.obj
 0001:000e7a60       ?ElementAt@?$CWHArray@PAUHWND__@@ABQAU1@@@QAEAAPAUHWND__@@H@Z 004e8a60 f i PlatformEvent.obj
 0001:000e7a60       ?ElementAt@?$CWHArray@PAUtagGameKindInfo@@ABQAU1@@@QAEAAPAUtagGameKindInfo@@H@Z 004e8a60 f i PlazaViewItem.obj
 0001:000e7a60       ?ElementAt@?$CWHArray@PAVCTableView@@ABQAV1@@@QAEAAPAVCTableView@@H@Z 004e8a60 f i TableViewFrame.obj
 0001:000e7a60       ?ElementAt@?$CWHArray@PAVCDownLoadSink@@ABQAV1@@@QAEAAPAVCDownLoadSink@@H@Z 004e8a60 f i DlgDownLoad.obj
 0001:000e7a60       ?ElementAt@?$CWHArray@PAVCDlgServiceItem@@ABQAV1@@@QAEAAPAVCDlgServiceItem@@H@Z 004e8a60 f i DlgService.obj
 0001:000e7a60       ?ElementAt@?$CWHArray@PAVCGameTypeItem@@ABQAV1@@@QAEAAPAVCGameTypeItem@@H@Z 004e8a60 f i WndGameTypeCtrl.obj
 0001:000e7a60       ?ElementAt@?$CWHArray@PAUtagGameServerInfo@@ABQAU1@@@QAEAAPAUtagGameServerInfo@@H@Z 004e8a60 f i PlazaViewItem.obj
 0001:000e7aa0       ?GetMessageMap@CProcessManager@@MBEPBUAFX_MSGMAP@@XZ 004e8aa0 f   ProcessManager.obj
 0001:000e7ac0       ?GetThisMessageMap@CProcessManager@@KGPBUAFX_MSGMAP@@XZ 004e8ac0 f   ProcessManager.obj
 0001:000e7ae0       ??0CProcessManager@@QAE@XZ 004e8ae0 f   ProcessManager.obj
 0001:000e7ba0       ?Release@CProcessManager@@UAEXXZ 004e8ba0 f i ProcessManager.obj
 0001:000e7bf0       ??_ECProcessManager@@UAEPAXI@Z 004e8bf0 f i ProcessManager.obj
 0001:000e7bf0       ??_GCProcessManager@@UAEPAXI@Z 004e8bf0 f i ProcessManager.obj
 0001:000e7c30       ??0IProcessManager@@QAE@XZ 004e8c30 f i ProcessManager.obj
 0001:000e7c60       ??0IProcessControlSink@@QAE@XZ 004e8c60 f i ProcessManager.obj
 0001:000e7c90       ??1CProcessManager@@UAE@XZ 004e8c90 f   ProcessManager.obj
 0001:000e7d20       ?QueryInterface@CProcessManager@@UAEPAXABU_GUID@@K@Z 004e8d20 f   ProcessManager.obj
 0001:000e7e20       ?OnProcessControlData@CProcessManager@@UAE_NGGPAXGPAUHWND__@@@Z 004e8e20 f   ProcessManager.obj
 0001:000e7f10       ?CloseGameProcess@CProcessManager@@QAE_N_N@Z 004e8f10 f   ProcessManager.obj
 0001:000e8050       ?DetachGameProcess@CProcessManager@@QAE_N_N@Z 004e9050 f   ProcessManager.obj
 0001:000e80f0       ?CreateGameProcess@CProcessManager@@QAE_NPB_W@Z 004e90f0 f   ProcessManager.obj
 0001:000e8360       ?SetProcessManagerSink@CProcessManager@@QAE_NPAUIUnknownEx@@@Z 004e9360 f   ProcessManager.obj
 0001:000e83d0       ?SendProcessData@CProcessManager@@QAE_NGG@Z 004e93d0 f   ProcessManager.obj
 0001:000e8430       ?SendProcessData@CProcessManager@@QAE_NGGQAXG@Z 004e9430 f   ProcessManager.obj
 0001:000e84a0       ?SendProcessCommand@CProcessManager@@QAE_NGGQAXG@Z 004e94a0 f   ProcessManager.obj
 0001:000e8510       ?SendLevelInfo@CProcessManager@@QAE_NQAUtagLevelItem@@E@Z 004e9510 f   ProcessManager.obj
 0001:000e85e0       ?SendColumnInfo@CProcessManager@@QAE_NQAUtagColumnItem@@E@Z 004e95e0 f   ProcessManager.obj
 0001:000e86b0       ?SendServerInfo@CProcessManager@@QAE_NPAUIClientUserItem@@KKKGHABUtagGameServer@@@Z 004e96b0 f   ProcessManager.obj
 0001:000e8790       ?SendUserItem@CProcessManager@@QAE_NPAUIClientUserItem@@@Z 004e9790 f   ProcessManager.obj
 0001:000e89c0       ?SendUserScore@CProcessManager@@QAE_NKAAUtagUserScore@@@Z 004e99c0 f   ProcessManager.obj
 0001:000e8a10       ?SendUserStatus@CProcessManager@@QAE_NKAAUtagUserStatus@@@Z 004e9a10 f   ProcessManager.obj
 0001:000e8a60       ?SendUserSpreadInfo@CProcessManager@@QAE_NKAAUtagUserSpreadInfo@@@Z 004e9a60 f   ProcessManager.obj
 0001:000e8ae0       ?OnTimer@CProcessManager@@IAEXI@Z 004e9ae0 f   ProcessManager.obj
 0001:000e8b60       ?QueryInterface@CProcessManager@@W3AEPAXABU_GUID@@K@Z 004e9b60 f i ProcessManager.obj
 0001:000e8b70       ?Release@CProcessManager@@W3AEXXZ 004e9b70 f i ProcessManager.obj
 0001:000e8b80       ?GetDataSize@CSendPacketHelper@@QAEGXZ 004e9b80 f i ProcessManager.obj
 0001:000e8ba0       ??0CSendPacketHelper@@QAE@PAXG@Z 004e9ba0 f i ProcessManager.obj
 0001:000e8ba0       ??0CRecvPacketHelper@@QAE@PBXG@Z 004e9ba0 f i MissionLogon.obj
 0001:000e8be0       ?AddPacket@CSendPacketHelper@@QAE_NPB_WG@Z 004e9be0 f i ProcessManager.obj
 0001:000e8c30       ?AddPacket@CSendPacketHelper@@QAE_NPAXGG@Z 004e9c30 f i ProcessManager.obj
 0001:000e8cc0       ??0CProcessControlHelper@@QAE@XZ 004e9cc0 f i ProcessManager.obj
 0001:000e8d00       ??_ECProcessControlHelper@@UAEPAXI@Z 004e9d00 f i ProcessManager.obj
 0001:000e8d00       ??_GCProcessControlHelper@@UAEPAXI@Z 004e9d00 f i ProcessManager.obj
 0001:000e8d40       ??1CProcessControlHelper@@UAE@XZ 004e9d40 f i ProcessManager.obj
 0001:000e8d60       ??0?$CTempldateHelper@UIProcessControl@@@@QAE@ABU_GUID@@KPB_WPBD@Z 004e9d60 f i ProcessManager.obj
 0001:000e8df0       ??1?$CTempldateHelper@UIProcessControl@@@@UAE@XZ 004e9df0 f i ProcessManager.obj
 0001:000e8e20       ??_G?$CTempldateHelper@UIProcessControl@@@@UAEPAXI@Z 004e9e20 f i ProcessManager.obj
 0001:000e8e20       ??_E?$CTempldateHelper@UIProcessControl@@@@UAEPAXI@Z 004e9e20 f i ProcessManager.obj
 0001:000e8e60       ?GetRuntimeClass@CQrTzhDlg@@UBEPAUCRuntimeClass@@XZ 004e9e60 f   QrTzhDlg.obj
 0001:000e8e80       ??0CQrTzhDlg@@QAE@PAVCWnd@@@Z 004e9e80 f   QrTzhDlg.obj
 0001:000e8f70       ??_GCQrTzhDlg@@UAEPAXI@Z   004e9f70 f i QrTzhDlg.obj
 0001:000e8f70       ??_ECQrTzhDlg@@UAEPAXI@Z   004e9f70 f i QrTzhDlg.obj
 0001:000e8fb0       ??1CQrTzhDlg@@UAE@XZ       004e9fb0 f   QrTzhDlg.obj
 0001:000e90b0       ?DoDataExchange@CQrTzhDlg@@MAEXPAVCDataExchange@@@Z 004ea0b0 f   QrTzhDlg.obj
 0001:000e9100       ?GetMessageMap@CQrTzhDlg@@MBEPBUAFX_MSGMAP@@XZ 004ea100 f   QrTzhDlg.obj
 0001:000e9120       ?GetThisMessageMap@CQrTzhDlg@@KGPBUAFX_MSGMAP@@XZ 004ea120 f   QrTzhDlg.obj
 0001:000e9140       ?OnPaint@CQrTzhDlg@@IAEXXZ 004ea140 f   QrTzhDlg.obj
 0001:000e9470       ?OnInitDialog@CQrTzhDlg@@MAEHXZ 004ea470 f   QrTzhDlg.obj
 0001:000e96a0       ?OnSize@CQrTzhDlg@@IAEXIHH@Z 004ea6a0 f   QrTzhDlg.obj
 0001:000e9770       ?GetRuntimeClass@CQuKuanDlg@@UBEPAUCRuntimeClass@@XZ 004ea770 f   QuKuanDlg.obj
 0001:000e9790       ??0CQuKuanDlg@@QAE@PAVCWnd@@@Z 004ea790 f   QuKuanDlg.obj
 0001:000e9910       ??_GCQuKuanDlg@@UAEPAXI@Z  004ea910 f i QuKuanDlg.obj
 0001:000e9910       ??_ECQuKuanDlg@@UAEPAXI@Z  004ea910 f i QuKuanDlg.obj
 0001:000e9950       ??1CQuKuanDlg@@UAE@XZ      004ea950 f   QuKuanDlg.obj
 0001:000e9b70       ?DoDataExchange@CQuKuanDlg@@MAEXPAVCDataExchange@@@Z 004eab70 f   QuKuanDlg.obj
 0001:000e9c10       ?GetMessageMap@CQuKuanDlg@@MBEPBUAFX_MSGMAP@@XZ 004eac10 f   QuKuanDlg.obj
 0001:000e9c30       ?GetThisMessageMap@CQuKuanDlg@@KGPBUAFX_MSGMAP@@XZ 004eac30 f   QuKuanDlg.obj
 0001:000e9c50       ?OnInitDialog@CQuKuanDlg@@MAEHXZ 004eac50 f   QuKuanDlg.obj
 0001:000e9f60       ?OnPaint@CQuKuanDlg@@IAEXXZ 004eaf60 f   QuKuanDlg.obj
 0001:000ea360       ?OnSize@CQuKuanDlg@@IAEXIHH@Z 004eb360 f   QuKuanDlg.obj
 0001:000ea450       ?OnShowWindow@CQuKuanDlg@@IAEXHI@Z 004eb450 f   QuKuanDlg.obj
 0001:000ea570       ?OnBnClickedBtnQukuan@CQuKuanDlg@@IAEXXZ 004eb570 f   QuKuanDlg.obj
 0001:000ea840       ?OnEventMissionLink@CQuKuanDlg@@UAE_NHH@Z 004eb840 f   QuKuanDlg.obj
 0001:000eaa00       ?OnEventMissionRead@CQuKuanDlg@@UAE_NUTCP_Command@@PAXG@Z 004eba00 f   QuKuanDlg.obj
 0001:000eaee0       ?SendToServer@CQuKuanDlg@@IAEXE@Z 004ebee0 f   QuKuanDlg.obj
 0001:000eaff0       ??_ECQuKuanDlg@@WHE@AEPAXI@Z 004ebff0 f i QuKuanDlg.obj
 0001:000eb000       ??0CGameListItem@@IAE@W4enItemGenre@@@Z 004ec000 f   ServerListData.obj
 0001:000eb040       ??_GCGameListItem@@MAEPAXI@Z 004ec040 f i ServerListData.obj
 0001:000eb040       ??_ECGameListItem@@MAEPAXI@Z 004ec040 f i ServerListData.obj
 0001:000eb080       ??1CGameListItem@@MAE@XZ   004ec080 f   ServerListData.obj
 0001:000eb0a0       ??0CGameTypeItem@@QAE@XZ   004ec0a0 f   ServerListData.obj
 0001:000eb0e0       ?GetSortID@CGameTypeItem@@UAEGXZ 004ec0e0 f i ServerListData.obj
 0001:000eb100       ??_GCGameTypeItem@@UAEPAXI@Z 004ec100 f i ServerListData.obj
 0001:000eb100       ??_ECGameTypeItem@@UAEPAXI@Z 004ec100 f i ServerListData.obj
 0001:000eb140       ??1CGameTypeItem@@UAE@XZ   004ec140 f   ServerListData.obj
 0001:000eb170       ??0CGameKindItem@@QAE@XZ   004ec170 f   ServerListData.obj
 0001:000eb1e0       ?GetSortID@CGameServerItem@@UAEGXZ 004ec1e0 f i ServerListData.obj
 0001:000eb1e0       ?GetSortID@CGameKindItem@@UAEGXZ 004ec1e0 f i ServerListData.obj
 0001:000eb200       ??_ECGameKindItem@@UAEPAXI@Z 004ec200 f i ServerListData.obj
 0001:000eb200       ??_GCGameKindItem@@UAEPAXI@Z 004ec200 f i ServerListData.obj
 0001:000eb240       ??1CGameKindItem@@UAE@XZ   004ec240 f   ServerListData.obj
 0001:000eb270       ??0CGameServerItem@@QAE@XZ 004ec270 f   ServerListData.obj
 0001:000eb2d0       ??_GCGameServerItem@@UAEPAXI@Z 004ec2d0 f i ServerListData.obj
 0001:000eb2d0       ??_ECGameServerItem@@UAEPAXI@Z 004ec2d0 f i ServerListData.obj
 0001:000eb310       ??1CGameServerItem@@UAE@XZ 004ec310 f   ServerListData.obj
 0001:000eb340       ??0CServerListData@@QAE@XZ 004ec340 f   ServerListData.obj
 0001:000eb420       ??_GCServerListData@@UAEPAXI@Z 004ec420 f i ServerListData.obj
 0001:000eb420       ??_ECServerListData@@UAEPAXI@Z 004ec420 f i ServerListData.obj
 0001:000eb460       ??1CServerListData@@UAE@XZ 004ec460 f   ServerListData.obj
 0001:000eb6d0       ?SetServerListDataSink@CServerListData@@QAEXPAUIServerListDataSink@@@Z 004ec6d0 f   ServerListData.obj
 0001:000eb6f0       ?OnEventListFinish@CServerListData@@QAEXXZ 004ec6f0 f   ServerListData.obj
 0001:000eb720       ?OnEventDownLoadFinish@CServerListData@@QAEXG@Z 004ec720 f   ServerListData.obj
 0001:000eb7a0       ?SetKindOnLineCount@CServerListData@@QAEXGK@Z 004ec7a0 f   ServerListData.obj
 0001:000eb800       ?SetServerOnLineCount@CServerListData@@QAEXGK@Z 004ec800 f   ServerListData.obj
 0001:000eb860       ?InsertGameType@CServerListData@@QAE_NPAUtagGameType@@@Z 004ec860 f   ServerListData.obj
 0001:000eb990       ?InsertGameKind@CServerListData@@QAE_NPAUtagGameKind@@@Z 004ec990 f   ServerListData.obj
 0001:000ebb30       ?InsertGameServer@CServerListData@@QAE_NPAUtagGameServer@@@Z 004ecb30 f   ServerListData.obj
 0001:000ebcc0       ?EmunGameKindItem@CServerListData@@QAEPAVCGameKindItem@@AAPAU__POSITION@@@Z 004eccc0 f   ServerListData.obj
 0001:000ebd20       ?EmunGameServerItem@CServerListData@@QAEPAVCGameServerItem@@AAPAU__POSITION@@@Z 004ecd20 f   ServerListData.obj
 0001:000ebd80       ?SearchGameType@CServerListData@@QAEPAVCGameTypeItem@@G@Z 004ecd80 f   ServerListData.obj
 0001:000ebdc0       ?SearchGameKind@CServerListData@@QAEPAVCGameKindItem@@G@Z 004ecdc0 f   ServerListData.obj
 0001:000ebe00       ?SearchGameServer@CServerListData@@QAEPAVCGameServerItem@@G@Z 004ece00 f   ServerListData.obj
 0001:000ebe40       ??0?$CWHArray@PAVCGameListItem@@ABQAV1@@@QAE@XZ 004ece40 f i ServerListData.obj
 0001:000ebe90       ??1?$CWHArray@PAVCGameListItem@@ABQAV1@@@UAE@XZ 004ece90 f i ServerListData.obj
 0001:000ebf00       ??0?$CMap@GGPAVCGameTypeItem@@AAPAV1@@@QAE@H@Z 004ecf00 f i ServerListData.obj
 0001:000ebf70       ??A?$CMap@GGPAVCGameTypeItem@@AAPAV1@@@QAEAAPAVCGameTypeItem@@G@Z 004ecf70 f i ServerListData.obj
 0001:000ebf70       ??A?$CMap@GGPAVCGameKindItem@@AAPAV1@@@QAEAAPAVCGameKindItem@@G@Z 004ecf70 f i ServerListData.obj
 0001:000ebf70       ??A?$CMap@GGPAVCGameServerItem@@AAPAV1@@@QAEAAPAVCGameServerItem@@G@Z 004ecf70 f i ServerListData.obj
 0001:000ec020       ??1?$CMap@GGPAVCGameTypeItem@@AAPAV1@@@UAE@XZ 004ed020 f i ServerListData.obj
 0001:000ec090       ?Serialize@?$CMap@GGPAVCGameTypeItem@@AAPAV1@@@UAEXAAVCArchive@@@Z 004ed090 f i ServerListData.obj
 0001:000ec090       ?Serialize@?$CMap@GGPAVCGameServerItem@@AAPAV1@@@UAEXAAVCArchive@@@Z 004ed090 f i ServerListData.obj
 0001:000ec090       ?Serialize@?$CMap@GGPAVCGameKindItem@@AAPAV1@@@UAEXAAVCArchive@@@Z 004ed090 f i ServerListData.obj
 0001:000ec1a0       ??$SerializeElements@G@@YGXAAVCArchive@@PAGH@Z 004ed1a0 f i ServerListData.obj
 0001:000ec2b0       ??0?$CMap@GGPAVCGameKindItem@@AAPAV1@@@QAE@H@Z 004ed2b0 f i ServerListData.obj
 0001:000ec320       ??1?$CMap@GGPAVCGameKindItem@@AAPAV1@@@UAE@XZ 004ed320 f i ServerListData.obj
 0001:000ec390       ??0?$CMap@GGPAVCGameServerItem@@AAPAV1@@@QAE@H@Z 004ed390 f i ServerListData.obj
 0001:000ec400       ?Lookup@?$CMap@GGPAVCGameKindItem@@AAPAV1@@@QBEHGAAPAVCGameKindItem@@@Z 004ed400 f i ServerListData.obj
 0001:000ec400       ?Lookup@?$CMap@GGPAVCGameServerItem@@AAPAV1@@@QBEHGAAPAVCGameServerItem@@@Z 004ed400 f i ServerListData.obj
 0001:000ec400       ?Lookup@?$CMap@GGPAVCGameTypeItem@@AAPAV1@@@QBEHGAAPAVCGameTypeItem@@@Z 004ed400 f i ServerListData.obj
 0001:000ec450       ?RemoveAll@?$CMap@GGPAVCGameKindItem@@AAPAV1@@@QAEXXZ 004ed450 f i ServerListData.obj
 0001:000ec450       ?RemoveAll@?$CMap@GGPAVCGameServerItem@@AAPAV1@@@QAEXXZ 004ed450 f i ServerListData.obj
 0001:000ec450       ?RemoveAll@?$CMap@GGPAVCGameTypeItem@@AAPAV1@@@QAEXXZ 004ed450 f i ServerListData.obj
 0001:000ec500       ?GetNextAssoc@?$CMap@GGPAVCGameKindItem@@AAPAV1@@@QBEXAAPAU__POSITION@@AAGAAPAVCGameKindItem@@@Z 004ed500 f i ServerListData.obj
 0001:000ec500       ?GetNextAssoc@?$CMap@GGPAVCGameTypeItem@@AAPAV1@@@QBEXAAPAU__POSITION@@AAGAAPAVCGameTypeItem@@@Z 004ed500 f i ServerListData.obj
 0001:000ec500       ?GetNextAssoc@?$CMap@GGPAVCGameServerItem@@AAPAV1@@@QBEXAAPAU__POSITION@@AAGAAPAVCGameServerItem@@@Z 004ed500 f i ServerListData.obj
 0001:000ec620       ??1?$CMap@GGPAVCGameServerItem@@AAPAV1@@@UAE@XZ 004ed620 f i ServerListData.obj
 0001:000ec690       ??_E?$CWHArray@PAVCGameListItem@@ABQAV1@@@UAEPAXI@Z 004ed690 f i ServerListData.obj
 0001:000ec690       ??_G?$CWHArray@PAVCGameListItem@@ABQAV1@@@UAEPAXI@Z 004ed690 f i ServerListData.obj
 0001:000ec6d0       ??_G?$CMap@GGPAVCGameTypeItem@@AAPAV1@@@UAEPAXI@Z 004ed6d0 f i ServerListData.obj
 0001:000ec6d0       ??_E?$CMap@GGPAVCGameTypeItem@@AAPAV1@@@UAEPAXI@Z 004ed6d0 f i ServerListData.obj
 0001:000ec710       ??_E?$CMap@GGPAVCGameKindItem@@AAPAV1@@@UAEPAXI@Z 004ed710 f i ServerListData.obj
 0001:000ec710       ??_G?$CMap@GGPAVCGameKindItem@@AAPAV1@@@UAEPAXI@Z 004ed710 f i ServerListData.obj
 0001:000ec750       ??_G?$CMap@GGPAVCGameServerItem@@AAPAV1@@@UAEPAXI@Z 004ed750 f i ServerListData.obj
 0001:000ec750       ??_E?$CMap@GGPAVCGameServerItem@@AAPAV1@@@UAEPAXI@Z 004ed750 f i ServerListData.obj
 0001:000ec790       ?SetAt@?$CMap@GGPAVCGameTypeItem@@AAPAV1@@@QAEXGAAPAVCGameTypeItem@@@Z 004ed790 f i ServerListData.obj
 0001:000ec790       ?SetAt@?$CMap@GGPAVCGameKindItem@@AAPAV1@@@QAEXGAAPAVCGameKindItem@@@Z 004ed790 f i ServerListData.obj
 0001:000ec790       ?SetAt@?$CMap@GGPAVCGameServerItem@@AAPAV1@@@QAEXGAAPAVCGameServerItem@@@Z 004ed790 f i ServerListData.obj
 0001:000ec7c0       ?NewAssoc@?$CMap@GGPAVCGameTypeItem@@AAPAV1@@@IAEPAVCAssoc@1@G@Z 004ed7c0 f i ServerListData.obj
 0001:000ec7c0       ?NewAssoc@?$CMap@GGPAVCGameKindItem@@AAPAV1@@@IAEPAVCAssoc@1@G@Z 004ed7c0 f i ServerListData.obj
 0001:000ec7c0       ?NewAssoc@?$CMap@GGPAVCGameServerItem@@AAPAV1@@@IAEPAVCAssoc@1@G@Z 004ed7c0 f i ServerListData.obj
 0001:000ec930       ?GetAssocAt@?$CMap@GGPAVCGameKindItem@@AAPAV1@@@IBEPAVCAssoc@1@GAAI0@Z 004ed930 f i ServerListData.obj
 0001:000ec930       ?GetAssocAt@?$CMap@GGPAVCGameTypeItem@@AAPAV1@@@IBEPAVCAssoc@1@GAAI0@Z 004ed930 f i ServerListData.obj
 0001:000ec930       ?GetAssocAt@?$CMap@GGPAVCGameServerItem@@AAPAV1@@@IBEPAVCAssoc@1@GAAI0@Z 004ed930 f i ServerListData.obj
 0001:000ec9c0       ??$HashKey@G@@YGIG@Z       004ed9c0 f i ServerListData.obj
 0001:000ec9e0       ??$CompareElements@GG@@YGHPBG0@Z 004ed9e0 f i ServerListData.obj
 0001:000eca40       ??0CAssoc@?$CMap@GGPAVCGameTypeItem@@AAPAV1@@@QAE@G@Z 004eda40 f i ServerListData.obj
 0001:000eca40       ??0CAssoc@?$CMap@GGPAVCGameServerItem@@AAPAV1@@@QAE@G@Z 004eda40 f i ServerListData.obj
 0001:000eca40       ??0CAssoc@?$CMap@GGPAVCGameKindItem@@AAPAV1@@@QAE@G@Z 004eda40 f i ServerListData.obj
 0001:000eca70       ??0CPair@?$CMap@GGPAVCGameTypeItem@@AAPAV1@@@IAE@G@Z 004eda70 f i ServerListData.obj
 0001:000eca70       ??0CPair@?$CMap@GGPAVCGameServerItem@@AAPAV1@@@IAE@G@Z 004eda70 f i ServerListData.obj
 0001:000eca70       ??0CPair@?$CMap@GGPAVCGameKindItem@@AAPAV1@@@IAE@G@Z 004eda70 f i ServerListData.obj
 0001:000ecaa0       ?GetMessageMap@CServerViewItem@@MBEPBUAFX_MSGMAP@@XZ 004edaa0 f   ServerViewItem.obj
 0001:000ecac0       ?GetThisMessageMap@CServerViewItem@@KGPBUAFX_MSGMAP@@XZ 004edac0 f   ServerViewItem.obj
 0001:000ecae0       ??0CServerViewItem@@QAE@XZ 004edae0 f   ServerViewItem.obj
 0001:000ecd40       ?GetServerID@CServerViewItem@@UAEGXZ 004edd40 f i ServerViewItem.obj
 0001:000ecd60       ?GetServerName@CServerViewItem@@UAEPB_WXZ 004edd60 f i ServerViewItem.obj
 0001:000ecd80       ??_ECServerViewItem@@UAEPAXI@Z 004edd80 f i ServerViewItem.obj
 0001:000ecd80       ??_GCServerViewItem@@UAEPAXI@Z 004edd80 f i ServerViewItem.obj
 0001:000ecdc0       ??0IServerViewItem@@QAE@XZ 004eddc0 f i ServerViewItem.obj
 0001:000ecdf0       ??0ITCPSocketSink@@QAE@XZ  004eddf0 f i ServerViewItem.obj
 0001:000ece20       ??0IUserManagerSink@@QAE@XZ 004ede20 f i ServerViewItem.obj
 0001:000ece50       ??0IProcessManagerSink@@QAE@XZ 004ede50 f i ServerViewItem.obj
 0001:000ece80       ??0ITableViewFrameSink@@QAE@XZ 004ede80 f i ServerViewItem.obj
 0001:000eceb0       ??1CServerViewItem@@UAE@XZ 004edeb0 f   ServerViewItem.obj
 0001:000ecfd0       ?QueryInterface@CServerViewItem@@UAEPAXABU_GUID@@K@Z 004edfd0 f   ServerViewItem.obj
 0001:000ed1c0       ?OnInitDialog@CServerViewItem@@MAEHXZ 004ee1c0 f   ServerViewItem.obj
 0001:000ed370       ?PreTranslateMessage@CServerViewItem@@MAEHPAUtagMSG@@@Z 004ee370 f   ServerViewItem.obj
 0001:000ed3c0       ?OnCommand@CServerViewItem@@MAEHIJ@Z 004ee3c0 f   ServerViewItem.obj
 0001:000ed570       ?OnHitTableButton@CServerViewItem@@UAEXE@Z 004ee570 f   ServerViewItem.obj
 0001:000ed740       ?SetCoords@CGridCell@@UAEXHH@Z 004ee740 f   GridCell.obj
 0001:000ed740       ?OnClickDown@CGridCellBase@@MAEXVCPoint@@@Z 004ee740 f   GridCellBase.obj
 0001:000ed740       ?OnLButtonHitTable@CServerViewItem@@UAEXGG@Z 004ee740 f   ServerViewItem.obj
 0001:000ed740       ?OnClick@CGridCellBase@@MAEXVCPoint@@@Z 004ee740 f   GridCellBase.obj
 0001:000ed740       ?OnRClick@CGridCellBase@@MAEXVCPoint@@@Z 004ee740 f   GridCellBase.obj
 0001:000ed740       ?OnRButtonHitTable@CServerViewItem@@UAEXGG@Z 004ee740 f   ServerViewItem.obj
 0001:000ed740       ?SetCoords@CGridDefaultCell@@UAEXHH@Z 004ee740 f   GridCell.obj
 0001:000ed740       ?OnDblClick@CGridCellBase@@MAEXVCPoint@@@Z 004ee740 f   GridCellBase.obj
 0001:000ed760       ?OnEventTCPSocketLink@CServerViewItem@@MAE_NGH@Z 004ee760 f   ServerViewItem.obj
 0001:000ed850       ?OnEventTCPSocketShut@CServerViewItem@@MAE_NGE@Z 004ee850 f   ServerViewItem.obj
 0001:000ed9c0       ?OnEventTCPSocketRead@CServerViewItem@@MAE_NGUTCP_Command@@PAXG@Z 004ee9c0 f   ServerViewItem.obj
 0001:000edb10       ?OnGameProcessError@CServerViewItem@@MAE_NXZ 004eeb10 f   ServerViewItem.obj
 0001:000edb30       ?OnGameProcessClose@CServerViewItem@@MAE_NK@Z 004eeb30 f   ServerViewItem.obj
 0001:000edbf0       ?OnGameProcessCreate@CServerViewItem@@MAE_N_N@Z 004eebf0 f   ServerViewItem.obj
 0001:000eded0       ?OnProcessManagerData@CServerViewItem@@MAE_NGGPAXG@Z 004eeed0 f   ServerViewItem.obj
 0001:000edfb0       ?OnUserItemAcitve@CServerViewItem@@UAEXPAUIClientUserItem@@@Z 004eefb0 f   ServerViewItem.obj
 0001:000ee040       ?OnUserItemDelete@CServerViewItem@@UAEXPAUIClientUserItem@@@Z 004ef040 f   ServerViewItem.obj
 0001:000ee160       ?OnUserItemUpdate@CServerViewItem@@UAEXPAUIClientUserItem@@AAUtagUserScore@@@Z 004ef160 f   ServerViewItem.obj
 0001:000ee2d0       ?OnUserItemUpdate@CServerViewItem@@UAEXPAUIClientUserItem@@AAUtagUserSpreadInfo@@@Z 004ef2d0 f   ServerViewItem.obj
 0001:000ee3a0       ?OnUserItemUpdate@CServerViewItem@@UAEXPAUIClientUserItem@@AAUtagUserStatus@@@Z 004ef3a0 f   ServerViewItem.obj
 0001:000ee630       ?OnSocketMainUser@CServerViewItem@@IAE_NGPAXG@Z 004ef630 f   ServerViewItem.obj
 0001:000ee6e0       ?OnSocketMainLogon@CServerViewItem@@IAE_NGPAXG@Z 004ef6e0 f   ServerViewItem.obj
 0001:000ee7f0       ?OnSocketMainConfig@CServerViewItem@@IAE_NGPAXG@Z 004ef7f0 f   ServerViewItem.obj
 0001:000eea80       ?OnSocketMainInsure@CServerViewItem@@IAE_NGPAXG@Z 004efa80 f   ServerViewItem.obj
 0001:000eeae0       ?OnSocketMainManager@CServerViewItem@@IAE_NGPAXG@Z 004efae0 f   ServerViewItem.obj
 0001:000eeb50       ?OnSocketMainSystem@CServerViewItem@@IAE_NGPAXG@Z 004efb50 f   ServerViewItem.obj
 0001:000eebb0       ?OnSocketMainGameFrame@CServerViewItem@@IAE_NGGPAXG@Z 004efbb0 f   ServerViewItem.obj
 0001:000eec60       ?OnSocketSubUserEnter@CServerViewItem@@IAE_NPAXG@Z 004efc60 f   ServerViewItem.obj
 0001:000eeef0       ?OnSocketSubUserScore@CServerViewItem@@IAE_NPAXG@Z 004efef0 f   ServerViewItem.obj
 0001:000eef80       ?OnSocketSubUserStatus@CServerViewItem@@IAE_NPAXG@Z 004eff80 f   ServerViewItem.obj
 0001:000ef040       ?OnSocketSubUserSpreadInfo@CServerViewItem@@IAE_NPAXG@Z 004f0040 f   ServerViewItem.obj
 0001:000ef0d0       ?OnSocketSubLogonFinish@CServerViewItem@@IAE_NPAXG@Z 004f00d0 f   ServerViewItem.obj
 0001:000ef1c0       ?OnSocketSubLogonSuccess@CServerViewItem@@IAE_NPAXG@Z 004f01c0 f   ServerViewItem.obj
 0001:000ef230       ?OnSocketSubLogonFailure@CServerViewItem@@IAE_NPAXG@Z 004f0230 f   ServerViewItem.obj
 0001:000ef2d0       ?OnSocketSubUpdateNotify@CServerViewItem@@IAE_NPAXG@Z 004f02d0 f   ServerViewItem.obj
 0001:000ef520       ?OnSocketSubRequestFailure@CServerViewItem@@IAE_NPAXG@Z 004f0520 f   ServerViewItem.obj
 0001:000ef5f0       ?OnSocketSubSystemMessage@CServerViewItem@@IAE_NPAXG@Z 004f05f0 f   ServerViewItem.obj
 0001:000ef750       ?OnSocketSubActionMessage@CServerViewItem@@IAE_NPAXG@Z 004f0750 f   ServerViewItem.obj
 0001:000efa80       ?RectifyControl@CServerViewItem@@QAEXHH@Z 004f0a80 f   ServerViewItem.obj
 0001:000efaf0       ?InitServerViewItem@CServerViewItem@@QAEXPAVCGameServerItem@@@Z 004f0af0 f   ServerViewItem.obj
 0001:000efc80       ?GetGameResDirectory@CServerViewItem@@QAEXQA_WG@Z 004f0c80 f   ServerViewItem.obj
 0001:000efd10       ?SendLogonPacket@CServerViewItem@@QAE_NXZ 004f0d10 f   ServerViewItem.obj
 0001:000f0130       ?SendSitDownPacket@CServerViewItem@@QAE_NGG@Z 004f1130 f   ServerViewItem.obj
 0001:000f0190       ?SendStandUpPacket@CServerViewItem@@QAE_NGGE@Z 004f1190 f   ServerViewItem.obj
 0001:000f0200       ?PerformSitDownAction@CServerViewItem@@QAE_NGG@Z 004f1200 f   ServerViewItem.obj
 0001:000f0310       ?CheckUserRight@CServerViewItem@@QAE_NXZ 004f1310 f   ServerViewItem.obj
 0001:000f03d0       ?OnNcDestroy@CServerViewItem@@IAEXXZ 004f13d0 f   ServerViewItem.obj
 0001:000f04b0       ?OnSize@CServerViewItem@@IAEXIHH@Z 004f14b0 f   ServerViewItem.obj
 0001:000f04f0       ?CloseInstance@?$CTempldateHelper@UIWHNetwork@@@@QAE_NXZ 004f14f0 f i DlgCollocate.obj
 0001:000f04f0       ?CloseInstance@?$CTempldateHelper@UITCPSocket@@@@QAE_NXZ 004f14f0 f i ServerViewItem.obj
 0001:000f04f0       ?CloseInstance@?$CTempldateHelper@UIPlazaUserManager@@@@QAE_NXZ 004f14f0 f i ServerViewItem.obj
 0001:000f04f0       ?CloseInstance@?$CTempldateHelper@UIProcessControl@@@@QAE_NXZ 004f14f0 f i ProcessManager.obj
 0001:000f04f0       ?CloseInstance@?$CTempldateHelper@UIGameLevelParser@@@@QAE_NXZ 004f14f0 f i ServerViewItem.obj
 0001:000f04f0       ?CloseInstance@?$CTempldateHelper@UIUserOrderParser@@@@QAE_NXZ 004f14f0 f i GamePlaza.obj
 0001:000f04f0       ?CloseInstance@?$CTempldateHelper@UIFaceItemControl@@@@QAE_NXZ 004f14f0 f i GamePlaza.obj
 0001:000f04f0       ?CloseInstance@?$CTempldateHelper@UIFaceSelectControl@@@@QAE_NXZ 004f14f0 f i DlgRegister.obj
 0001:000f0570       ?GetInterface@?$CTempldateHelper@UIUserOrderParser@@@@QBEPAUIUserOrderParser@@XZ 004f1570 f i GamePlaza.obj
 0001:000f0570       ?GetInterface@?$CTempldateHelper@UIPlazaUserManager@@@@QBEPAUIPlazaUserManager@@XZ 004f1570 f i ServerViewItem.obj
 0001:000f0570       ?GetInterface@?$CTempldateHelper@UIGameLevelParser@@@@QBEPAUIGameLevelParser@@XZ 004f1570 f i ServerViewItem.obj
 0001:000f0570       ?GetInterface@?$CTempldateHelper@UIProcessControl@@@@QBEPAUIProcessControl@@XZ 004f1570 f i ProcessManager.obj
 0001:000f0570       ?GetInterface@?$CTempldateHelper@UIFaceItemControl@@@@QBEPAUIFaceItemControl@@XZ 004f1570 f i GamePlaza.obj
 0001:000f0570       ?GetInterface@?$CTempldateHelper@UIWHNetwork@@@@QBEPAUIWHNetwork@@XZ 004f1570 f i DlgCollocate.obj
 0001:000f0570       ?GetInterface@?$CTempldateHelper@UITCPSocket@@@@QBEPAUITCPSocket@@XZ 004f1570 f i ServerViewItem.obj
 0001:000f0590       ?Release@CServerViewItem@@W3AEXXZ 004f1590 f i ServerViewItem.obj
 0001:000f05a0       ?Release@CServerViewItem@@W7AEXXZ 004f15a0 f i ServerViewItem.obj
 0001:000f05b0       ?QueryInterface@CServerViewItem@@W3AEPAXABU_GUID@@K@Z 004f15b0 f i ServerViewItem.obj
 0001:000f05c0       ?Release@CServerViewItem@@WM@AEXXZ 004f15c0 f i ServerViewItem.obj
 0001:000f05d0       ?QueryInterface@CServerViewItem@@W7AEPAXABU_GUID@@K@Z 004f15d0 f i ServerViewItem.obj
 0001:000f05e0       ?QueryInterface@CServerViewItem@@WM@AEPAXABU_GUID@@K@Z 004f15e0 f i ServerViewItem.obj
 0001:000f05f0       ?Release@CServerViewItem@@WBE@AEXXZ 004f15f0 f i ServerViewItem.obj
 0001:000f0600       ?QueryInterface@CServerViewItem@@WBE@AEPAXABU_GUID@@K@Z 004f1600 f i ServerViewItem.obj
 0001:000f0610       ?CanPlay@CUserRight@@SA_NK@Z 004f1610 f i ServerViewItem.obj
 0001:000f0630       ??0CTCPSocketHelper@@QAE@XZ 004f1630 f i ServerViewItem.obj
 0001:000f0670       ??_GCTCPSocketHelper@@UAEPAXI@Z 004f1670 f i ServerViewItem.obj
 0001:000f0670       ??_ECTCPSocketHelper@@UAEPAXI@Z 004f1670 f i ServerViewItem.obj
 0001:000f06b0       ??1CTCPSocketHelper@@UAE@XZ 004f16b0 f i ServerViewItem.obj
 0001:000f06d0       ??0CGameLevelParserHelper@@QAE@XZ 004f16d0 f i ServerViewItem.obj
 0001:000f0710       ??_GCGameLevelParserHelper@@UAEPAXI@Z 004f1710 f i ServerViewItem.obj
 0001:000f0710       ??_ECGameLevelParserHelper@@UAEPAXI@Z 004f1710 f i ServerViewItem.obj
 0001:000f0750       ??1CGameLevelParserHelper@@UAE@XZ 004f1750 f i ServerViewItem.obj
 0001:000f0770       ??0CPlazaUserManagerHelper@@QAE@XZ 004f1770 f i ServerViewItem.obj
 0001:000f07b0       ??_ECPlazaUserManagerHelper@@UAEPAXI@Z 004f17b0 f i ServerViewItem.obj
 0001:000f07b0       ??_GCPlazaUserManagerHelper@@UAEPAXI@Z 004f17b0 f i ServerViewItem.obj
 0001:000f07f0       ??1CPlazaUserManagerHelper@@UAE@XZ 004f17f0 f i ServerViewItem.obj
 0001:000f0810       ??0?$CTempldateHelper@UITCPSocket@@@@QAE@ABU_GUID@@KPB_WPBD@Z 004f1810 f i ServerViewItem.obj
 0001:000f08a0       ??1?$CTempldateHelper@UITCPSocket@@@@UAE@XZ 004f18a0 f i ServerViewItem.obj
 0001:000f08d0       ??0?$CTempldateHelper@UIGameLevelParser@@@@QAE@ABU_GUID@@KPB_WPBD@Z 004f18d0 f i ServerViewItem.obj
 0001:000f0960       ??1?$CTempldateHelper@UIGameLevelParser@@@@UAE@XZ 004f1960 f i ServerViewItem.obj
 0001:000f0990       ??0?$CTempldateHelper@UIPlazaUserManager@@@@QAE@ABU_GUID@@KPB_WPBD@Z 004f1990 f i ServerViewItem.obj
 0001:000f0a20       ??1?$CTempldateHelper@UIPlazaUserManager@@@@UAE@XZ 004f1a20 f i ServerViewItem.obj
 0001:000f0a50       ??_G?$CTempldateHelper@UITCPSocket@@@@UAEPAXI@Z 004f1a50 f i ServerViewItem.obj
 0001:000f0a50       ??_E?$CTempldateHelper@UITCPSocket@@@@UAEPAXI@Z 004f1a50 f i ServerViewItem.obj
 0001:000f0a90       ??_G?$CTempldateHelper@UIGameLevelParser@@@@UAEPAXI@Z 004f1a90 f i ServerViewItem.obj
 0001:000f0a90       ??_E?$CTempldateHelper@UIGameLevelParser@@@@UAEPAXI@Z 004f1a90 f i ServerViewItem.obj
 0001:000f0ad0       ??_G?$CTempldateHelper@UIPlazaUserManager@@@@UAEPAXI@Z 004f1ad0 f i ServerViewItem.obj
 0001:000f0ad0       ??_E?$CTempldateHelper@UIPlazaUserManager@@@@UAEPAXI@Z 004f1ad0 f i ServerViewItem.obj
 0001:000f0b10       ?GetRuntimeClass@CShanDong11X5@@UBEPAUCRuntimeClass@@XZ 004f1b10 f   ShanDong11X5.obj
 0001:000f0b30       ??0CShanDong11X5@@QAE@PAVCWnd@@@Z 004f1b30 f   ShanDong11X5.obj
 0001:000f1a40       ??_GCShanDong11X5@@UAEPAXI@Z 004f2a40 f i ShanDong11X5.obj
 0001:000f1a40       ??_ECShanDong11X5@@UAEPAXI@Z 004f2a40 f i ShanDong11X5.obj
 0001:000f1a80       ??1CShanDong11X5@@UAE@XZ   004f2a80 f   ShanDong11X5.obj
 0001:000f2890       ?ConnectMainDlg@CShanDong11X5@@QAEXPAVCPlazaViewItem@@@Z 004f3890 f   ShanDong11X5.obj
 0001:000f28c0       ?FlushZongjine@CShanDong11X5@@QAEXXZ 004f38c0 f   ShanDong11X5.obj
 0001:000f28f0       ?DoDataExchange@CShanDong11X5@@MAEXPAVCDataExchange@@@Z 004f38f0 f   ShanDong11X5.obj
 0001:000f3720       ?GetMessageMap@CShanDong11X5@@MBEPBUAFX_MSGMAP@@XZ 004f4720 f   ShanDong11X5.obj
 0001:000f3740       ?GetThisMessageMap@CShanDong11X5@@KGPBUAFX_MSGMAP@@XZ 004f4740 f   ShanDong11X5.obj
 0001:000f3760       ?OnPaint@CShanDong11X5@@IAEXXZ 004f4760 f   ShanDong11X5.obj
 0001:000f39f0       ?OnSize@CShanDong11X5@@IAEXIHH@Z 004f49f0 f   ShanDong11X5.obj
 0001:000f3a60       ?OnShowWindow@CShanDong11X5@@IAEXHI@Z 004f4a60 f   ShanDong11X5.obj
 0001:000f3b50       ?OnTimer@CShanDong11X5@@IAEXI@Z 004f4b50 f   ShanDong11X5.obj
 0001:000f3e40       ?OnBnClickedBtnHszhx@CShanDong11X5@@IAEXXZ 004f4e40 f   ShanDong11X5.obj
 0001:000f3e90       ?OnBnClickedBtnHszx@CShanDong11X5@@IAEXXZ 004f4e90 f   ShanDong11X5.obj
 0001:000f3ee0       ?OnBnClickedBtnWxhe@CShanDong11X5@@IAEXXZ 004f4ee0 f   ShanDong11X5.obj
 0001:000f3f30       ?OnBnClickedBtnHezx@CShanDong11X5@@IAEXXZ 004f4f30 f   ShanDong11X5.obj
 0001:000f3f80       ?OnBnClickedBtnDxdsh@CShanDong11X5@@IAEXXZ 004f4f80 f   ShanDong11X5.obj
 0001:000f3fd0       ?OnBnClickedBtnBdw@CShanDong11X5@@IAEXXZ 004f4fd0 f   ShanDong11X5.obj
 0001:000f4020       ?OnBnClickedBtnQszhx@CShanDong11X5@@IAEXXZ 004f5020 f   ShanDong11X5.obj
 0001:000f4070       ?OnBnClickedBtnQszx@CShanDong11X5@@IAEXXZ 004f5070 f   ShanDong11X5.obj
 0001:000f40c0       ?OnBnClickedBtnWxqe@CShanDong11X5@@IAEXXZ 004f50c0 f   ShanDong11X5.obj
 0001:000f4120       ?OnBnClickedBtnQezx@CShanDong11X5@@IAEXXZ 004f5120 f   ShanDong11X5.obj
 0001:000f4180       ?OnBnClickedBtnHszhxhzh@CJiangXi11X5@@IAEXXZ 004f5180 f   JiangXi11X5.obj
 0001:000f4180       ?OnBnClickedBtnHszhxhzh@CShanDong11X5@@IAEXXZ 004f5180 f   ShanDong11X5.obj
 0001:000f4180       ?OnBnClickedBtnHszhxhzh@CGuangDong11X5@@IAEXXZ 004f5180 f   GuangDong11X5.obj
 0001:000f4180       ?OnBnClickedBtnHszhxhzh@CChongQing11X5@@IAEXXZ 004f5180 f   ChongQing11X5.obj
 0001:000f41d0       ?OnInitDialog@CShanDong11X5@@MAEHXZ 004f51d0 f   ShanDong11X5.obj
 0001:000f4cd0       ?OnBnClickedBtnWanQuan@CShanDong11X5@@IAEXXZ 004f5cd0 f   ShanDong11X5.obj
 0001:000f4da0       ?OnBnClickedBtnWanDa@CShanDong11X5@@IAEXXZ 004f5da0 f   ShanDong11X5.obj
 0001:000f4e70       ?OnBnClickedBtnWanXiao@CShanDong11X5@@IAEXXZ 004f5e70 f   ShanDong11X5.obj
 0001:000f4f40       ?OnBnClickedBtnWanDan@CShanDong11X5@@IAEXXZ 004f5f40 f   ShanDong11X5.obj
 0001:000f5010       ?OnBnClickedBtnWanShuang@CShanDong11X5@@IAEXXZ 004f6010 f   ShanDong11X5.obj
 0001:000f50e0       ?OnBnClickedBtnWanQing@CShanDong11X5@@IAEXXZ 004f60e0 f   ShanDong11X5.obj
 0001:000f51b0       ?OnBnClickedBtnQianQuan@CShanDong11X5@@IAEXXZ 004f61b0 f   ShanDong11X5.obj
 0001:000f5280       ?OnBnClickedBtnQianDa@CShanDong11X5@@IAEXXZ 004f6280 f   ShanDong11X5.obj
 0001:000f5350       ?OnBnClickedBtnQianXiao@CShanDong11X5@@IAEXXZ 004f6350 f   ShanDong11X5.obj
 0001:000f5420       ?OnBnClickedBtnQianDan@CShanDong11X5@@IAEXXZ 004f6420 f   ShanDong11X5.obj
 0001:000f54f0       ?OnBnClickedBtnQianShuang@CShanDong11X5@@IAEXXZ 004f64f0 f   ShanDong11X5.obj
 0001:000f55c0       ?OnBnClickedBtnQianQing@CShanDong11X5@@IAEXXZ 004f65c0 f   ShanDong11X5.obj
 0001:000f5690       ?OnBnClickedBtnBaiQuan@CShanDong11X5@@IAEXXZ 004f6690 f   ShanDong11X5.obj
 0001:000f5760       ?OnBnClickedBtnBaiDa@CShanDong11X5@@IAEXXZ 004f6760 f   ShanDong11X5.obj
 0001:000f5830       ?OnBnClickedBtnBaiXiao@CShanDong11X5@@IAEXXZ 004f6830 f   ShanDong11X5.obj
 0001:000f5900       ?OnBnClickedBtnBaiDan@CShanDong11X5@@IAEXXZ 004f6900 f   ShanDong11X5.obj
 0001:000f59d0       ?OnBnClickedBtnBaiShuang@CShanDong11X5@@IAEXXZ 004f69d0 f   ShanDong11X5.obj
 0001:000f5aa0       ?OnBnClickedBtnBaiQing@CShanDong11X5@@IAEXXZ 004f6aa0 f   ShanDong11X5.obj
 0001:000f5b70       ?OnBnClickedBtnShiQuan@CShanDong11X5@@IAEXXZ 004f6b70 f   ShanDong11X5.obj
 0001:000f5c40       ?OnBnClickedBtnShiDa@CShanDong11X5@@IAEXXZ 004f6c40 f   ShanDong11X5.obj
 0001:000f5d10       ?OnBnClickedBtnShiXiao@CShanDong11X5@@IAEXXZ 004f6d10 f   ShanDong11X5.obj
 0001:000f5de0       ?OnBnClickedBtnShiDan@CShanDong11X5@@IAEXXZ 004f6de0 f   ShanDong11X5.obj
 0001:000f5eb0       ?OnBnClickedBtnShiShuang@CShanDong11X5@@IAEXXZ 004f6eb0 f   ShanDong11X5.obj
 0001:000f5f80       ?OnBnClickedBtnShiQing@CShanDong11X5@@IAEXXZ 004f6f80 f   ShanDong11X5.obj
 0001:000f6050       ?OnBnClickedBtnGeQuan@CShanDong11X5@@IAEXXZ 004f7050 f   ShanDong11X5.obj
 0001:000f6120       ?OnBnClickedBtnGeDa@CShanDong11X5@@IAEXXZ 004f7120 f   ShanDong11X5.obj
 0001:000f61f0       ?OnBnClickedBtnGeXiao@CShanDong11X5@@IAEXXZ 004f71f0 f   ShanDong11X5.obj
 0001:000f62c0       ?OnBnClickedBtnGeDan@CShanDong11X5@@IAEXXZ 004f72c0 f   ShanDong11X5.obj
 0001:000f6390       ?OnBnClickedBtnGeShuang@CShanDong11X5@@IAEXXZ 004f7390 f   ShanDong11X5.obj
 0001:000f6460       ?OnBnClickedBtnGeQing@CShanDong11X5@@IAEXXZ 004f7460 f   ShanDong11X5.obj
 0001:000f6520       ?OnBnClickedBtnChqAdd@CShanDong11X5@@IAEXXZ 004f7520 f   ShanDong11X5.obj
 0001:000f9730       ?OnStatusCancel@CXinJiangSSC@@UAEXXZ 004fa730 f   XinJiangSSC.obj
 0001:000f9730       ?OnStatusCancel@CFenFenCai@@UAEXXZ 004fa730 f   FenFenCai.obj
 0001:000f9730       ?OnStatusCancel@CShanDong11X5@@UAEXXZ 004fa730 f   ShanDong11X5.obj
 0001:000f9730       ?OnStatusCancel@CWuFenCai@@UAEXXZ 004fa730 f   WuFenCai.obj
 0001:000f9730       ?OnStatusCancel@CGuangDong11X5@@UAEXXZ 004fa730 f   GuangDong11X5.obj
 0001:000f9730       ?OnStatusCancel@CJiangXi11X5@@UAEXXZ 004fa730 f   JiangXi11X5.obj
 0001:000f9730       ?OnStatusCancel@CChongQingSSC@@UAEXXZ 004fa730 f   ChongQingSSC.obj
 0001:000f9730       ?OnStatusCancel@CJiangXiSSC@@UAEXXZ 004fa730 f   JiangXiSSC.obj
 0001:000f9730       ?OnStatusCancel@CServerViewItem@@MAEXXZ 004fa730 f   ServerViewItem.obj
 0001:000f9730       ?OnStatusCancel@CChongQing11X5@@UAEXXZ 004fa730 f   ChongQing11X5.obj
 0001:000f9760       ?InitNumberBtns@CShanDong11X5@@AAEXXZ 004fa760 f   ShanDong11X5.obj
 0001:000fa250       ?InitListCtrl@CShanDong11X5@@AAEXXZ 004fb250 f   ShanDong11X5.obj
 0001:000fa300       ?OnBnClickedRioHszhxFushi@CShanDong11X5@@IAEXXZ 004fb300 f   ShanDong11X5.obj
 0001:000fa3e0       ?OnBnClickedRioRenXuan2@CShanDong11X5@@IAEXXZ 004fb3e0 f   ShanDong11X5.obj
 0001:000fa4c0       ?OnBnClickedRioHszsFushi@CShanDong11X5@@IAEXXZ 004fb4c0 f   ShanDong11X5.obj
 0001:000fa5a0       ?OnBnClickedRioQszsFushi@CShanDong11X5@@IAEXXZ 004fb5a0 f   ShanDong11X5.obj
 0001:000fa630       ?OnBnClickedRioHezhxFushi@CShanDong11X5@@IAEXXZ 004fb630 f   ShanDong11X5.obj
 0001:000fa710       ?OnBnClickedRioHezxFushi@CShanDong11X5@@IAEXXZ 004fb710 f   ShanDong11X5.obj
 0001:000fa7f0       ?OnBnClickedRioQezhxFushi@CShanDong11X5@@IAEXXZ 004fb7f0 f   ShanDong11X5.obj
 0001:000fa8e0       ?OnBnClickedRioQezhxDanshi@CShanDong11X5@@IAEXXZ 004fb8e0 f   ShanDong11X5.obj
 0001:000fa9a0       ?OnBnClickedRioQezxFushi@CShanDong11X5@@IAEXXZ 004fb9a0 f   ShanDong11X5.obj
 0001:000faa90       ?OnBnClickedRioQezxDanshi@CShanDong11X5@@IAEXXZ 004fba90 f   ShanDong11X5.obj
 0001:000fab50       ?OnBnClickedRioDxdsh@CShanDong11X5@@IAEXXZ 004fbb50 f   ShanDong11X5.obj
 0001:000fac30       ?OnBnClickedRioHsbdw@CShanDong11X5@@IAEXXZ 004fbc30 f   ShanDong11X5.obj
 0001:000fad10       ?OnBnClickedBtnZhuihao@CShanDong11X5@@IAEXXZ 004fbd10 f   ShanDong11X5.obj
 0001:000fb0e0       ?CheckInput@CShanDong11X5@@QAE_NXZ 004fc0e0 f   ShanDong11X5.obj
 0001:000fb470       ?OnBnClickedBtnTouzhu@CShanDong11X5@@IAEXXZ 004fc470 f   ShanDong11X5.obj
 0001:000fb600       ?OnBnClickedBtnDelSel@CShanDong11X5@@IAEXXZ 004fc600 f   ShanDong11X5.obj
 0001:000fb710       ?OnBnClickedBtnClsList@CShanDong11X5@@IAEXXZ 004fc710 f   ShanDong11X5.obj
 0001:000fb7a0       ?OnEnChangeEditDanshiInput@CShanDong11X5@@IAEXXZ 004fc7a0 f   ShanDong11X5.obj
 0001:000fb7d0       ?OnEnChangeEditBeishu@CShanDong11X5@@IAEXXZ 004fc7d0 f   ShanDong11X5.obj
 0001:000fb980       ?CheckNumBtn@CWuFenCai@@AAEXAAVCNumerButton@@@Z 004fc980 f   WuFenCai.obj
 0001:000fb980       ?CheckNumBtn@CChongQing11X5@@AAEXAAVCNumerButton@@@Z 004fc980 f   ChongQing11X5.obj
 0001:000fb980       ?CheckNumBtn@CJiangXiSSC@@AAEXAAVCNumerButton@@@Z 004fc980 f   JiangXiSSC.obj
 0001:000fb980       ?CheckNumBtn@CFenFenCai@@AAEXAAVCNumerButton@@@Z 004fc980 f   FenFenCai.obj
 0001:000fb980       ?CheckNumBtn@CShanDong11X5@@AAEXAAVCNumerButton@@@Z 004fc980 f   ShanDong11X5.obj
 0001:000fb980       ?CheckNumBtn@CGuangDong11X5@@AAEXAAVCNumerButton@@@Z 004fc980 f   GuangDong11X5.obj
 0001:000fb980       ?CheckNumBtn@CChongQingSSC@@AAEXAAVCNumerButton@@@Z 004fc980 f   ChongQingSSC.obj
 0001:000fb980       ?CheckNumBtn@CXinJiangSSC@@AAEXAAVCNumerButton@@@Z 004fc980 f   XinJiangSSC.obj
 0001:000fb980       ?CheckNumBtn@CJiangXi11X5@@AAEXAAVCNumerButton@@@Z 004fc980 f   JiangXi11X5.obj
 0001:000fb9a0       ?GetWanString@CShanDong11X5@@AAE?AV?$CStringT@_WV?$StrTraitMFC_DLL@_WV?$ChTraitsCRT@_W@ATL@@@@@ATL@@XZ 004fc9a0 f   ShanDong11X5.obj
 0001:000fbbd0       ?GetQianString@CShanDong11X5@@AAE?AV?$CStringT@_WV?$StrTraitMFC_DLL@_WV?$ChTraitsCRT@_W@ATL@@@@@ATL@@XZ 004fcbd0 f   ShanDong11X5.obj
 0001:000fbe00       ?GetBaiString@CShanDong11X5@@AAE?AV?$CStringT@_WV?$StrTraitMFC_DLL@_WV?$ChTraitsCRT@_W@ATL@@@@@ATL@@XZ 004fce00 f   ShanDong11X5.obj
 0001:000fc030       ?GetShiString@CShanDong11X5@@AAE?AV?$CStringT@_WV?$StrTraitMFC_DLL@_WV?$ChTraitsCRT@_W@ATL@@@@@ATL@@XZ 004fd030 f   ShanDong11X5.obj
 0001:000fc260       ?GetGeString@CShanDong11X5@@AAE?AV?$CStringT@_WV?$StrTraitMFC_DLL@_WV?$ChTraitsCRT@_W@ATL@@@@@ATL@@XZ 004fd260 f   ShanDong11X5.obj
 0001:000fc490       ?GetWanDesc@CShanDong11X5@@AAE?AV?$CStringT@_WV?$StrTraitMFC_DLL@_WV?$ChTraitsCRT@_W@ATL@@@@@ATL@@XZ 004fd490 f   ShanDong11X5.obj
 0001:000fc4e0       ?AdjustWanFa@CShanDong11X5@@AAEXXZ 004fd4e0 f   ShanDong11X5.obj
 0001:000fc7e0       ?AdjustRadio@CGuangDong11X5@@AAEXXZ 004fd7e0 f   GuangDong11X5.obj
 0001:000fc7e0       ?AdjustRadio@CShanDong11X5@@AAEXXZ 004fd7e0 f   ShanDong11X5.obj
 0001:000fc7e0       ?AdjustRadio@CJiangXi11X5@@AAEXXZ 004fd7e0 f   JiangXi11X5.obj
 0001:000fc7e0       ?AdjustRadio@CChongQing11X5@@AAEXXZ 004fd7e0 f   ChongQing11X5.obj
 0001:000fce10       ?AdjustNumBtn@CShanDong11X5@@AAEXXZ 004fde10 f   ShanDong11X5.obj
 0001:000febb0       ?AdjustNumView@CShanDong11X5@@AAEXXZ 004ffbb0 f   ShanDong11X5.obj
 0001:000fed60       ?AdjustDanShi@CShanDong11X5@@AAEXXZ 004ffd60 f   ShanDong11X5.obj
 0001:000fedb0       ?AdjustAdd@CShanDong11X5@@AAEXXZ 004ffdb0 f   ShanDong11X5.obj
 0001:000fee60       ?HideWanNums@CShanDong11X5@@AAEXXZ 004ffe60 f   ShanDong11X5.obj
 0001:000fefa0       ?HideQianNums@CShanDong11X5@@AAEXXZ 004fffa0 f   ShanDong11X5.obj
 0001:000ff0e0       ?HideBaiNums@CShanDong11X5@@AAEXXZ 005000e0 f   ShanDong11X5.obj
 0001:000ff240       ?HideShiNums@CShanDong11X5@@AAEXXZ 00500240 f   ShanDong11X5.obj
 0001:000ff380       ?HideGeNums@CShanDong11X5@@AAEXXZ 00500380 f   ShanDong11X5.obj
 0001:000ff4c0       ?ShowWanNums@CShanDong11X5@@AAEXXZ 005004c0 f   ShanDong11X5.obj
 0001:000ff600       ?ShowQianNums@CShanDong11X5@@AAEXXZ 00500600 f   ShanDong11X5.obj
 0001:000ff740       ?ShowBaiNums@CShanDong11X5@@AAEXXZ 00500740 f   ShanDong11X5.obj
 0001:000ff8a0       ?ShowZuXuan@CShanDong11X5@@AAEXXZ 005008a0 f   ShanDong11X5.obj
 0001:000ff8f0       ?HideDaXiaoDanShuang@CShanDong11X5@@AAEXXZ 005008f0 f   ShanDong11X5.obj
 0001:000ff990       ?HideDanShiEdit@CShanDong11X5@@AAEXXZ 00500990 f   ShanDong11X5.obj
 0001:000ff9c0       ?ShowDanShiEdit@CShanDong11X5@@AAEXXZ 005009c0 f   ShanDong11X5.obj
 0001:000ff9f0       ?CheckWanFaBtn@CShanDong11X5@@AAEXAAVCTextButton@@@Z 005009f0 f   ShanDong11X5.obj
 0001:000ffab0       ?SendToServer@CShanDong11X5@@AAEXH@Z 00500ab0 f   ShanDong11X5.obj
 0001:000ffc50       ?LuckyNumCQSSC@CShanDong11X5@@AAE_NXZ 00500c50 f   ShanDong11X5.obj
 0001:00100130       ?GetKjShjDiff@CShanDong11X5@@AAEJXZ 00501130 f   ShanDong11X5.obj
 0001:00100180       ?DrawLastKjHaoma@CShanDong11X5@@AAEXPAVCDC@@AAVGraphics@Gdiplus@@@Z 00501180 f   ShanDong11X5.obj
 0001:00100960       ?DrawTopKjHaoma@CShanDong11X5@@AAEXPAVCDC@@AAVGraphics@Gdiplus@@@Z 00501960 f   ShanDong11X5.obj
 0001:00100d30       ?DrawSmallNum@CShanDong11X5@@AAEXAAVGraphics@Gdiplus@@PAVBitmap@3@AAVRect@3@H@Z 00501d30 f   ShanDong11X5.obj
 0001:00100d90       ?DrawZongZhushuJinE@CShanDong11X5@@AAEXPAVCDC@@@Z 00501d90 f   ShanDong11X5.obj
 0001:00100f70       ?ResetAllNums@CShanDong11X5@@AAEXXZ 00501f70 f   ShanDong11X5.obj
 0001:001013d0       ?SetLockText@CShanDong11X5@@AAEXMM@Z 005023d0 f   ShanDong11X5.obj
 0001:001014d0       ?GetDanShiHaoma@CShanDong11X5@@AAE_NAAV?$CStringT@_WV?$StrTraitMFC_DLL@_WV?$ChTraitsCRT@_W@ATL@@@@@ATL@@HH@Z 005024d0 f   ShanDong11X5.obj
 0001:00101950       ?GetHaomaStrs@CGuangDong11X5@@AAE_NAAVCStringArray@@V?$CStringT@_WV?$StrTraitMFC_DLL@_WV?$ChTraitsCRT@_W@ATL@@@@@ATL@@HH@Z 00502950 f   GuangDong11X5.obj
 0001:00101950       ?GetHaomaStrs@CChongQing11X5@@AAE_NAAVCStringArray@@V?$CStringT@_WV?$StrTraitMFC_DLL@_WV?$ChTraitsCRT@_W@ATL@@@@@ATL@@HH@Z 00502950 f   ChongQing11X5.obj
 0001:00101950       ?GetHaomaStrs@CJiangXi11X5@@AAE_NAAVCStringArray@@V?$CStringT@_WV?$StrTraitMFC_DLL@_WV?$ChTraitsCRT@_W@ATL@@@@@ATL@@HH@Z 00502950 f   JiangXi11X5.obj
 0001:00101950       ?GetHaomaStrs@CShanDong11X5@@AAE_NAAVCStringArray@@V?$CStringT@_WV?$StrTraitMFC_DLL@_WV?$ChTraitsCRT@_W@ATL@@@@@ATL@@HH@Z 00502950 f   ShanDong11X5.obj
 0001:00101df0       ?InitWanFaMoShi@CShanDong11X5@@AAEXXZ 00502df0 f   ShanDong11X5.obj
 0001:00101f60       ?OnEventMissionLink@CShanDong11X5@@UAE_NHH@Z 00502f60 f   ShanDong11X5.obj
 0001:001033a0       ?OnEventMissionRead@CShanDong11X5@@UAE_NUTCP_Command@@PAXG@Z 005043a0 f   ShanDong11X5.obj
 0001:00103db0       ?OnMouseMove@CShanDong11X5@@IAEXIVCPoint@@@Z 00504db0 f   ShanDong11X5.obj
 0001:00103e50       ?OnMouseLeave@CShanDong11X5@@IAEJIJ@Z 00504e50 f   ShanDong11X5.obj
 0001:00103e80       ?OnBnClickedRioMouseInput@CShanDong11X5@@AAEXXZ 00504e80 f   ShanDong11X5.obj
 0001:00104240       ?OnBnClickedRioKeyboardInput@CShanDong11X5@@AAEXXZ 00505240 f   ShanDong11X5.obj
 0001:001042d0       ?OnBnClickedChkBai@CShanDong11X5@@AAEXXZ 005052d0 f   ShanDong11X5.obj
 0001:001042d0       ?OnBnClickedChkQian@CShanDong11X5@@AAEXXZ 005052d0 f   ShanDong11X5.obj
 0001:001042d0       ?OnBnClickedChkShi@CChongQing11X5@@AAEXXZ 005052d0 f   ChongQing11X5.obj
 0001:001042d0       ?OnBnClickedChkWan@CChongQing11X5@@AAEXXZ 005052d0 f   ChongQing11X5.obj
 0001:001042d0       ?OnBnClickedChkQian@CGuangDong11X5@@AAEXXZ 005052d0 f   GuangDong11X5.obj
 0001:001042d0       ?OnBnClickedChkShi@CGuangDong11X5@@AAEXXZ 005052d0 f   GuangDong11X5.obj
 0001:001042d0       ?OnBnClickedChkWan@CGuangDong11X5@@AAEXXZ 005052d0 f   GuangDong11X5.obj
 0001:001042d0       ?OnBnClickedChkge@CChongQing11X5@@AAEXXZ 005052d0 f   ChongQing11X5.obj
 0001:001042d0       ?OnBnClickedChkBai@CGuangDong11X5@@AAEXXZ 005052d0 f   GuangDong11X5.obj
 0001:001042d0       ?OnBnClickedChkWan@CJiangXi11X5@@AAEXXZ 005052d0 f   JiangXi11X5.obj
 0001:001042d0       ?OnBnClickedChkQian@CJiangXi11X5@@AAEXXZ 005052d0 f   JiangXi11X5.obj
 0001:001042d0       ?OnBnClickedChkWan@CShanDong11X5@@AAEXXZ 005052d0 f   ShanDong11X5.obj
 0001:001042d0       ?OnBnClickedChkBai@CJiangXi11X5@@AAEXXZ 005052d0 f   JiangXi11X5.obj
 0001:001042d0       ?OnBnClickedChkShi@CJiangXi11X5@@AAEXXZ 005052d0 f   JiangXi11X5.obj
 0001:001042d0       ??1COccManager@@UAE@XZ     005052d0 f   GamePlaza.obj
 0001:001042d0       ?OnBnClickedChkQian@CChongQing11X5@@AAEXXZ 005052d0 f   ChongQing11X5.obj
 0001:001042d0       ?OnBnClickedChkShi@CShanDong11X5@@AAEXXZ 005052d0 f   ShanDong11X5.obj
 0001:001042d0       ?OnBnClickedChkge@CJiangXi11X5@@AAEXXZ 005052d0 f   JiangXi11X5.obj
 0001:001042d0       ?OnBnClickedChkge@CShanDong11X5@@AAEXXZ 005052d0 f   ShanDong11X5.obj
 0001:001042d0       ?OnBnClickedChkBai@CChongQing11X5@@AAEXXZ 005052d0 f   ChongQing11X5.obj
 0001:001042d0       ?OnBnClickedChkge@CGuangDong11X5@@AAEXXZ 005052d0 f   GuangDong11X5.obj
 0001:001042f0       ?OnBnClickedBtnLock@CShanDong11X5@@AAEXXZ 005052f0 f   ShanDong11X5.obj
 0001:001044b0       ??_ECShanDong11X5@@WHE@AEPAXI@Z 005054b0 f i ShanDong11X5.obj
 0001:001044c0       ?GetMessageMap@CTableViewFrame@@MBEPBUAFX_MSGMAP@@XZ 005054c0 f   TableViewFrame.obj
 0001:001044e0       ?GetThisMessageMap@CTableViewFrame@@KGPBUAFX_MSGMAP@@XZ 005054e0 f   TableViewFrame.obj
 0001:00104500       ??0CTableView@@QAE@XZ      00505500 f   TableViewFrame.obj
 0001:00104550       ?Release@CTableView@@UAEXXZ 00505550 f i TableViewFrame.obj
 0001:00104590       ??_ECTableView@@UAEPAXI@Z  00505590 f i TableViewFrame.obj
 0001:00104590       ??_GCTableView@@UAEPAXI@Z  00505590 f i TableViewFrame.obj
 0001:001045d0       ??0ITableView@@QAE@XZ      005055d0 f i TableViewFrame.obj
 0001:00104600       ??1CTableView@@UAE@XZ      00505600 f   TableViewFrame.obj
 0001:00104620       ?QueryInterface@CTableView@@UAEPAXABU_GUID@@K@Z 00505620 f   TableViewFrame.obj
 0001:001046a0       ?GetNullChairCount@CTableView@@UAEGAAG@Z 005056a0 f   TableViewFrame.obj
 0001:00104720       ?InitTableView@CTableView@@UAEXGGPAUITableViewFrame@@@Z 00505720 f   TableViewFrame.obj
 0001:00104780       ?GetClientUserItem@CTableView@@UAEPAUIClientUserItem@@G@Z 00505780 f   TableViewFrame.obj
 0001:001047c0       ?SetClientUserItem@CTableView@@UAE_NGPAUIClientUserItem@@@Z 005057c0 f   TableViewFrame.obj
 0001:00104800       ??0CTableViewFrame@@QAE@XZ 00505800 f   TableViewFrame.obj
 0001:001048b0       ?GetTableCount@CTableViewFrame@@UAEGXZ 005058b0 f i TableViewFrame.obj
 0001:001048d0       ?GetChairCount@CTableViewFrame@@UAEGXZ 005058d0 f i TableViewFrame.obj
 0001:001048f0       ??_ECTableViewFrame@@UAEPAXI@Z 005058f0 f i TableViewFrame.obj
 0001:001048f0       ??_GCTableViewFrame@@UAEPAXI@Z 005058f0 f i TableViewFrame.obj
 0001:00104930       ??0ITableViewFrame@@QAE@XZ 00505930 f i TableViewFrame.obj
 0001:00104960       ??1CTableViewFrame@@UAE@XZ 00505960 f   TableViewFrame.obj
 0001:00104a80       ?QueryInterface@CTableViewFrame@@UAEPAXABU_GUID@@K@Z 00505a80 f   TableViewFrame.obj
 0001:00104b30       ?ConfigTableFrame@CTableViewFrame@@UAE_NGG@Z 00505b30 f   TableViewFrame.obj
 0001:00104c90       ?CreateTableFrame@CTableViewFrame@@UAE_NPAVCWnd@@IPAUIUnknownEx@@@Z 00505c90 f   TableViewFrame.obj
 0001:00104d30       ?GetClientUserItem@CTableViewFrame@@UAEPAUIClientUserItem@@GG@Z 00505d30 f   TableViewFrame.obj
 0001:00104d80       ?SetClientUserItem@CTableViewFrame@@UAE_NGGPAUIClientUserItem@@@Z 00505d80 f   TableViewFrame.obj
 0001:00104dd0       ?GetTableViewItem@CTableViewFrame@@UAEPAUITableView@@G@Z 00505dd0 f   TableViewFrame.obj
 0001:00104e30       ?GetNullChairCount@CTableViewFrame@@UAEGGAAG@Z 00505e30 f   TableViewFrame.obj
 0001:00104e80       ?GetHoverButton@CTableViewFrame@@IAEEVCPoint@@@Z 00505e80 f   TableViewFrame.obj
 0001:00104f80       ?OnPaint@CTableViewFrame@@IAEXXZ 00505f80 f   TableViewFrame.obj
 0001:00105400       ?OnMouseMove@CTableViewFrame@@IAEXIVCPoint@@@Z 00506400 f   TableViewFrame.obj
 0001:001054f0       ?OnLButtonUp@CTableViewFrame@@IAEXIVCPoint@@@Z 005064f0 f   TableViewFrame.obj
 0001:00105590       ?OnLButtonDown@CTableViewFrame@@IAEXIVCPoint@@@Z 00506590 f   TableViewFrame.obj
 0001:001055f0       ?OnMouseLeave@CTableViewFrame@@IAEJIJ@Z 005065f0 f   TableViewFrame.obj
 0001:00105640       ??0?$CWHArray@PAVCTableView@@ABQAV1@@@QAE@XZ 00506640 f i TableViewFrame.obj
 0001:00105690       ??1?$CWHArray@PAVCTableView@@ABQAV1@@@UAE@XZ 00506690 f i TableViewFrame.obj
 0001:00105700       ??BCImageDC@ATL@@QBEPAUHDC__@@XZ 00506700 f i DlgCollocate.obj
 0001:00105700       ?GetState@CGridCellBase@@UBEKXZ 00506700 f i GridCell.obj
 0001:00105700       ?GetPlazaVersion@CGlobalUnits@@UAEKXZ 00506700 f i GlobalUnits.obj
 0001:00105700       ?GetItemGenre@CGameListItem@@QAE?AW4enItemGenre@@XZ 00506700 f i PlatformFrame.obj
 0001:00105700       ?GetSize@ElemPosTree@@QBEHXZ 00506700 f i Markup.obj
 0001:00105700       ?GetData@?$CWHArray@PAVCTableView@@ABQAV1@@@QAEPAPAVCTableView@@XZ 00506700 f i TableViewFrame.obj
 0001:00105700       ?_Mynode@const_iterator@?$_Tree@V?$_Tmap_traits@HV?$basic_string@DU?$char_traits@D@std@@V?$allocator@D@2@@std@@U?$less@H@2@V?$allocator@U?$pair@$$CBHV?$basic_string@DU?$char_traits@D@std@@V?$allocator@D@2@@std@@@std@@@2@$0A@@std@@@std@@QBEPAU_Node@?$_Tree_nod@V?$_Tmap_traits@HV?$basic_string@DU?$char_traits@D@std@@V?$allocator@D@2@@std@@U?$less@H@2@V?$allocator@U?$pair@$$CBHV?$basic_string@DU?$char_traits@D@std@@V?$allocator@D@2@@std@@@std@@@2@$0A@@std@@@3@XZ 00506700 f i TzhxxDlg.obj
 0001:00105700       ?GetHeadPosition@CPtrList@@QBEPAU__POSITION@@XZ 00506700 f i ListCtrlCl.obj
 0001:00105700       ?GetMinCol@CCellRange@@QBEHXZ 00506700 f i GridCtrl.obj
 0001:00105700       ?_Checked_iterator_base@?$_Vector_iterator@HV?$allocator@H@std@@@std@@QBEPAHXZ 00506700 f i GridCtrl.obj
 0001:00105720       ?SetSize@?$CWHArray@PAVCGameListItem@@ABQAV1@@@QAEXH@Z 00506720 f i ServerListData.obj
 0001:00105720       ?SetSize@?$CWHArray@PAVCTableView@@ABQAV1@@@QAEXH@Z 00506720 f i TableViewFrame.obj
 0001:00105720       ?SetSize@?$CWHArray@PAUtagGameServerInfo@@ABQAU1@@@QAEXH@Z 00506720 f i PlazaViewItem.obj
 0001:00105720       ?SetSize@?$CWHArray@PAVCGameTypeItem@@ABQAV1@@@QAEXH@Z 00506720 f i WndGameTypeCtrl.obj
 0001:00105720       ?SetSize@?$CWHArray@PAUtagGameKindInfo@@ABQAU1@@@QAEXH@Z 00506720 f i PlazaViewItem.obj
 0001:00105720       ?SetSize@?$CWHArray@PAVCDownLoadSink@@ABQAV1@@@QAEXH@Z 00506720 f i DlgDownLoad.obj
 0001:00105720       ?SetSize@?$CWHArray@PAUHWND__@@ABQAU1@@@QAEXH@Z 00506720 f i PlatformEvent.obj
 0001:001057f0       ?RemoveAll@?$CWHArray@PAVCCollocateItem@@ABQAV1@@@QAEXXZ 005067f0 f i DlgCollocate.obj
 0001:001057f0       ?RemoveAll@?$CWHArray@PAUtagGameServerInfo@@ABQAU1@@@QAEXXZ 005067f0 f i PlazaViewItem.obj
 0001:001057f0       ?RemoveAll@?$CWHArray@PAVCDlgServiceItem@@ABQAV1@@@QAEXXZ 005067f0 f i DlgService.obj
 0001:001057f0       ?RemoveAll@?$CWHArray@PAUtagGameKindInfo@@ABQAU1@@@QAEXXZ 005067f0 f i PlazaViewItem.obj
 0001:001057f0       ?RemoveAll@?$CWHArray@PAVCDownLoadSink@@ABQAV1@@@QAEXXZ 005067f0 f i DlgDownLoad.obj
 0001:001057f0       ?RemoveAll@?$CWHArray@PAVCTableView@@ABQAV1@@@QAEXXZ 005067f0 f i TableViewFrame.obj
 0001:00105850       ??_E?$CWHArray@PAVCTableView@@ABQAV1@@@UAEPAXI@Z 00506850 f i TableViewFrame.obj
 0001:00105850       ??_G?$CWHArray@PAVCTableView@@ABQAV1@@@UAEPAXI@Z 00506850 f i TableViewFrame.obj
 0001:00105890       ?AllocMemory@?$CWHArray@PAVCDownLoadSink@@ABQAV1@@@QAEXH@Z 00506890 f i DlgDownLoad.obj
 0001:00105890       ?AllocMemory@?$CWHArray@PAUtagGameKindInfo@@ABQAU1@@@QAEXH@Z 00506890 f i PlazaViewItem.obj
 0001:00105890       ?AllocMemory@?$CWHArray@PAVCTableView@@ABQAV1@@@QAEXH@Z 00506890 f i TableViewFrame.obj
 0001:00105890       ?AllocMemory@?$CWHArray@PAUHWND__@@ABQAU1@@@QAEXH@Z 00506890 f i PlatformEvent.obj
 0001:00105890       ?AllocMemory@?$CWHArray@PAVCGameTypeItem@@ABQAV1@@@QAEXH@Z 00506890 f i WndGameTypeCtrl.obj
 0001:00105890       ?AllocMemory@?$CWHArray@PAVCGameListItem@@ABQAV1@@@QAEXH@Z 00506890 f i ServerListData.obj
 0001:00105890       ?AllocMemory@?$CWHArray@PAUtagGameServerInfo@@ABQAU1@@@QAEXH@Z 00506890 f i PlazaViewItem.obj
 0001:001059a0       ?GetRuntimeClass@CTextButton@@UBEPAUCRuntimeClass@@XZ 005069a0 f   TextButton.obj
 0001:001059c0       ??0CTextButton@@QAE@XZ     005069c0 f   TextButton.obj
 0001:00105bd0       ??_ECTextButton@@UAEPAXI@Z 00506bd0 f i TextButton.obj
 0001:00105bd0       ??_GCTextButton@@UAEPAXI@Z 00506bd0 f i TextButton.obj
 0001:00105c10       ??1CTextButton@@UAE@XZ     00506c10 f   TextButton.obj
 0001:00105d20       ?EnableTextButton@CTextButton@@QAEX_N@Z 00506d20 f   TextButton.obj
 0001:00105d80       ?SetBkImage@CTextButton@@QAEXPB_W@Z 00506d80 f   TextButton.obj
 0001:00105e80       ?GetMessageMap@CTextButton@@MBEPBUAFX_MSGMAP@@XZ 00506e80 f   TextButton.obj
 0001:00105ea0       ?GetThisMessageMap@CTextButton@@KGPBUAFX_MSGMAP@@XZ 00506ea0 f   TextButton.obj
 0001:00105ec0       ?DrawItem@CTextButton@@MAEXPAUtagDRAWITEMSTRUCT@@@Z 00506ec0 f   TextButton.obj
 0001:00105f90       ?PaintBk@CImgRioButton@@AAEXPAVCDC@@@Z 00506f90 f   ImgRioButton.obj
 0001:00105f90       ?PaintBk@CTextButton@@AAEXPAVCDC@@@Z 00506f90 f   TextButton.obj
 0001:00105f90       ?PaintBk@CImageButton@@AAEXPAVCDC@@@Z 00506f90 f   ImageButton.obj
 0001:00105ff0       ?PaintBtn@CTextButton@@AAEXPAVCDC@@@Z 00506ff0 f   TextButton.obj
 0001:00106060       ?PaintText@CTextButton@@AAEXPAVCDC@@@Z 00507060 f   TextButton.obj
 0001:00106190       ?OnMouseLeave@CImageButton@@IAEJIJ@Z 00507190 f   ImageButton.obj
 0001:00106190       ?OnMouseLeave@CImgRioButton@@IAEJIJ@Z 00507190 f   ImgRioButton.obj
 0001:00106190       ?OnMouseLeave@CTextButton@@IAEJIJ@Z 00507190 f   TextButton.obj
 0001:001061d0       ?GetRuntimeClass@CTiShiDlg@@UBEPAUCRuntimeClass@@XZ 005071d0 f   TiShiDlg.obj
 0001:001061f0       ??0CTiShiDlg@@QAE@PAVCWnd@@@Z 005071f0 f   TiShiDlg.obj
 0001:00106380       ??_GCTiShiDlg@@UAEPAXI@Z   00507380 f i TiShiDlg.obj
 0001:00106380       ??_ECTiShiDlg@@UAEPAXI@Z   00507380 f i TiShiDlg.obj
 0001:001063c0       ??1CTiShiDlg@@UAE@XZ       005073c0 f   TiShiDlg.obj
 0001:00106560       ?ShowTiShi@CTiShiDlg@@QAEXABV?$CStringT@_WV?$StrTraitMFC_DLL@_WV?$ChTraitsCRT@_W@ATL@@@@@ATL@@0@Z 00507560 f   TiShiDlg.obj
 0001:001065d0       ?DoDataExchange@CTiShiDlg@@MAEXPAVCDataExchange@@@Z 005075d0 f   TiShiDlg.obj
 0001:00106610       ?GetMessageMap@CTiShiDlg@@MBEPBUAFX_MSGMAP@@XZ 00507610 f   TiShiDlg.obj
 0001:00106630       ?GetThisMessageMap@CTiShiDlg@@KGPBUAFX_MSGMAP@@XZ 00507630 f   TiShiDlg.obj
 0001:00106650       ?OnPaint@CTiShiDlg@@IAEXXZ 00507650 f   TiShiDlg.obj
 0001:001069b0       ?OnInitDialog@CTiShiDlg@@MAEHXZ 005079b0 f   TiShiDlg.obj
 0001:00106c30       ?OnSize@CTiShiDlg@@IAEXIHH@Z 00507c30 f   TiShiDlg.obj
 0001:00106cb0       ?OnTimer@CTiShiDlg@@IAEXI@Z 00507cb0 f   TiShiDlg.obj
 0001:00106de0       ?OnLButtonUp@CTiShiDlg@@IAEXIVCPoint@@@Z 00507de0 f   TiShiDlg.obj
 0001:00106e00       ?OnDestroy@CTiShiDlg@@IAEXXZ 00507e00 f   TiShiDlg.obj
 0001:00106e30       ?OnBnClickedBtnClose@CTiShiDlg@@IAEXXZ 00507e30 f   TiShiDlg.obj
 0001:00106e50       ?SetPos@CTiShiDlg@@AAEXXZ  00507e50 f   TiShiDlg.obj
 0001:00106f10       ?OnEventMissionLink@CTiShiDlg@@UAE_NHH@Z 00507f10 f   TiShiDlg.obj
 0001:00107070       ?OnEventMissionRead@CTiShiDlg@@UAE_NUTCP_Command@@PAXG@Z 00508070 f   TiShiDlg.obj
 0001:00107420       ?SendToServer@CTiShiDlg@@QAEXH@Z 00508420 f   TiShiDlg.obj
 0001:00107530       ??_ECTiShiDlg@@WHE@AEPAXI@Z 00508530 f i TiShiDlg.obj
 0001:00107540       ?GetRuntimeClass@CTzhxxDlg@@UBEPAUCRuntimeClass@@XZ 00508540 f   TzhxxDlg.obj
 0001:00107560       ??0CTzhxxDlg@@QAE@PAVCWnd@@@Z 00508560 f   TzhxxDlg.obj
 0001:00107830       ??_GCTzhxxDlg@@UAEPAXI@Z   00508830 f i TzhxxDlg.obj
 0001:00107830       ??_ECTzhxxDlg@@UAEPAXI@Z   00508830 f i TzhxxDlg.obj
 0001:00107870       ??1CTzhxxDlg@@UAE@XZ       00508870 f   TzhxxDlg.obj
 0001:00107a80       ?DoDataExchange@CTzhxxDlg@@MAEXPAVCDataExchange@@@Z 00508a80 f   TzhxxDlg.obj
 0001:00107af0       ?GetMessageMap@CTzhxxDlg@@MBEPBUAFX_MSGMAP@@XZ 00508af0 f   TzhxxDlg.obj
 0001:00107b10       ?GetThisMessageMap@CTzhxxDlg@@KGPBUAFX_MSGMAP@@XZ 00508b10 f   TzhxxDlg.obj
 0001:00107b30       ?OnPaint@CTzhxxDlg@@IAEXXZ 00508b30 f   TzhxxDlg.obj
 0001:00108810       ?OnSize@CTzhxxDlg@@IAEXIHH@Z 00509810 f   TzhxxDlg.obj
 0001:001088e0       ?OnShowWindow@CTzhxxDlg@@IAEXHI@Z 005098e0 f   TzhxxDlg.obj
 0001:00108990       ?OnBnClickedBtnClose@CTzhxxDlg@@IAEXXZ 00509990 f   TzhxxDlg.obj
 0001:001089b0       ?OnInitDialog@CTzhxxDlg@@MAEHXZ 005099b0 f   TzhxxDlg.obj
 0001:00108b40       ?OnEventMissionLink@CTzhxxDlg@@UAE_NHH@Z 00509b40 f   TzhxxDlg.obj
 0001:00108be0       ?ChangeStringToT@CTzhxxDlg@@IAE?AV?$CStringT@_WV?$StrTraitMFC_DLL@_WV?$ChTraitsCRT@_W@ATL@@@@@ATL@@V?$CStringT@DV?$StrTraitMFC_DLL@DV?$ChTraitsCRT@D@ATL@@@@@3@@Z 00509be0 f   TzhxxDlg.obj
 0001:00108be0       ?ChangeStringToT@CChongQingSSC@@QAE?AV?$CStringT@_WV?$StrTraitMFC_DLL@_WV?$ChTraitsCRT@_W@ATL@@@@@ATL@@V?$CStringT@DV?$StrTraitMFC_DLL@DV?$ChTraitsCRT@D@ATL@@@@@3@@Z 00509be0 f   ChongQingSSC.obj
 0001:00108d00       ?OnEventMissionRead@CTzhxxDlg@@UAE_NUTCP_Command@@PAXG@Z 00509d00 f   TzhxxDlg.obj
 0001:001097a0       ?GetNiuString@CTzhxxDlg@@IAE?AV?$CStringT@_WV?$StrTraitMFC_DLL@_WV?$ChTraitsCRT@_W@ATL@@@@@ATL@@V23@@Z 0050a7a0 f   TzhxxDlg.obj
 0001:001099e0       ?GetZuxuanType@CTzhxxDlg@@IAEHV?$basic_string@DU?$char_traits@D@std@@V?$allocator@D@2@@std@@@Z 0050a9e0 f   TzhxxDlg.obj
 0001:00109cd0       ??1?$map@HV?$basic_string@DU?$char_traits@D@std@@V?$allocator@D@2@@std@@U?$less@H@2@V?$allocator@U?$pair@$$CBHV?$basic_string@DU?$char_traits@D@std@@V?$allocator@D@2@@std@@@std@@@2@@std@@QAE@XZ 0050acd0 f i TzhxxDlg.obj
 0001:00109cf0       ?SendToServer@CTzhxxDlg@@QAEXH@Z 0050acf0 f   TzhxxDlg.obj
 0001:00109dd0       ??0?$map@HV?$basic_string@DU?$char_traits@D@std@@V?$allocator@D@2@@std@@U?$less@H@2@V?$allocator@U?$pair@$$CBHV?$basic_string@DU?$char_traits@D@std@@V?$allocator@D@2@@std@@@std@@@2@@std@@QAE@XZ 0050add0 f i TzhxxDlg.obj
 0001:00109e00       ??A?$map@HV?$basic_string@DU?$char_traits@D@std@@V?$allocator@D@2@@std@@U?$less@H@2@V?$allocator@U?$pair@$$CBHV?$basic_string@DU?$char_traits@D@std@@V?$allocator@D@2@@std@@@std@@@2@@std@@QAEAAV?$basic_string@DU?$char_traits@D@std@@V?$allocator@D@2@@1@ABH@Z 0050ae00 f i TzhxxDlg.obj
 0001:00109f40       ??1?$_Tree@V?$_Tmap_traits@HV?$basic_string@DU?$char_traits@D@std@@V?$allocator@D@2@@std@@U?$less@H@2@V?$allocator@U?$pair@$$CBHV?$basic_string@DU?$char_traits@D@std@@V?$allocator@D@2@@std@@@std@@@2@$0A@@std@@@std@@QAE@XZ 0050af40 f i TzhxxDlg.obj
 0001:00109f60       ?GetCount@CStringArray@@QBEHXZ 0050af60 f i ChongQing11X5.obj
 0001:00109f60       ?size@?$_Tree@V?$_Tmap_traits@HV?$basic_string@DU?$char_traits@D@std@@V?$allocator@D@2@@std@@U?$less@H@2@V?$allocator@U?$pair@$$CBHV?$basic_string@DU?$char_traits@D@std@@V?$allocator@D@2@@std@@@std@@@2@$0A@@std@@@std@@QBEIXZ 0050af60 f i TzhxxDlg.obj
 0001:00109f60       ?GetMaxRow@CCellRange@@QBEHXZ 0050af60 f i GridCtrl.obj
 0001:00109f60       ?GetFrameVersion@CGlobalUnits@@UAEKXZ 0050af60 f i GlobalUnits.obj
 0001:00109f60       ?GetStatus@COleDateTime@ATL@@QBE?AW4DateTimeStatus@12@XZ 0050af60 f i GridCtrl.obj
 0001:00109f80       ??1?$pair@$$CBHV?$basic_string@DU?$char_traits@D@std@@V?$allocator@D@2@@std@@@std@@QAE@XZ 0050af80 f i TzhxxDlg.obj
 0001:00109fa0       ?_Key@?$_Tree@V?$_Tmap_traits@HV?$basic_string@DU?$char_traits@D@std@@V?$allocator@D@2@@std@@U?$less@H@2@V?$allocator@U?$pair@$$CBHV?$basic_string@DU?$char_traits@D@std@@V?$allocator@D@2@@std@@@std@@@2@$0A@@std@@@std@@KAABHPAU_Node@?$_Tree_nod@V?$_Tmap_traits@HV?$basic_string@DU?$char_traits@D@std@@V?$allocator@D@2@@std@@U?$less@H@2@V?$allocator@U?$pair@$$CBHV?$basic_string@DU?$char_traits@D@std@@V?$allocator@D@2@@std@@@std@@@2@$0A@@std@@@2@@Z 0050afa0 f i TzhxxDlg.obj
 0001:00109fd0       ??0?$_Tree@V?$_Tmap_traits@HV?$basic_string@DU?$char_traits@D@std@@V?$allocator@D@2@@std@@U?$less@H@2@V?$allocator@U?$pair@$$CBHV?$basic_string@DU?$char_traits@D@std@@V?$allocator@D@2@@std@@@std@@@2@$0A@@std@@@std@@QAE@ABU?$less@H@1@ABV?$allocator@U?$pair@$$CBHV?$basic_string@DU?$char_traits@D@std@@V?$allocator@D@2@@std@@@std@@@1@@Z 0050afd0 f i TzhxxDlg.obj
 0001:0010a010       ?end@?$_Tree@V?$_Tmap_traits@HV?$basic_string@DU?$char_traits@D@std@@V?$allocator@D@2@@std@@U?$less@H@2@V?$allocator@U?$pair@$$CBHV?$basic_string@DU?$char_traits@D@std@@V?$allocator@D@2@@std@@@std@@@2@$0A@@std@@@std@@QAE?AViterator@12@XZ 0050b010 f i TzhxxDlg.obj
 0001:0010a040       ?insert@?$_Tree@V?$_Tmap_traits@HV?$basic_string@DU?$char_traits@D@std@@V?$allocator@D@2@@std@@U?$less@H@2@V?$allocator@U?$pair@$$CBHV?$basic_string@DU?$char_traits@D@std@@V?$allocator@D@2@@std@@@std@@@2@$0A@@std@@@std@@QAE?AViterator@12@V312@ABU?$pair@$$CBHV?$basic_string@DU?$char_traits@D@std@@V?$allocator@D@2@@std@@@2@@Z 0050b040 f i TzhxxDlg.obj
 0001:0010a650       ?lower_bound@?$_Tree@V?$_Tmap_traits@HV?$basic_string@DU?$char_traits@D@std@@V?$allocator@D@2@@std@@U?$less@H@2@V?$allocator@U?$pair@$$CBHV?$basic_string@DU?$char_traits@D@std@@V?$allocator@D@2@@std@@@std@@@2@$0A@@std@@@std@@QAE?AViterator@12@ABH@Z 0050b650 f i TzhxxDlg.obj
 0001:0010a690       ?_Tidy@?$_Tree@V?$_Tmap_traits@HV?$basic_string@DU?$char_traits@D@std@@V?$allocator@D@2@@std@@U?$less@H@2@V?$allocator@U?$pair@$$CBHV?$basic_string@DU?$char_traits@D@std@@V?$allocator@D@2@@std@@@std@@@2@$0A@@std@@@std@@IAEXXZ 0050b690 f i TzhxxDlg.obj
 0001:0010a750       ??R?$less@H@std@@QBE_NABH0@Z 0050b750 f i TzhxxDlg.obj
 0001:0010a780       ??Diterator@?$_Tree@V?$_Tmap_traits@HV?$basic_string@DU?$char_traits@D@std@@V?$allocator@D@2@@std@@U?$less@H@2@V?$allocator@U?$pair@$$CBHV?$basic_string@DU?$char_traits@D@std@@V?$allocator@D@2@@std@@@std@@@2@$0A@@std@@@std@@QBEAAU?$pair@$$CBHV?$basic_string@DU?$char_traits@D@std@@V?$allocator@D@2@@std@@@2@XZ 0050b780 f i TzhxxDlg.obj
 0001:0010a7a0       ??0?$pair@$$CBHV?$basic_string@DU?$char_traits@D@std@@V?$allocator@D@2@@std@@@std@@QAE@ABHABV?$basic_string@DU?$char_traits@D@std@@V?$allocator@D@2@@1@@Z 0050b7a0 f i TzhxxDlg.obj
 0001:0010a7e0       ?_Isnil@?$_Tree@V?$_Tmap_traits@HV?$basic_string@DU?$char_traits@D@std@@V?$allocator@D@2@@std@@U?$less@H@2@V?$allocator@U?$pair@$$CBHV?$basic_string@DU?$char_traits@D@std@@V?$allocator@D@2@@std@@@std@@@2@$0A@@std@@@std@@KAAADPAU_Node@?$_Tree_nod@V?$_Tmap_traits@HV?$basic_string@DU?$char_traits@D@std@@V?$allocator@D@2@@std@@U?$less@H@2@V?$allocator@U?$pair@$$CBHV?$basic_string@DU?$char_traits@D@std@@V?$allocator@D@2@@std@@@std@@@2@$0A@@std@@@2@@Z 0050b7e0 f i TzhxxDlg.obj
 0001:0010a800       ?_Kfn@?$_Tmap_traits@HV?$basic_string@DU?$char_traits@D@std@@V?$allocator@D@2@@std@@U?$less@H@2@V?$allocator@U?$pair@$$CBHV?$basic_string@DU?$char_traits@D@std@@V?$allocator@D@2@@std@@@std@@@2@$0A@@std@@SAABHABU?$pair@$$CBHV?$basic_string@DU?$char_traits@D@std@@V?$allocator@D@2@@std@@@2@@Z 0050b800 f i TzhxxDlg.obj
 0001:0010a800       ?_Left@?$_Tree@V?$_Tmap_traits@HV?$basic_string@DU?$char_traits@D@std@@V?$allocator@D@2@@std@@U?$less@H@2@V?$allocator@U?$pair@$$CBHV?$basic_string@DU?$char_traits@D@std@@V?$allocator@D@2@@std@@@std@@@2@$0A@@std@@@std@@KAAAPAU_Node@?$_Tree_nod@V?$_Tmap_traits@HV?$basic_string@DU?$char_traits@D@std@@V?$allocator@D@2@@std@@U?$less@H@2@V?$allocator@U?$pair@$$CBHV?$basic_string@DU?$char_traits@D@std@@V?$allocator@D@2@@std@@@std@@@2@$0A@@std@@@2@PAU342@@Z 0050b800 f i TzhxxDlg.obj
 0001:0010a820       ?_Parent@?$_Tree@V?$_Tmap_traits@HV?$basic_string@DU?$char_traits@D@std@@V?$allocator@D@2@@std@@U?$less@H@2@V?$allocator@U?$pair@$$CBHV?$basic_string@DU?$char_traits@D@std@@V?$allocator@D@2@@std@@@std@@@2@$0A@@std@@@std@@KAAAPAU_Node@?$_Tree_nod@V?$_Tmap_traits@HV?$basic_string@DU?$char_traits@D@std@@V?$allocator@D@2@@std@@U?$less@H@2@V?$allocator@U?$pair@$$CBHV?$basic_string@DU?$char_traits@D@std@@V?$allocator@D@2@@std@@@std@@@2@$0A@@std@@@2@PAU342@@Z 0050b820 f i TzhxxDlg.obj
 0001:0010a840       ?_Right@?$_Tree@V?$_Tmap_traits@HV?$basic_string@DU?$char_traits@D@std@@V?$allocator@D@2@@std@@U?$less@H@2@V?$allocator@U?$pair@$$CBHV?$basic_string@DU?$char_traits@D@std@@V?$allocator@D@2@@std@@@std@@@2@$0A@@std@@@std@@KAAAPAU_Node@?$_Tree_nod@V?$_Tmap_traits@HV?$basic_string@DU?$char_traits@D@std@@V?$allocator@D@2@@std@@U?$less@H@2@V?$allocator@U?$pair@$$CBHV?$basic_string@DU?$char_traits@D@std@@V?$allocator@D@2@@std@@@std@@@2@$0A@@std@@@2@PAU342@@Z 0050b840 f i TzhxxDlg.obj
 0001:0010a860       ?_Myval@?$_Tree@V?$_Tmap_traits@HV?$basic_string@DU?$char_traits@D@std@@V?$allocator@D@2@@std@@U?$less@H@2@V?$allocator@U?$pair@$$CBHV?$basic_string@DU?$char_traits@D@std@@V?$allocator@D@2@@std@@@std@@@2@$0A@@std@@@std@@KAAAU?$pair@$$CBHV?$basic_string@DU?$char_traits@D@std@@V?$allocator@D@2@@std@@@2@PAU_Node@?$_Tree_nod@V?$_Tmap_traits@HV?$basic_string@DU?$char_traits@D@std@@V?$allocator@D@2@@std@@U?$less@H@2@V?$allocator@U?$pair@$$CBHV?$basic_string@DU?$char_traits@D@std@@V?$allocator@D@2@@std@@@std@@@2@$0A@@std@@@2@@Z 0050b860 f i TzhxxDlg.obj
 0001:0010a880       ?begin@?$_Tree@V?$_Tmap_traits@HV?$basic_string@DU?$char_traits@D@std@@V?$allocator@D@2@@std@@U?$less@H@2@V?$allocator@U?$pair@$$CBHV?$basic_string@DU?$char_traits@D@std@@V?$allocator@D@2@@std@@@std@@@2@$0A@@std@@@std@@QAE?AViterator@12@XZ 0050b880 f i TzhxxDlg.obj
 0001:0010a8b0       ?insert@?$_Tree@V?$_Tmap_traits@HV?$basic_string@DU?$char_traits@D@std@@V?$allocator@D@2@@std@@U?$less@H@2@V?$allocator@U?$pair@$$CBHV?$basic_string@DU?$char_traits@D@std@@V?$allocator@D@2@@std@@@std@@@2@$0A@@std@@@std@@QAE?AU?$pair@Viterator@?$_Tree@V?$_Tmap_traits@HV?$basic_string@DU?$char_traits@D@std@@V?$allocator@D@2@@std@@U?$less@H@2@V?$allocator@U?$pair@$$CBHV?$basic_string@DU?$char_traits@D@std@@V?$allocator@D@2@@std@@@std@@@2@$0A@@std@@@std@@_N@2@ABU?$pair@$$CBHV?$basic_string@DU?$char_traits@D@std@@V?$allocator@D@2@@std@@@2@@Z 0050b8b0 f i TzhxxDlg.obj
 0001:0010aa90       ?erase@?$_Tree@V?$_Tmap_traits@HV?$basic_string@DU?$char_traits@D@std@@V?$allocator@D@2@@std@@U?$less@H@2@V?$allocator@U?$pair@$$CBHV?$basic_string@DU?$char_traits@D@std@@V?$allocator@D@2@@std@@@std@@@2@$0A@@std@@@std@@QAE?AViterator@12@V312@0@Z 0050ba90 f i TzhxxDlg.obj
 0001:0010ab40       ?_Init@?$_Tree@V?$_Tmap_traits@HV?$basic_string@DU?$char_traits@D@std@@V?$allocator@D@2@@std@@U?$less@H@2@V?$allocator@U?$pair@$$CBHV?$basic_string@DU?$char_traits@D@std@@V?$allocator@D@2@@std@@@std@@@2@$0A@@std@@@std@@IAEXXZ 0050bb40 f i TzhxxDlg.obj
 0001:0010abb0       ?_Insert@?$_Tree@V?$_Tmap_traits@HV?$basic_string@DU?$char_traits@D@std@@V?$allocator@D@2@@std@@U?$less@H@2@V?$allocator@U?$pair@$$CBHV?$basic_string@DU?$char_traits@D@std@@V?$allocator@D@2@@std@@@std@@@2@$0A@@std@@@std@@IAE?AViterator@12@_NPAU_Node@?$_Tree_nod@V?$_Tmap_traits@HV?$basic_string@DU?$char_traits@D@std@@V?$allocator@D@2@@std@@U?$less@H@2@V?$allocator@U?$pair@$$CBHV?$basic_string@DU?$char_traits@D@std@@V?$allocator@D@2@@std@@@std@@@2@$0A@@std@@@2@ABU?$pair@$$CBHV?$basic_string@DU?$char_traits@D@std@@V?$allocator@D@2@@std@@@2@@Z 0050bbb0 f i TzhxxDlg.obj
 0001:0010b040       ?_Lbound@?$_Tree@V?$_Tmap_traits@HV?$basic_string@DU?$char_traits@D@std@@V?$allocator@D@2@@std@@U?$less@H@2@V?$allocator@U?$pair@$$CBHV?$basic_string@DU?$char_traits@D@std@@V?$allocator@D@2@@std@@@std@@@2@$0A@@std@@@std@@IBEPAU_Node@?$_Tree_nod@V?$_Tmap_traits@HV?$basic_string@DU?$char_traits@D@std@@V?$allocator@D@2@@std@@U?$less@H@2@V?$allocator@U?$pair@$$CBHV?$basic_string@DU?$char_traits@D@std@@V?$allocator@D@2@@std@@@std@@@2@$0A@@std@@@2@ABH@Z 0050c040 f i TzhxxDlg.obj
 0001:0010b0d0       ?_Rmost@?$_Tree@V?$_Tmap_traits@HV?$basic_string@DU?$char_traits@D@std@@V?$allocator@D@2@@std@@U?$less@H@2@V?$allocator@U?$pair@$$CBHV?$basic_string@DU?$char_traits@D@std@@V?$allocator@D@2@@std@@@std@@@2@$0A@@std@@@std@@IBEAAPAU_Node@?$_Tree_nod@V?$_Tmap_traits@HV?$basic_string@DU?$char_traits@D@std@@V?$allocator@D@2@@std@@U?$less@H@2@V?$allocator@U?$pair@$$CBHV?$basic_string@DU?$char_traits@D@std@@V?$allocator@D@2@@std@@@std@@@2@$0A@@std@@@2@XZ 0050c0d0 f i TzhxxDlg.obj
 0001:0010b100       ??0?$_Tree_val@V?$_Tmap_traits@HV?$basic_string@DU?$char_traits@D@std@@V?$allocator@D@2@@std@@U?$less@H@2@V?$allocator@U?$pair@$$CBHV?$basic_string@DU?$char_traits@D@std@@V?$allocator@D@2@@std@@@std@@@2@$0A@@std@@@std@@IAE@ABU?$less@H@1@V?$allocator@U?$pair@$$CBHV?$basic_string@DU?$char_traits@D@std@@V?$allocator@D@2@@std@@@std@@@1@@Z 0050c100 f i TzhxxDlg.obj
 0001:0010b140       ??0?$allocator@U?$pair@$$CBHV?$basic_string@DU?$char_traits@D@std@@V?$allocator@D@2@@std@@@std@@@std@@QAE@ABV01@@Z 0050c140 f i TzhxxDlg.obj
 0001:0010b140       ??0?$allocator@V?$basic_string@_WU?$char_traits@_W@std@@V?$allocator@_W@2@@std@@@std@@QAE@ABV01@@Z 0050c140 f i ChongQingSSC.obj
 0001:0010b140       ??0?$_Tmap_traits@HV?$basic_string@DU?$char_traits@D@std@@V?$allocator@D@2@@std@@U?$less@H@2@V?$allocator@U?$pair@$$CBHV?$basic_string@DU?$char_traits@D@std@@V?$allocator@D@2@@std@@@std@@@2@$0A@@std@@QAE@U?$less@H@1@@Z 0050c140 f i TzhxxDlg.obj
 0001:0010b140       ??$?0U?$pair@$$CBHV?$basic_string@DU?$char_traits@D@std@@V?$allocator@D@2@@std@@@std@@@?$allocator@U_Node@?$_Tree_nod@V?$_Tmap_traits@HV?$basic_string@DU?$char_traits@D@std@@V?$allocator@D@2@@std@@U?$less@H@2@V?$allocator@U?$pair@$$CBHV?$basic_string@DU?$char_traits@D@std@@V?$allocator@D@2@@std@@@std@@@2@$0A@@std@@@std@@@std@@QAE@ABV?$allocator@U?$pair@$$CBHV?$basic_string@DU?$char_traits@D@std@@V?$allocator@D@2@@std@@@std@@@1@@Z 0050c140 f i TzhxxDlg.obj
 0001:0010b140       ??0?$allocator@H@std@@QAE@ABV01@@Z 0050c140 f i GridCtrl.obj
 0001:0010b140       ??$?0U?$pair@$$CBHV?$basic_string@DU?$char_traits@D@std@@V?$allocator@D@2@@std@@@std@@@?$allocator@PAU_Node@?$_Tree_nod@V?$_Tmap_traits@HV?$basic_string@DU?$char_traits@D@std@@V?$allocator@D@2@@std@@U?$less@H@2@V?$allocator@U?$pair@$$CBHV?$basic_string@DU?$char_traits@D@std@@V?$allocator@D@2@@std@@@std@@@2@$0A@@std@@@std@@@std@@QAE@ABV?$allocator@U?$pair@$$CBHV?$basic_string@DU?$char_traits@D@std@@V?$allocator@D@2@@std@@@std@@@1@@Z 0050c140 f i TzhxxDlg.obj
 0001:0010b160       ?destroy@?$allocator@PAU_Node@?$_Tree_nod@V?$_Tmap_traits@HV?$basic_string@DU?$char_traits@D@std@@V?$allocator@D@2@@std@@U?$less@H@2@V?$allocator@U?$pair@$$CBHV?$basic_string@DU?$char_traits@D@std@@V?$allocator@D@2@@std@@@std@@@2@$0A@@std@@@std@@@std@@QAEXPAPAU_Node@?$_Tree_nod@V?$_Tmap_traits@HV?$basic_string@DU?$char_traits@D@std@@V?$allocator@D@2@@std@@U?$less@H@2@V?$allocator@U?$pair@$$CBHV?$basic_string@DU?$char_traits@D@std@@V?$allocator@D@2@@std@@@std@@@2@$0A@@std@@@2@@Z 0050c160 f i TzhxxDlg.obj
 0001:0010b190       ??0iterator@?$_Tree@V?$_Tmap_traits@HV?$basic_string@DU?$char_traits@D@std@@V?$allocator@D@2@@std@@U?$less@H@2@V?$allocator@U?$pair@$$CBHV?$basic_string@DU?$char_traits@D@std@@V?$allocator@D@2@@std@@@std@@@2@$0A@@std@@@std@@QAE@XZ 0050c190 f i TzhxxDlg.obj
 0001:0010b1b0       ??0iterator@?$_Tree@V?$_Tmap_traits@HV?$basic_string@DU?$char_traits@D@std@@V?$allocator@D@2@@std@@U?$less@H@2@V?$allocator@U?$pair@$$CBHV?$basic_string@DU?$char_traits@D@std@@V?$allocator@D@2@@std@@@std@@@2@$0A@@std@@@std@@QAE@PAU_Node@?$_Tree_nod@V?$_Tmap_traits@HV?$basic_string@DU?$char_traits@D@std@@V?$allocator@D@2@@std@@U?$less@H@2@V?$allocator@U?$pair@$$CBHV?$basic_string@DU?$char_traits@D@std@@V?$allocator@D@2@@std@@@std@@@2@$0A@@std@@@2@PBV12@@Z 0050c1b0 f i TzhxxDlg.obj
 0001:0010b1e0       ??Eiterator@?$_Tree@V?$_Tmap_traits@HV?$basic_string@DU?$char_traits@D@std@@V?$allocator@D@2@@std@@U?$less@H@2@V?$allocator@U?$pair@$$CBHV?$basic_string@DU?$char_traits@D@std@@V?$allocator@D@2@@std@@@std@@@2@$0A@@std@@@std@@QAEAAV012@XZ 0050c1e0 f i TzhxxDlg.obj
 0001:0010b200       ??Fiterator@?$_Tree@V?$_Tmap_traits@HV?$basic_string@DU?$char_traits@D@std@@V?$allocator@D@2@@std@@U?$less@H@2@V?$allocator@U?$pair@$$CBHV?$basic_string@DU?$char_traits@D@std@@V?$allocator@D@2@@std@@@std@@@2@$0A@@std@@@std@@QAEAAV012@XZ 0050c200 f i TzhxxDlg.obj
 0001:0010b220       ??Dconst_iterator@?$_Tree@V?$_Tmap_traits@HV?$basic_string@DU?$char_traits@D@std@@V?$allocator@D@2@@std@@U?$less@H@2@V?$allocator@U?$pair@$$CBHV?$basic_string@DU?$char_traits@D@std@@V?$allocator@D@2@@std@@@std@@@2@$0A@@std@@@std@@QBEABU?$pair@$$CBHV?$basic_string@DU?$char_traits@D@std@@V?$allocator@D@2@@std@@@2@XZ 0050c220 f i TzhxxDlg.obj
 0001:0010b270       ?_Color@?$_Tree@V?$_Tmap_traits@HV?$basic_string@DU?$char_traits@D@std@@V?$allocator@D@2@@std@@U?$less@H@2@V?$allocator@U?$pair@$$CBHV?$basic_string@DU?$char_traits@D@std@@V?$allocator@D@2@@std@@@std@@@2@$0A@@std@@@std@@KAAADPAU_Node@?$_Tree_nod@V?$_Tmap_traits@HV?$basic_string@DU?$char_traits@D@std@@V?$allocator@D@2@@std@@U?$less@H@2@V?$allocator@U?$pair@$$CBHV?$basic_string@DU?$char_traits@D@std@@V?$allocator@D@2@@std@@@std@@@2@$0A@@std@@@2@@Z 0050c270 f i TzhxxDlg.obj
 0001:0010b290       ?max_size@?$_Tree@V?$_Tmap_traits@HV?$basic_string@DU?$char_traits@D@std@@V?$allocator@D@2@@std@@U?$less@H@2@V?$allocator@U?$pair@$$CBHV?$basic_string@DU?$char_traits@D@std@@V?$allocator@D@2@@std@@@std@@@2@$0A@@std@@@std@@QBEIXZ 0050c290 f i TzhxxDlg.obj
 0001:0010b2b0       ?erase@?$_Tree@V?$_Tmap_traits@HV?$basic_string@DU?$char_traits@D@std@@V?$allocator@D@2@@std@@U?$less@H@2@V?$allocator@U?$pair@$$CBHV?$basic_string@DU?$char_traits@D@std@@V?$allocator@D@2@@std@@@std@@@2@$0A@@std@@@std@@QAE?AViterator@12@V312@@Z 0050c2b0 f i TzhxxDlg.obj
 0001:0010baa0       ?clear@?$_Tree@V?$_Tmap_traits@HV?$basic_string@DU?$char_traits@D@std@@V?$allocator@D@2@@std@@U?$less@H@2@V?$allocator@U?$pair@$$CBHV?$basic_string@DU?$char_traits@D@std@@V?$allocator@D@2@@std@@@std@@@2@$0A@@std@@@std@@QAEXXZ 0050caa0 f i TzhxxDlg.obj
 0001:0010bb00       ?_Lmost@?$_Tree@V?$_Tmap_traits@HV?$basic_string@DU?$char_traits@D@std@@V?$allocator@D@2@@std@@U?$less@H@2@V?$allocator@U?$pair@$$CBHV?$basic_string@DU?$char_traits@D@std@@V?$allocator@D@2@@std@@@std@@@2@$0A@@std@@@std@@IBEAAPAU_Node@?$_Tree_nod@V?$_Tmap_traits@HV?$basic_string@DU?$char_traits@D@std@@V?$allocator@D@2@@std@@U?$less@H@2@V?$allocator@U?$pair@$$CBHV?$basic_string@DU?$char_traits@D@std@@V?$allocator@D@2@@std@@@std@@@2@$0A@@std@@@2@XZ 0050cb00 f i TzhxxDlg.obj
 0001:0010bb30       ?_Lrotate@?$_Tree@V?$_Tmap_traits@HV?$basic_string@DU?$char_traits@D@std@@V?$allocator@D@2@@std@@U?$less@H@2@V?$allocator@U?$pair@$$CBHV?$basic_string@DU?$char_traits@D@std@@V?$allocator@D@2@@std@@@std@@@2@$0A@@std@@@std@@IAEXPAU_Node@?$_Tree_nod@V?$_Tmap_traits@HV?$basic_string@DU?$char_traits@D@std@@V?$allocator@D@2@@std@@U?$less@H@2@V?$allocator@U?$pair@$$CBHV?$basic_string@DU?$char_traits@D@std@@V?$allocator@D@2@@std@@@std@@@2@$0A@@std@@@2@@Z 0050cb30 f i TzhxxDlg.obj
 0001:0010bc70       ?_Root@?$_Tree@V?$_Tmap_traits@HV?$basic_string@DU?$char_traits@D@std@@V?$allocator@D@2@@std@@U?$less@H@2@V?$allocator@U?$pair@$$CBHV?$basic_string@DU?$char_traits@D@std@@V?$allocator@D@2@@std@@@std@@@2@$0A@@std@@@std@@IBEAAPAU_Node@?$_Tree_nod@V?$_Tmap_traits@HV?$basic_string@DU?$char_traits@D@std@@V?$allocator@D@2@@std@@U?$less@H@2@V?$allocator@U?$pair@$$CBHV?$basic_string@DU?$char_traits@D@std@@V?$allocator@D@2@@std@@@std@@@2@$0A@@std@@@2@XZ 0050cc70 f i TzhxxDlg.obj
 0001:0010bca0       ?_Rrotate@?$_Tree@V?$_Tmap_traits@HV?$basic_string@DU?$char_traits@D@std@@V?$allocator@D@2@@std@@U?$less@H@2@V?$allocator@U?$pair@$$CBHV?$basic_string@DU?$char_traits@D@std@@V?$allocator@D@2@@std@@@std@@@2@$0A@@std@@@std@@IAEXPAU_Node@?$_Tree_nod@V?$_Tmap_traits@HV?$basic_string@DU?$char_traits@D@std@@V?$allocator@D@2@@std@@U?$less@H@2@V?$allocator@U?$pair@$$CBHV?$basic_string@DU?$char_traits@D@std@@V?$allocator@D@2@@std@@@std@@@2@$0A@@std@@@2@@Z 0050cca0 f i TzhxxDlg.obj
 0001:0010bde0       ?_Buynode@?$_Tree@V?$_Tmap_traits@HV?$basic_string@DU?$char_traits@D@std@@V?$allocator@D@2@@std@@U?$less@H@2@V?$allocator@U?$pair@$$CBHV?$basic_string@DU?$char_traits@D@std@@V?$allocator@D@2@@std@@@std@@@2@$0A@@std@@@std@@IAEPAU_Node@?$_Tree_nod@V?$_Tmap_traits@HV?$basic_string@DU?$char_traits@D@std@@V?$allocator@D@2@@std@@U?$less@H@2@V?$allocator@U?$pair@$$CBHV?$basic_string@DU?$char_traits@D@std@@V?$allocator@D@2@@std@@@std@@@2@$0A@@std@@@2@XZ 0050cde0 f i TzhxxDlg.obj
 0001:0010bf60       ?_Buynode@?$_Tree@V?$_Tmap_traits@HV?$basic_string@DU?$char_traits@D@std@@V?$allocator@D@2@@std@@U?$less@H@2@V?$allocator@U?$pair@$$CBHV?$basic_string@DU?$char_traits@D@std@@V?$allocator@D@2@@std@@@std@@@2@$0A@@std@@@std@@IAEPAU_Node@?$_Tree_nod@V?$_Tmap_traits@HV?$basic_string@DU?$char_traits@D@std@@V?$allocator@D@2@@std@@U?$less@H@2@V?$allocator@U?$pair@$$CBHV?$basic_string@DU?$char_traits@D@std@@V?$allocator@D@2@@std@@@std@@@2@$0A@@std@@@2@PAU342@00ABU?$pair@$$CBHV?$basic_string@DU?$char_traits@D@std@@V?$allocator@D@2@@std@@@2@D@Z 0050cf60 f i TzhxxDlg.obj
 0001:0010c040       ??0?$_Tree_ptr@V?$_Tmap_traits@HV?$basic_string@DU?$char_traits@D@std@@V?$allocator@D@2@@std@@U?$less@H@2@V?$allocator@U?$pair@$$CBHV?$basic_string@DU?$char_traits@D@std@@V?$allocator@D@2@@std@@@std@@@2@$0A@@std@@@std@@IAE@ABU?$less@H@1@V?$allocator@U?$pair@$$CBHV?$basic_string@DU?$char_traits@D@std@@V?$allocator@D@2@@std@@@std@@@1@@Z 0050d040 f i TzhxxDlg.obj
 0001:0010c080       ??Eiterator@?$_Tree@V?$_Tmap_traits@HV?$basic_string@DU?$char_traits@D@std@@V?$allocator@D@2@@std@@U?$less@H@2@V?$allocator@U?$pair@$$CBHV?$basic_string@DU?$char_traits@D@std@@V?$allocator@D@2@@std@@@std@@@2@$0A@@std@@@std@@QAE?AV012@H@Z 0050d080 f i TzhxxDlg.obj
 0001:0010c0c0       ??0const_iterator@?$_Tree@V?$_Tmap_traits@HV?$basic_string@DU?$char_traits@D@std@@V?$allocator@D@2@@std@@U?$less@H@2@V?$allocator@U?$pair@$$CBHV?$basic_string@DU?$char_traits@D@std@@V?$allocator@D@2@@std@@@std@@@2@$0A@@std@@@std@@QAE@XZ 0050d0c0 f i TzhxxDlg.obj
 0001:0010c0f0       ??0const_iterator@?$_Tree@V?$_Tmap_traits@HV?$basic_string@DU?$char_traits@D@std@@V?$allocator@D@2@@std@@U?$less@H@2@V?$allocator@U?$pair@$$CBHV?$basic_string@DU?$char_traits@D@std@@V?$allocator@D@2@@std@@@std@@@2@$0A@@std@@@std@@QAE@PAU_Node@?$_Tree_nod@V?$_Tmap_traits@HV?$basic_string@DU?$char_traits@D@std@@V?$allocator@D@2@@std@@U?$less@H@2@V?$allocator@U?$pair@$$CBHV?$basic_string@DU?$char_traits@D@std@@V?$allocator@D@2@@std@@@std@@@2@$0A@@std@@@2@PBV12@@Z 0050d0f0 f i TzhxxDlg.obj
 0001:0010c130       ??Econst_iterator@?$_Tree@V?$_Tmap_traits@HV?$basic_string@DU?$char_traits@D@std@@V?$allocator@D@2@@std@@U?$less@H@2@V?$allocator@U?$pair@$$CBHV?$basic_string@DU?$char_traits@D@std@@V?$allocator@D@2@@std@@@std@@@2@$0A@@std@@@std@@QAEAAV012@XZ 0050d130 f i TzhxxDlg.obj
 0001:0010c150       ??Fconst_iterator@?$_Tree@V?$_Tmap_traits@HV?$basic_string@DU?$char_traits@D@std@@V?$allocator@D@2@@std@@U?$less@H@2@V?$allocator@U?$pair@$$CBHV?$basic_string@DU?$char_traits@D@std@@V?$allocator@D@2@@std@@@std@@@2@$0A@@std@@@std@@QAEAAV012@XZ 0050d150 f i TzhxxDlg.obj
 0001:0010c170       ??0?$pair@Viterator@?$_Tree@V?$_Tmap_traits@HV?$basic_string@DU?$char_traits@D@std@@V?$allocator@D@2@@std@@U?$less@H@2@V?$allocator@U?$pair@$$CBHV?$basic_string@DU?$char_traits@D@std@@V?$allocator@D@2@@std@@@std@@@2@$0A@@std@@@std@@_N@std@@QAE@ABViterator@?$_Tree@V?$_Tmap_traits@HV?$basic_string@DU?$char_traits@D@std@@V?$allocator@D@2@@std@@U?$less@H@2@V?$allocator@U?$pair@$$CBHV?$basic_string@DU?$char_traits@D@std@@V?$allocator@D@2@@std@@@std@@@2@$0A@@std@@@1@AB_N@Z 0050d170 f i TzhxxDlg.obj
 0001:0010c1b0       ?_Erase@?$_Tree@V?$_Tmap_traits@HV?$basic_string@DU?$char_traits@D@std@@V?$allocator@D@2@@std@@U?$less@H@2@V?$allocator@U?$pair@$$CBHV?$basic_string@DU?$char_traits@D@std@@V?$allocator@D@2@@std@@@std@@@2@$0A@@std@@@std@@IAEXPAU_Node@?$_Tree_nod@V?$_Tmap_traits@HV?$basic_string@DU?$char_traits@D@std@@V?$allocator@D@2@@std@@U?$less@H@2@V?$allocator@U?$pair@$$CBHV?$basic_string@DU?$char_traits@D@std@@V?$allocator@D@2@@std@@@std@@@2@$0A@@std@@@2@@Z 0050d1b0 f i TzhxxDlg.obj
 0001:0010c230       ?_Max@?$_Tree@V?$_Tmap_traits@HV?$basic_string@DU?$char_traits@D@std@@V?$allocator@D@2@@std@@U?$less@H@2@V?$allocator@U?$pair@$$CBHV?$basic_string@DU?$char_traits@D@std@@V?$allocator@D@2@@std@@@std@@@2@$0A@@std@@@std@@KAPAU_Node@?$_Tree_nod@V?$_Tmap_traits@HV?$basic_string@DU?$char_traits@D@std@@V?$allocator@D@2@@std@@U?$less@H@2@V?$allocator@U?$pair@$$CBHV?$basic_string@DU?$char_traits@D@std@@V?$allocator@D@2@@std@@@std@@@2@$0A@@std@@@2@PAU342@@Z 0050d230 f i TzhxxDlg.obj
 0001:0010c280       ?_Min@?$_Tree@V?$_Tmap_traits@HV?$basic_string@DU?$char_traits@D@std@@V?$allocator@D@2@@std@@U?$less@H@2@V?$allocator@U?$pair@$$CBHV?$basic_string@DU?$char_traits@D@std@@V?$allocator@D@2@@std@@@std@@@2@$0A@@std@@@std@@KAPAU_Node@?$_Tree_nod@V?$_Tmap_traits@HV?$basic_string@DU?$char_traits@D@std@@V?$allocator@D@2@@std@@U?$less@H@2@V?$allocator@U?$pair@$$CBHV?$basic_string@DU?$char_traits@D@std@@V?$allocator@D@2@@std@@@std@@@2@$0A@@std@@@2@PAU342@@Z 0050d280 f i TzhxxDlg.obj
 0001:0010c2d0       ??0?$_Tree_nod@V?$_Tmap_traits@HV?$basic_string@DU?$char_traits@D@std@@V?$allocator@D@2@@std@@U?$less@H@2@V?$allocator@U?$pair@$$CBHV?$basic_string@DU?$char_traits@D@std@@V?$allocator@D@2@@std@@@std@@@2@$0A@@std@@@std@@IAE@ABU?$less@H@1@V?$allocator@U?$pair@$$CBHV?$basic_string@DU?$char_traits@D@std@@V?$allocator@D@2@@std@@@std@@@1@@Z 0050d2d0 f i TzhxxDlg.obj
 0001:0010c310       ?max_size@?$allocator@U?$pair@$$CBHV?$basic_string@DU?$char_traits@D@std@@V?$allocator@D@2@@std@@@std@@@std@@QBEIXZ 0050d310 f i TzhxxDlg.obj
 0001:0010c350       ?allocate@?$allocator@U_Node@?$_Tree_nod@V?$_Tmap_traits@HV?$basic_string@DU?$char_traits@D@std@@V?$allocator@D@2@@std@@U?$less@H@2@V?$allocator@U?$pair@$$CBHV?$basic_string@DU?$char_traits@D@std@@V?$allocator@D@2@@std@@@std@@@2@$0A@@std@@@std@@@std@@QAEPAU_Node@?$_Tree_nod@V?$_Tmap_traits@HV?$basic_string@DU?$char_traits@D@std@@V?$allocator@D@2@@std@@U?$less@H@2@V?$allocator@U?$pair@$$CBHV?$basic_string@DU?$char_traits@D@std@@V?$allocator@D@2@@std@@@std@@@2@$0A@@std@@@2@I@Z 0050d350 f i TzhxxDlg.obj
 0001:0010c380       ?destroy@?$allocator@U_Node@?$_Tree_nod@V?$_Tmap_traits@HV?$basic_string@DU?$char_traits@D@std@@V?$allocator@D@2@@std@@U?$less@H@2@V?$allocator@U?$pair@$$CBHV?$basic_string@DU?$char_traits@D@std@@V?$allocator@D@2@@std@@@std@@@2@$0A@@std@@@std@@@std@@QAEXPAU_Node@?$_Tree_nod@V?$_Tmap_traits@HV?$basic_string@DU?$char_traits@D@std@@V?$allocator@D@2@@std@@U?$less@H@2@V?$allocator@U?$pair@$$CBHV?$basic_string@DU?$char_traits@D@std@@V?$allocator@D@2@@std@@@std@@@2@$0A@@std@@@2@@Z 0050d380 f i TzhxxDlg.obj
 0001:0010c3b0       ?construct@?$allocator@PAU_Node@?$_Tree_nod@V?$_Tmap_traits@HV?$basic_string@DU?$char_traits@D@std@@V?$allocator@D@2@@std@@U?$less@H@2@V?$allocator@U?$pair@$$CBHV?$basic_string@DU?$char_traits@D@std@@V?$allocator@D@2@@std@@@std@@@2@$0A@@std@@@std@@@std@@QAEXPAPAU_Node@?$_Tree_nod@V?$_Tmap_traits@HV?$basic_string@DU?$char_traits@D@std@@V?$allocator@D@2@@std@@U?$less@H@2@V?$allocator@U?$pair@$$CBHV?$basic_string@DU?$char_traits@D@std@@V?$allocator@D@2@@std@@@std@@@2@$0A@@std@@@2@ABQAU342@@Z 0050d3b0 f i TzhxxDlg.obj
 0001:0010c3e0       ?_Dec@const_iterator@?$_Tree@V?$_Tmap_traits@HV?$basic_string@DU?$char_traits@D@std@@V?$allocator@D@2@@std@@U?$less@H@2@V?$allocator@U?$pair@$$CBHV?$basic_string@DU?$char_traits@D@std@@V?$allocator@D@2@@std@@@std@@@2@$0A@@std@@@std@@QAEXXZ 0050d3e0 f i TzhxxDlg.obj
 0001:0010c510       ?_Inc@const_iterator@?$_Tree@V?$_Tmap_traits@HV?$basic_string@DU?$char_traits@D@std@@V?$allocator@D@2@@std@@U?$less@H@2@V?$allocator@U?$pair@$$CBHV?$basic_string@DU?$char_traits@D@std@@V?$allocator@D@2@@std@@@std@@@2@$0A@@std@@@std@@QAEXXZ 0050d510 f i TzhxxDlg.obj
 0001:0010c5f0       ??0_Node@?$_Tree_nod@V?$_Tmap_traits@HV?$basic_string@DU?$char_traits@D@std@@V?$allocator@D@2@@std@@U?$less@H@2@V?$allocator@U?$pair@$$CBHV?$basic_string@DU?$char_traits@D@std@@V?$allocator@D@2@@std@@@std@@@2@$0A@@std@@@std@@QAE@PAU012@00ABU?$pair@$$CBHV?$basic_string@DU?$char_traits@D@std@@V?$allocator@D@2@@std@@@2@D@Z 0050d5f0 f i TzhxxDlg.obj
 0001:0010c650       ??0?$pair@$$CBHV?$basic_string@DU?$char_traits@D@std@@V?$allocator@D@2@@std@@@std@@QAE@ABU01@@Z 0050d650 f i TzhxxDlg.obj
 0001:0010c690       ??$swap@D@std@@YAXAAD0@Z   0050d690 f i TzhxxDlg.obj
 0001:0010c6c0       ??$_Allocate@U_Node@?$_Tree_nod@V?$_Tmap_traits@HV?$basic_string@DU?$char_traits@D@std@@V?$allocator@D@2@@std@@U?$less@H@2@V?$allocator@U?$pair@$$CBHV?$basic_string@DU?$char_traits@D@std@@V?$allocator@D@2@@std@@@std@@@2@$0A@@std@@@std@@@std@@YAPAU_Node@?$_Tree_nod@V?$_Tmap_traits@HV?$basic_string@DU?$char_traits@D@std@@V?$allocator@D@2@@std@@U?$less@H@2@V?$allocator@U?$pair@$$CBHV?$basic_string@DU?$char_traits@D@std@@V?$allocator@D@2@@std@@@std@@@2@$0A@@std@@@0@IPAU120@@Z 0050d6c0 f i TzhxxDlg.obj
 0001:0010c720       ??$_Destroy@U_Node@?$_Tree_nod@V?$_Tmap_traits@HV?$basic_string@DU?$char_traits@D@std@@V?$allocator@D@2@@std@@U?$less@H@2@V?$allocator@U?$pair@$$CBHV?$basic_string@DU?$char_traits@D@std@@V?$allocator@D@2@@std@@@std@@@2@$0A@@std@@@std@@@std@@YAXPAU_Node@?$_Tree_nod@V?$_Tmap_traits@HV?$basic_string@DU?$char_traits@D@std@@V?$allocator@D@2@@std@@U?$less@H@2@V?$allocator@U?$pair@$$CBHV?$basic_string@DU?$char_traits@D@std@@V?$allocator@D@2@@std@@@std@@@2@$0A@@std@@@0@@Z 0050d720 f i TzhxxDlg.obj
 0001:0010c740       ??$_Construct@HH@std@@YAXPAHABH@Z 0050d740 f i GridCtrl.obj
 0001:0010c740       ??$_Construct@PAU_Node@?$_Tree_nod@V?$_Tmap_traits@HV?$basic_string@DU?$char_traits@D@std@@V?$allocator@D@2@@std@@U?$less@H@2@V?$allocator@U?$pair@$$CBHV?$basic_string@DU?$char_traits@D@std@@V?$allocator@D@2@@std@@@std@@@2@$0A@@std@@@std@@PAU123@@std@@YAXPAPAU_Node@?$_Tree_nod@V?$_Tmap_traits@HV?$basic_string@DU?$char_traits@D@std@@V?$allocator@D@2@@std@@U?$less@H@2@V?$allocator@U?$pair@$$CBHV?$basic_string@DU?$char_traits@D@std@@V?$allocator@D@2@@std@@@std@@@2@$0A@@std@@@0@ABQAU120@@Z 0050d740 f i TzhxxDlg.obj
 0001:0010c790       ??_G_Node@?$_Tree_nod@V?$_Tmap_traits@HV?$basic_string@DU?$char_traits@D@std@@V?$allocator@D@2@@std@@U?$less@H@2@V?$allocator@U?$pair@$$CBHV?$basic_string@DU?$char_traits@D@std@@V?$allocator@D@2@@std@@@std@@@2@$0A@@std@@@std@@QAEPAXI@Z 0050d790 f i TzhxxDlg.obj
 0001:0010c7d0       ??1_Node@?$_Tree_nod@V?$_Tmap_traits@HV?$basic_string@DU?$char_traits@D@std@@V?$allocator@D@2@@std@@U?$less@H@2@V?$allocator@U?$pair@$$CBHV?$basic_string@DU?$char_traits@D@std@@V?$allocator@D@2@@std@@@std@@@2@$0A@@std@@@std@@QAE@XZ 0050d7d0 f i TzhxxDlg.obj
 0001:0010c7f0       ??_ECTzhxxDlg@@WHE@AEPAXI@Z 0050d7f0 f i TzhxxDlg.obj
 0001:0010c800       ?ReplaceSel@CRichEditCtrl@@QAEXPB_WH@Z 0050d800 f i TzhxxDlg.obj
 0001:0010c830       ??0out_of_range@std@@QAE@ABV?$basic_string@DU?$char_traits@D@std@@V?$allocator@D@2@@1@@Z 0050d830 f i TzhxxDlg.obj
 0001:0010c860       ??1out_of_range@std@@UAE@XZ 0050d860 f i TzhxxDlg.obj
 0001:0010c890       ??_Gout_of_range@std@@UAEPAXI@Z 0050d890 f i TzhxxDlg.obj
 0001:0010c890       ??_Eout_of_range@std@@UAEPAXI@Z 0050d890 f i TzhxxDlg.obj
 0001:0010c8d0       ??0out_of_range@std@@QAE@ABV01@@Z 0050d8d0 f i TzhxxDlg.obj
 0001:0010c900       ?GetMessageMap@CWndGameTypeCtrl@@MBEPBUAFX_MSGMAP@@XZ 0050d900 f   WndGameTypeCtrl.obj
 0001:0010c920       ?GetThisMessageMap@CWndGameTypeCtrl@@KGPBUAFX_MSGMAP@@XZ 0050d920 f   WndGameTypeCtrl.obj
 0001:0010c940       ?MouseProc@@YGJHIJ@Z       0050d940 f   WndGameTypeCtrl.obj
 0001:0010c9e0       ??0CWndGameTypeCtrl@@QAE@XZ 0050d9e0 f   WndGameTypeCtrl.obj
 0001:0010cb30       ??_GCWndGameTypeCtrl@@UAEPAXI@Z 0050db30 f i WndGameTypeCtrl.obj
 0001:0010cb30       ??_ECWndGameTypeCtrl@@UAEPAXI@Z 0050db30 f i WndGameTypeCtrl.obj
 0001:0010cb70       ??1CWndGameTypeCtrl@@UAE@XZ 0050db70 f   WndGameTypeCtrl.obj
 0001:0010cc10       ?GetControlSize@CWndGameTypeCtrl@@QAEXAAVCSize@@@Z 0050dc10 f   WndGameTypeCtrl.obj
 0001:0010cc40       ?ShowMenu@CWndGameTypeCtrl@@QAEX_NG@Z 0050dc40 f   WndGameTypeCtrl.obj
 0001:0010cc80       ?SetClicked@CWndGameTypeCtrl@@QAEXG@Z 0050dc80 f   WndGameTypeCtrl.obj
 0001:0010cd00       ?InsertGameType@CWndGameTypeCtrl@@QAEXPAVCGameTypeItem@@@Z 0050dd00 f   WndGameTypeCtrl.obj
 0001:0010ce30       ?GetTypeItemIndex@CWndGameTypeCtrl@@AAEGVCPoint@@@Z 0050de30 f   WndGameTypeCtrl.obj
 0001:0010cf10       ?OnEraseBkgnd@CWndGameTypeCtrl@@IAEHPAVCDC@@@Z 0050df10 f   WndGameTypeCtrl.obj
 0001:0010d250       ?PreTranslateMessage@CWndGameTypeCtrl@@MAEHPAUtagMSG@@@Z 0050e250 f   WndGameTypeCtrl.obj
 0001:0010d280       ?OnMouseMove@CWndGameTypeCtrl@@IAEXIVCPoint@@@Z 0050e280 f   WndGameTypeCtrl.obj
 0001:0010d680       ?GetInstance@CPlazaViewItem@@SAPAV1@XZ 0050e680 f i WndGameTypeCtrl.obj
 0001:0010d6a0       ?OnCommand@CWndGameTypeCtrl@@UAEHIJ@Z 0050e6a0 f   WndGameTypeCtrl.obj
 0001:0010d740       ?OnLButtonUp@CWndGameTypeCtrl@@IAEXIVCPoint@@@Z 0050e740 f   WndGameTypeCtrl.obj
 0001:0010d820       ?OnLButtonDown@CWndGameTypeCtrl@@IAEXIVCPoint@@@Z 0050e820 f   WndGameTypeCtrl.obj
 0001:0010d890       ?OnMouseLeave@CWndGameTypeCtrl@@IAEJIJ@Z 0050e890 f   WndGameTypeCtrl.obj
 0001:0010d900       ??0?$CWHArray@PAVCGameTypeItem@@ABQAV1@@@QAE@XZ 0050e900 f i WndGameTypeCtrl.obj
 0001:0010d950       ??1?$CWHArray@PAVCGameTypeItem@@ABQAV1@@@UAE@XZ 0050e950 f i WndGameTypeCtrl.obj
 0001:0010d9c0       ?InsertAt@?$CWHArray@PAUtagGameKindInfo@@ABQAU1@@@QAEXHABQAUtagGameKindInfo@@H@Z 0050e9c0 f i PlazaViewItem.obj
 0001:0010d9c0       ?InsertAt@?$CWHArray@PAUtagGameServerInfo@@ABQAU1@@@QAEXHABQAUtagGameServerInfo@@H@Z 0050e9c0 f i PlazaViewItem.obj
 0001:0010d9c0       ?InsertAt@?$CWHArray@PAVCGameTypeItem@@ABQAV1@@@QAEXHABQAVCGameTypeItem@@H@Z 0050e9c0 f i WndGameTypeCtrl.obj
 0001:0010db20       ??_E?$CWHArray@PAVCGameTypeItem@@ABQAV1@@@UAEPAXI@Z 0050eb20 f i WndGameTypeCtrl.obj
 0001:0010db20       ??_G?$CWHArray@PAVCGameTypeItem@@ABQAV1@@@UAEPAXI@Z 0050eb20 f i WndGameTypeCtrl.obj
 0001:0010db60       ?SetRectEmpty@CRect@@QAEXXZ 0050eb60 f i WndGameTypeCtrl.obj
 0001:0010db80       ?GetMessageMap@CWndUserInfoCtrl@@MBEPBUAFX_MSGMAP@@XZ 0050eb80 f   WndUserInfoCtrl.obj
 0001:0010dba0       ?GetThisMessageMap@CWndUserInfoCtrl@@KGPBUAFX_MSGMAP@@XZ 0050eba0 f   WndUserInfoCtrl.obj
 0001:0010dbc0       ??0CWndUserInfoCtrl@@QAE@XZ 0050ebc0 f   WndUserInfoCtrl.obj
 0001:0010dcc0       ??_GCWndUserInfoCtrl@@UAEPAXI@Z 0050ecc0 f i WndUserInfoCtrl.obj
 0001:0010dcc0       ??_ECWndUserInfoCtrl@@UAEPAXI@Z 0050ecc0 f i WndUserInfoCtrl.obj
 0001:0010dd00       ??1CWndUserInfoCtrl@@UAE@XZ 0050ed00 f   WndUserInfoCtrl.obj
 0001:0010ddc0       ?OnCommand@CWndUserInfoCtrl@@MAEHIJ@Z 0050edc0 f   WndUserInfoCtrl.obj
 0001:0010e2e0       ?OnSize@CWndUserInfoCtrl@@IAEXIHH@Z 0050f2e0 f   WndUserInfoCtrl.obj
 0001:0010e320       ?OnCreate@CWndUserInfoCtrl@@IAEHPAUtagCREATESTRUCTW@@@Z 0050f320 f   WndUserInfoCtrl.obj
 0001:0010e660       ?RectifyControl@CWndUserInfoCtrl@@AAEXHH@Z 0050f660 f   WndUserInfoCtrl.obj
 0001:0010e780       ?SwitchScoreFormat@CWndUserInfoCtrl@@AAEXNIIPA_WG@Z 0050f780 f   WndUserInfoCtrl.obj
 0001:0010e8c0       ?OnEraseBkgnd@CWndUserInfoCtrl@@IAEHPAVCDC@@@Z 0050f8c0 f   WndUserInfoCtrl.obj
 0001:0010ef80       ?OnMessagePlatformEvent@CWndUserInfoCtrl@@IAEJIJ@Z 0050ff80 f   WndUserInfoCtrl.obj
 0001:0010f090       ?GetMessageMap@CWndValidateCode@@MBEPBUAFX_MSGMAP@@XZ 00510090 f   WndValidateCode.obj
 0001:0010f0b0       ?GetThisMessageMap@CWndValidateCode@@KGPBUAFX_MSGMAP@@XZ 005100b0 f   WndValidateCode.obj
 0001:0010f0d0       ??0CWndValidateCode@@QAE@XZ 005100d0 f   WndValidateCode.obj
 0001:0010f120       ??_GCWndValidateCode@@UAEPAXI@Z 00510120 f i WndValidateCode.obj
 0001:0010f120       ??_ECWndValidateCode@@UAEPAXI@Z 00510120 f i WndValidateCode.obj
 0001:0010f160       ??1CWndValidateCode@@UAE@XZ 00510160 f   WndValidateCode.obj
 0001:0010f190       ?RandValidateCode@CWndValidateCode@@QAEXXZ 00510190 f   WndValidateCode.obj
 0001:0010f220       ?CheckValidateCode@CWndValidateCode@@QAE_NPB_W@Z 00510220 f   WndValidateCode.obj
 0001:0010f290       ?CreateValidateCode@CWndValidateCode@@QAEXAAVCImage@ATL@@HH@Z 00510290 f   WndValidateCode.obj
 0001:0010f500       ?OnPaint@CWndValidateCode@@IAEXXZ 00510500 f   WndValidateCode.obj
 0001:0010f620       ?OnSize@CWndValidateCode@@IAEXIHH@Z 00510620 f   WndValidateCode.obj
 0001:0010f6a0       ?SetPixel@CDC@@QAEKHHK@Z   005106a0 f i WndValidateCode.obj
 0001:0010f6d0       ?IsNull@CImage@ATL@@QBE_NXZ 005106d0 f i WndValidateCode.obj
 0001:0010f700       ?GetRuntimeClass@CWuFenCai@@UBEPAUCRuntimeClass@@XZ 00510700 f   WuFenCai.obj
 0001:0010f720       ??0CWuFenCai@@QAE@PAVCWnd@@@Z 00510720 f   WuFenCai.obj
 0001:00110a20       ??_ECWuFenCai@@UAEPAXI@Z   00511a20 f i WuFenCai.obj
 0001:00110a20       ??_GCWuFenCai@@UAEPAXI@Z   00511a20 f i WuFenCai.obj
 0001:00110a60       ??1CWuFenCai@@UAE@XZ       00511a60 f   WuFenCai.obj
 0001:00111ce0       ?DoDataExchange@CWuFenCai@@MAEXPAVCDataExchange@@@Z 00512ce0 f   WuFenCai.obj
 0001:00111ce0       ?DoDataExchange@CFenFenCai@@MAEXPAVCDataExchange@@@Z 00512ce0 f   FenFenCai.obj
 0001:00112ff0       ?GetMessageMap@CWuFenCai@@MBEPBUAFX_MSGMAP@@XZ 00513ff0 f   WuFenCai.obj
 0001:00113010       ?GetThisMessageMap@CWuFenCai@@KGPBUAFX_MSGMAP@@XZ 00514010 f   WuFenCai.obj
 0001:00113030       ?OnPaint@CWuFenCai@@IAEXXZ 00514030 f   WuFenCai.obj
 0001:001132d0       ?OnSize@CFenFenCai@@IAEXIHH@Z 005142d0 f   FenFenCai.obj
 0001:001132d0       ?OnSize@CWuFenCai@@IAEXIHH@Z 005142d0 f   WuFenCai.obj
 0001:00113340       ?OnShowWindow@CWuFenCai@@IAEXHI@Z 00514340 f   WuFenCai.obj
 0001:00113440       ?OnTimer@CWuFenCai@@IAEXI@Z 00514440 f   WuFenCai.obj
 0001:00113790       ?OnBnClickedBtnHszhx@CWuFenCai@@IAEXXZ 00514790 f   WuFenCai.obj
 0001:00113800       ?OnBnClickedBtnHszx@CWuFenCai@@IAEXXZ 00514800 f   WuFenCai.obj
 0001:00113860       ?OnBnClickedBtnWxhe@CWuFenCai@@IAEXXZ 00514860 f   WuFenCai.obj
 0001:00113910       ?OnBnClickedBtnHezx@CWuFenCai@@IAEXXZ 00514910 f   WuFenCai.obj
 0001:00113990       ?OnBnClickedBtnDxdsh@CWuFenCai@@IAEXXZ 00514990 f   WuFenCai.obj
 0001:001139f0       ?OnBnClickedBtnBdw@CWuFenCai@@IAEXXZ 005149f0 f   WuFenCai.obj
 0001:00113a70       ?OnBnClickedBtnQszhx@CWuFenCai@@IAEXXZ 00514a70 f   WuFenCai.obj
 0001:00113af0       ?OnBnClickedBtnQszx@CWuFenCai@@IAEXXZ 00514af0 f   WuFenCai.obj
 0001:00113b60       ?OnBnClickedBtnWxqe@CWuFenCai@@IAEXXZ 00514b60 f   WuFenCai.obj
 0001:00113be0       ?OnBnClickedBtnQezx@CWuFenCai@@IAEXXZ 00514be0 f   WuFenCai.obj
 0001:00113c60       ?OnBnClickedBtnHszhxhzh@CWuFenCai@@IAEXXZ 00514c60 f   WuFenCai.obj
 0001:00113ce0       ?OnBnClickedBtnDwd@CWuFenCai@@IAEXXZ 00514ce0 f   WuFenCai.obj
 0001:00113d40       ?OnBnClickedBtnQw@CWuFenCai@@IAEXXZ 00514d40 f   WuFenCai.obj
 0001:00113dc0       ?OnInitDialog@CWuFenCai@@MAEHXZ 00514dc0 f   WuFenCai.obj
 0001:00113dc0       ?OnInitDialog@CFenFenCai@@MAEHXZ 00514dc0 f   FenFenCai.obj
 0001:00114a80       ?OnBnClickedBtnQianDan@CWuFenCai@@IAEXXZ 00515a80 f   WuFenCai.obj
 0001:00114a80       ?OnBnClickedBtnQianDan@CJiangXiSSC@@IAEXXZ 00515a80 f   JiangXiSSC.obj
 0001:00114a80       ?OnBnClickedBtnQianDan@CFenFenCai@@IAEXXZ 00515a80 f   FenFenCai.obj
 0001:00114b40       ?OnBnClickedBtnBaiDan@CJiangXiSSC@@IAEXXZ 00515b40 f   JiangXiSSC.obj
 0001:00114b40       ?OnBnClickedBtnBaiDan@CFenFenCai@@IAEXXZ 00515b40 f   FenFenCai.obj
 0001:00114b40       ?OnBnClickedBtnBaiDan@CWuFenCai@@IAEXXZ 00515b40 f   WuFenCai.obj
 0001:00114c00       ?OnBnClickedBtnBaiShuang@CFenFenCai@@IAEXXZ 00515c00 f   FenFenCai.obj
 0001:00114c00       ?OnBnClickedBtnBaiShuang@CJiangXiSSC@@IAEXXZ 00515c00 f   JiangXiSSC.obj
 0001:00114c00       ?OnBnClickedBtnBaiShuang@CWuFenCai@@IAEXXZ 00515c00 f   WuFenCai.obj
 0001:00114cc0       ?OnBnClickedBtnShiQuan@CWuFenCai@@IAEXXZ 00515cc0 f   WuFenCai.obj
 0001:00114cc0       ?OnBnClickedBtnShiQuan@CJiangXiSSC@@IAEXXZ 00515cc0 f   JiangXiSSC.obj
 0001:00114cc0       ?OnBnClickedBtnShiQuan@CFenFenCai@@IAEXXZ 00515cc0 f   FenFenCai.obj
 0001:00114d80       ?OnBnClickedBtnShiShuang@CFenFenCai@@IAEXXZ 00515d80 f   FenFenCai.obj
 0001:00114d80       ?OnBnClickedBtnShiShuang@CWuFenCai@@IAEXXZ 00515d80 f   WuFenCai.obj
 0001:00114d80       ?OnBnClickedBtnShiShuang@CJiangXiSSC@@IAEXXZ 00515d80 f   JiangXiSSC.obj
 0001:00114e40       ?OnBnClickedBtnShiQing@CJiangXiSSC@@IAEXXZ 00515e40 f   JiangXiSSC.obj
 0001:00114e40       ?OnBnClickedBtnShiQing@CFenFenCai@@IAEXXZ 00515e40 f   FenFenCai.obj
 0001:00114e40       ?OnBnClickedBtnShiQing@CWuFenCai@@IAEXXZ 00515e40 f   WuFenCai.obj
 0001:00114f00       ?OnBnClickedBtnGeDan@CFenFenCai@@IAEXXZ 00515f00 f   FenFenCai.obj
 0001:00114f00       ?OnBnClickedBtnGeDan@CJiangXiSSC@@IAEXXZ 00515f00 f   JiangXiSSC.obj
 0001:00114f00       ?OnBnClickedBtnGeDan@CWuFenCai@@IAEXXZ 00515f00 f   WuFenCai.obj
 0001:00114fc0       ?OnBnClickedBtnGeShuang@CFenFenCai@@IAEXXZ 00515fc0 f   FenFenCai.obj
 0001:00114fc0       ?OnBnClickedBtnGeShuang@CJiangXiSSC@@IAEXXZ 00515fc0 f   JiangXiSSC.obj
 0001:00114fc0       ?OnBnClickedBtnGeShuang@CWuFenCai@@IAEXXZ 00515fc0 f   WuFenCai.obj
 0001:00115080       ?OnBnClickedBtnGeQing@CWuFenCai@@IAEXXZ 00516080 f   WuFenCai.obj
 0001:00115080       ?OnBnClickedBtnGeQing@CJiangXiSSC@@IAEXXZ 00516080 f   JiangXiSSC.obj
 0001:00115080       ?OnBnClickedBtnGeQing@CFenFenCai@@IAEXXZ 00516080 f   FenFenCai.obj
 0001:00115140       ?OnBnClickedBtnChqAdd@CWuFenCai@@IAEXXZ 00516140 f   WuFenCai.obj
 0001:00120ea0       ?InitNumberBtns@CFenFenCai@@AAEXXZ 00521ea0 f   FenFenCai.obj
 0001:00120ea0       ?InitNumberBtns@CWuFenCai@@AAEXXZ 00521ea0 f   WuFenCai.obj
 0001:00121cd0       ?OnBnClickedRioHszhxFushi@CWuFenCai@@IAEXXZ 00522cd0 f   WuFenCai.obj
 0001:00121db0       ?OnBnClickedRioYffs@CWuFenCai@@IAEXXZ 00522db0 f   WuFenCai.obj
 0001:00121e80       ?OnBnClickedRioHscs@CWuFenCai@@IAEXXZ 00522e80 f   WuFenCai.obj
 0001:00121f50       ?OnBnClickedRioSxbx@CWuFenCai@@IAEXXZ 00522f50 f   WuFenCai.obj
 0001:00122020       ?OnBnClickedRioSjfc@CWuFenCai@@IAEXXZ 00523020 f   WuFenCai.obj
 0001:001220f0       ?OnBnClickedRioQsHezhi@CWuFenCai@@IAEXXZ 005230f0 f   WuFenCai.obj
 0001:001221a0       ?OnBnClickedRioHsHezhi@CWuFenCai@@IAEXXZ 005231a0 f   WuFenCai.obj
 0001:00122250       ?OnBnClickedRioWuXingZhx@CWuFenCai@@IAEXXZ 00523250 f   WuFenCai.obj
 0001:00122370       ?OnBnClickedRioWuXingQs@CWuFenCai@@IAEXXZ 00523370 f   WuFenCai.obj
 0001:00122440       ?OnBnClickedRioWuXingHS@CWuFenCai@@IAEXXZ 00523440 f   WuFenCai.obj
 0001:00122510       ?OnBnClickedRioWuXingZS@CWuFenCai@@IAEXXZ 00523510 f   WuFenCai.obj
 0001:001225f0       ?OnBnClickedRioHszhxDanshi@CWuFenCai@@IAEXXZ 005235f0 f   WuFenCai.obj
 0001:001226f0       ?OnBnClickedRioQszhxFushi@CWuFenCai@@IAEXXZ 005236f0 f   WuFenCai.obj
 0001:001227d0       ?OnBnClickedRioQszhxDanshi@CWuFenCai@@IAEXXZ 005237d0 f   WuFenCai.obj
 0001:001228d0       ?OnBnClickedRioRenXuan2@CWuFenCai@@IAEXXZ 005238d0 f   WuFenCai.obj
 0001:001229c0       ?OnBnClickedRioRenXuan3@CWuFenCai@@IAEXXZ 005239c0 f   WuFenCai.obj
 0001:00122ab0       ?OnBnClickedRioRenXuan4@CWuFenCai@@IAEXXZ 00523ab0 f   WuFenCai.obj
 0001:00122ba0       ?OnBnClickedRioHszsFushi@CWuFenCai@@IAEXXZ 00523ba0 f   WuFenCai.obj
 0001:00122cb0       ?OnBnClickedRioHszsDanshi@CWuFenCai@@IAEXXZ 00523cb0 f   WuFenCai.obj
 0001:00122d50       ?OnBnClickedRioHszlFushi@CWuFenCai@@IAEXXZ 00523d50 f   WuFenCai.obj
 0001:00122e60       ?OnBnClickedRioZszlFushi@CWuFenCai@@IAEXXZ 00523e60 f   WuFenCai.obj
 0001:00122f70       ?OnBnClickedRioZszsFushi@CWuFenCai@@IAEXXZ 00523f70 f   WuFenCai.obj
 0001:00123080       ?OnBnClickedRioZuXuan120@CWuFenCai@@IAEXXZ 00524080 f   WuFenCai.obj
 0001:001231a0       ?OnBnClickedRioZuXuan60@CWuFenCai@@IAEXXZ 005241a0 f   WuFenCai.obj
 0001:001232d0       ?OnBnClickedRioZuXuan30@CWuFenCai@@IAEXXZ 005242d0 f   WuFenCai.obj
 0001:00123400       ?OnBnClickedRioZuXuan20@CWuFenCai@@IAEXXZ 00524400 f   WuFenCai.obj
 0001:00123530       ?OnBnClickedRioZuXuan10@CWuFenCai@@IAEXXZ 00524530 f   WuFenCai.obj
 0001:00123660       ?OnBnClickedRioZuXuan5@CWuFenCai@@IAEXXZ 00524660 f   WuFenCai.obj
 0001:00123790       ?OnBnClickedRioHszlDanshi@CWuFenCai@@IAEXXZ 00524790 f   WuFenCai.obj
 0001:00123830       ?OnBnClickedRioQszsFushi@CWuFenCai@@IAEXXZ 00524830 f   WuFenCai.obj
 0001:00123940       ?OnBnClickedRioQszsDanshi@CWuFenCai@@IAEXXZ 00524940 f   WuFenCai.obj
 0001:001239e0       ?OnBnClickedRioQszlFushi@CWuFenCai@@IAEXXZ 005249e0 f   WuFenCai.obj
 0001:00123af0       ?OnBnClickedRioQszlDanshi@CWuFenCai@@IAEXXZ 00524af0 f   WuFenCai.obj
 0001:00123b90       ?OnBnClickedRioHezhxFushi@CWuFenCai@@IAEXXZ 00524b90 f   WuFenCai.obj
 0001:00123c50       ?OnBnClickedRioHezhxDanshi@CWuFenCai@@IAEXXZ 00524c50 f   WuFenCai.obj
 0001:00123d10       ?OnBnClickedRioHezxFushi@CWuFenCai@@IAEXXZ 00524d10 f   WuFenCai.obj
 0001:00123de0       ?OnBnClickedRioHezxDanshi@CWuFenCai@@IAEXXZ 00524de0 f   WuFenCai.obj
 0001:00123ea0       ?OnBnClickedRioQezhxFushi@CWuFenCai@@IAEXXZ 00524ea0 f   WuFenCai.obj
 0001:00123f60       ?OnBnClickedRioQezhxDanshi@CWuFenCai@@IAEXXZ 00524f60 f   WuFenCai.obj
 0001:00124020       ?OnBnClickedRioQezxFushi@CWuFenCai@@IAEXXZ 00525020 f   WuFenCai.obj
 0001:001240f0       ?OnBnClickedRioQezxDanshi@CWuFenCai@@IAEXXZ 005250f0 f   WuFenCai.obj
 0001:001241b0       ?OnBnClickedRioDxdsh@CWuFenCai@@IAEXXZ 005251b0 f   WuFenCai.obj
 0001:00124240       ?OnBnClickedRioQsbdw@CWuFenCai@@IAEXXZ 00525240 f   WuFenCai.obj
 0001:00124310       ?OnBnClickedRioHsbdw@CWuFenCai@@IAEXXZ 00525310 f   WuFenCai.obj
 0001:001243e0       ?OnBnClickedRioQsHunhe@CWuFenCai@@IAEXXZ 005253e0 f   WuFenCai.obj
 0001:001244a0       ?OnBnClickedRioZsHunhe@CWuFenCai@@IAEXXZ 005254a0 f   WuFenCai.obj
 0001:00124560       ?OnBnClickedRioHsHunhe@CWuFenCai@@IAEXXZ 00525560 f   WuFenCai.obj
 0001:00124620       ?OnBnClickedRioDwd@CWuFenCai@@IAEXXZ 00525620 f   WuFenCai.obj
 0001:001246b0       ?OnBnClickedRioHebdw@CWuFenCai@@IAEXXZ 005256b0 f   WuFenCai.obj
 0001:00124780       ?OnBnClickedRioQebdw@CWuFenCai@@IAEXXZ 00525780 f   WuFenCai.obj
 0001:00124850       ?OnBnClickedBtnZhuihao@CWuFenCai@@IAEXXZ 00525850 f   WuFenCai.obj
 0001:00124c30       ?CheckInput@CWuFenCai@@QAE_NXZ 00525c30 f   WuFenCai.obj
 0001:00125560       ?OnBnClickedBtnTouzhu@CWuFenCai@@IAEXXZ 00526560 f   WuFenCai.obj
 0001:00125720       ?OnBnClickedBtnDelSel@CWuFenCai@@IAEXXZ 00526720 f   WuFenCai.obj
 0001:00125840       ?OnBnClickedBtnClsList@CWuFenCai@@QAEXXZ 00526840 f   WuFenCai.obj
 0001:001258f0       ?OnEnChangeEditBeishu@CWuFenCai@@QAEXXZ 005268f0 f   WuFenCai.obj
 0001:00125aa0       ?UnCheckNumBtn@CJiangXiSSC@@AAEXAAVCNumerButton@@@Z 00526aa0 f   JiangXiSSC.obj
 0001:00125aa0       ?UnCheckNumBtn@CChongQing11X5@@AAEXAAVCNumerButton@@@Z 00526aa0 f   ChongQing11X5.obj
 0001:00125aa0       ?UnCheckNumBtn@CShanDong11X5@@AAEXAAVCNumerButton@@@Z 00526aa0 f   ShanDong11X5.obj
 0001:00125aa0       ?UnCheckNumBtn@CXinJiangSSC@@AAEXAAVCNumerButton@@@Z 00526aa0 f   XinJiangSSC.obj
 0001:00125aa0       ?UnCheckNumBtn@CJiangXi11X5@@AAEXAAVCNumerButton@@@Z 00526aa0 f   JiangXi11X5.obj
 0001:00125aa0       ?UnCheckNumBtn@CWuFenCai@@AAEXAAVCNumerButton@@@Z 00526aa0 f   WuFenCai.obj
 0001:00125aa0       ?UnCheckNumBtn@CChongQingSSC@@AAEXAAVCNumerButton@@@Z 00526aa0 f   ChongQingSSC.obj
 0001:00125aa0       ?UnCheckNumBtn@CFenFenCai@@AAEXAAVCNumerButton@@@Z 00526aa0 f   FenFenCai.obj
 0001:00125aa0       ?UnCheckNumBtn@CGuangDong11X5@@AAEXAAVCNumerButton@@@Z 00526aa0 f   GuangDong11X5.obj
 0001:00125ac0       ?ShowCtrl@CWuFenCai@@AAEXH@Z 00526ac0 f   WuFenCai.obj
 0001:00125ac0       ?ShowCtrl@CJiangXi11X5@@AAEXH@Z 00526ac0 f   JiangXi11X5.obj
 0001:00125ac0       ?ShowCtrl@CChongQing11X5@@AAEXH@Z 00526ac0 f   ChongQing11X5.obj
 0001:00125ac0       ?ShowCtrl@CGuangDong11X5@@AAEXH@Z 00526ac0 f   GuangDong11X5.obj
 0001:00125ac0       ?ShowCtrl@CShanDong11X5@@AAEXH@Z 00526ac0 f   ShanDong11X5.obj
 0001:00125ac0       ?ShowCtrl@CJiangXiSSC@@AAEXH@Z 00526ac0 f   JiangXiSSC.obj
 0001:00125ac0       ?ShowCtrl@CFenFenCai@@AAEXH@Z 00526ac0 f   FenFenCai.obj
 0001:00125ac0       ?ShowCtrl@CChongQingSSC@@AAEXH@Z 00526ac0 f   ChongQingSSC.obj
 0001:00125ac0       ?ShowCtrl@CXinJiangSSC@@AAEXH@Z 00526ac0 f   XinJiangSSC.obj
 0001:00125b00       ?GetHezhiString@CJiangXiSSC@@AAE?AV?$CStringT@_WV?$StrTraitMFC_DLL@_WV?$ChTraitsCRT@_W@ATL@@@@@ATL@@XZ 00526b00 f   JiangXiSSC.obj
 0001:00125b00       ?GetHezhiString@CWuFenCai@@AAE?AV?$CStringT@_WV?$StrTraitMFC_DLL@_WV?$ChTraitsCRT@_W@ATL@@@@@ATL@@XZ 00526b00 f   WuFenCai.obj
 0001:00125b00       ?GetHezhiString@CFenFenCai@@AAE?AV?$CStringT@_WV?$StrTraitMFC_DLL@_WV?$ChTraitsCRT@_W@ATL@@@@@ATL@@XZ 00526b00 f   FenFenCai.obj
 0001:00125fb0       ?GetWanString@CJiangXiSSC@@AAE?AV?$CStringT@_WV?$StrTraitMFC_DLL@_WV?$ChTraitsCRT@_W@ATL@@@@@ATL@@XZ 00526fb0 f   JiangXiSSC.obj
 0001:00125fb0       ?GetWanString@CFenFenCai@@AAE?AV?$CStringT@_WV?$StrTraitMFC_DLL@_WV?$ChTraitsCRT@_W@ATL@@@@@ATL@@XZ 00526fb0 f   FenFenCai.obj
 0001:00125fb0       ?GetWanString@CWuFenCai@@AAE?AV?$CStringT@_WV?$StrTraitMFC_DLL@_WV?$ChTraitsCRT@_W@ATL@@@@@ATL@@XZ 00526fb0 f   WuFenCai.obj
 0001:001261b0       ?GetQianString@CWuFenCai@@AAE?AV?$CStringT@_WV?$StrTraitMFC_DLL@_WV?$ChTraitsCRT@_W@ATL@@@@@ATL@@XZ 005271b0 f   WuFenCai.obj
 0001:001261b0       ?GetQianString@CJiangXiSSC@@AAE?AV?$CStringT@_WV?$StrTraitMFC_DLL@_WV?$ChTraitsCRT@_W@ATL@@@@@ATL@@XZ 005271b0 f   JiangXiSSC.obj
 0001:001261b0       ?GetQianString@CFenFenCai@@AAE?AV?$CStringT@_WV?$StrTraitMFC_DLL@_WV?$ChTraitsCRT@_W@ATL@@@@@ATL@@XZ 005271b0 f   FenFenCai.obj
 0001:001263b0       ?GetBaiString@CFenFenCai@@AAE?AV?$CStringT@_WV?$StrTraitMFC_DLL@_WV?$ChTraitsCRT@_W@ATL@@@@@ATL@@XZ 005273b0 f   FenFenCai.obj
 0001:001263b0       ?GetBaiString@CWuFenCai@@AAE?AV?$CStringT@_WV?$StrTraitMFC_DLL@_WV?$ChTraitsCRT@_W@ATL@@@@@ATL@@XZ 005273b0 f   WuFenCai.obj
 0001:001263b0       ?GetBaiString@CJiangXiSSC@@AAE?AV?$CStringT@_WV?$StrTraitMFC_DLL@_WV?$ChTraitsCRT@_W@ATL@@@@@ATL@@XZ 005273b0 f   JiangXiSSC.obj
 0001:001265b0       ?GetWanDesc@CWuFenCai@@AAE?AV?$CStringT@_WV?$StrTraitMFC_DLL@_WV?$ChTraitsCRT@_W@ATL@@@@@ATL@@XZ 005275b0 f   WuFenCai.obj
 0001:00126600       ?AdjustWanFa@CFenFenCai@@AAEXXZ 00527600 f   FenFenCai.obj
 0001:00126600       ?AdjustWanFa@CWuFenCai@@AAEXXZ 00527600 f   WuFenCai.obj
 0001:001269f0       ?AdjustNumBtn@CWuFenCai@@AAEXXZ 005279f0 f   WuFenCai.obj
 0001:001269f0       ?AdjustNumBtn@CFenFenCai@@AAEXXZ 005279f0 f   FenFenCai.obj
 0001:00129060       ?AdjustNumView@CFenFenCai@@AAEXXZ 0052a060 f   FenFenCai.obj
 0001:00129060       ?AdjustNumView@CWuFenCai@@AAEXXZ 0052a060 f   WuFenCai.obj
 0001:00129210       ?AdjustDanShi@CFenFenCai@@AAEXXZ 0052a210 f   FenFenCai.obj
 0001:00129210       ?AdjustDanShi@CWuFenCai@@AAEXXZ 0052a210 f   WuFenCai.obj
 0001:00129380       ?AdjustAdd@CFenFenCai@@AAEXXZ 0052a380 f   FenFenCai.obj
 0001:00129380       ?AdjustAdd@CWuFenCai@@AAEXXZ 0052a380 f   WuFenCai.obj
 0001:00129430       ?HideBaiNums@CFenFenCai@@AAEXXZ 0052a430 f   FenFenCai.obj
 0001:00129430       ?HideBaiNums@CWuFenCai@@AAEXXZ 0052a430 f   WuFenCai.obj
 0001:001295e0       ?HideShiNums@CWuFenCai@@AAEXXZ 0052a5e0 f   WuFenCai.obj
 0001:001295e0       ?HideShiNums@CFenFenCai@@AAEXXZ 0052a5e0 f   FenFenCai.obj
 0001:00129720       ?ShowQianNums@CWuFenCai@@AAEXXZ 0052a720 f   WuFenCai.obj
 0001:00129720       ?ShowQianNums@CFenFenCai@@AAEXXZ 0052a720 f   FenFenCai.obj
 0001:00129850       ?ShowShiNums@CWuFenCai@@AAEXXZ 0052a850 f   WuFenCai.obj
 0001:00129850       ?ShowShiNums@CFenFenCai@@AAEXXZ 0052a850 f   FenFenCai.obj
 0001:001299a0       ?ShowGeNums@CWuFenCai@@AAEXXZ 0052a9a0 f   WuFenCai.obj
 0001:001299a0       ?ShowGeNums@CFenFenCai@@AAEXXZ 0052a9a0 f   FenFenCai.obj
 0001:00129ad0       ?ShowZuXuan@CWuFenCai@@AAEXXZ 0052aad0 f   WuFenCai.obj
 0001:00129ad0       ?ShowZuXuan@CFenFenCai@@AAEXXZ 0052aad0 f   FenFenCai.obj
 0001:00129b70       ?ShowDanHao@CFenFenCai@@AAEXXZ 0052ab70 f   FenFenCai.obj
 0001:00129b70       ?ShowDanHao@CWuFenCai@@AAEXXZ 0052ab70 f   WuFenCai.obj
 0001:00129bc0       ?ShowErChong1@CWuFenCai@@AAEXXZ 0052abc0 f   WuFenCai.obj
 0001:00129bc0       ?ShowErChong1@CFenFenCai@@AAEXXZ 0052abc0 f   FenFenCai.obj
 0001:00129c10       ?ShowErChong@CFenFenCai@@AAEXXZ 0052ac10 f   FenFenCai.obj
 0001:00129c10       ?ShowErChong@CWuFenCai@@AAEXXZ 0052ac10 f   WuFenCai.obj
 0001:00129cb0       ?ShowSanChong@CWuFenCai@@AAEXXZ 0052acb0 f   WuFenCai.obj
 0001:00129cb0       ?ShowSanChong@CFenFenCai@@AAEXXZ 0052acb0 f   FenFenCai.obj
 0001:00129d50       ?HideDanShiEdit@CWuFenCai@@AAEXXZ 0052ad50 f   WuFenCai.obj
 0001:00129d50       ?HideDanShiEdit@CFenFenCai@@AAEXXZ 0052ad50 f   FenFenCai.obj
 0001:00129d80       ?ShowRenxuanWeiShu@CJiangXiSSC@@AAEXXZ 0052ad80 f   JiangXiSSC.obj
 0001:00129d80       ?ShowRenxuanWeiShu@CWuFenCai@@AAEXXZ 0052ad80 f   WuFenCai.obj
 0001:00129d80       ?ShowRenxuanWeiShu@CFenFenCai@@AAEXXZ 0052ad80 f   FenFenCai.obj
 0001:00129e60       ?CheckWanFaBtn@CWuFenCai@@AAEXAAVCTextButton@@@Z 0052ae60 f   WuFenCai.obj
 0001:00129e60       ?CheckWanFaBtn@CFenFenCai@@AAEXAAVCTextButton@@@Z 0052ae60 f   FenFenCai.obj
 0001:00129f50       ?SendToServer@CWuFenCai@@AAEXH@Z 0052af50 f   WuFenCai.obj
 0001:0012a070       ?GetKjShjDiff@CWuFenCai@@AAEJXZ 0052b070 f   WuFenCai.obj
 0001:0012a0e0       ?DrawLastKjHaoma@CWuFenCai@@AAEXPAVCDC@@AAVGraphics@Gdiplus@@@Z 0052b0e0 f   WuFenCai.obj
 0001:0012a870       ?DrawTopKjHaoma@CWuFenCai@@AAEXPAVCDC@@AAVGraphics@Gdiplus@@@Z 0052b870 f   WuFenCai.obj
 0001:0012ab90       ?DrawBigNum@CJiangXiSSC@@AAEXAAVGraphics@Gdiplus@@PAVBitmap@3@AAVRect@3@H@Z 0052bb90 f   JiangXiSSC.obj
 0001:0012ab90       ?DrawBigNum@CFenFenCai@@AAEXAAVGraphics@Gdiplus@@PAVBitmap@3@AAVRect@3@H@Z 0052bb90 f   FenFenCai.obj
 0001:0012ab90       ?DrawBigNum@CWuFenCai@@AAEXAAVGraphics@Gdiplus@@PAVBitmap@3@AAVRect@3@H@Z 0052bb90 f   WuFenCai.obj
 0001:0012abf0       ?DrawZongZhushuJinE@CWuFenCai@@AAEXPAVCDC@@@Z 0052bbf0 f   WuFenCai.obj
 0001:0012add0       ?ResetAllNums@CWuFenCai@@AAEXXZ 0052bdd0 f   WuFenCai.obj
 0001:0012add0       ?ResetAllNums@CFenFenCai@@AAEXXZ 0052bdd0 f   FenFenCai.obj
 0001:0012b3b0       ?SetLockText@CFenFenCai@@AAEXMM@Z 0052c3b0 f   FenFenCai.obj
 0001:0012b3b0       ?SetLockText@CWuFenCai@@AAEXMM@Z 0052c3b0 f   WuFenCai.obj
 0001:0012b4b0       ?GetDanShiHaoma@CFenFenCai@@AAE_NAAV?$CStringT@_WV?$StrTraitMFC_DLL@_WV?$ChTraitsCRT@_W@ATL@@@@@ATL@@HAAHH@Z 0052c4b0 f   FenFenCai.obj
 0001:0012b4b0       ?GetDanShiHaoma@CWuFenCai@@AAE_NAAV?$CStringT@_WV?$StrTraitMFC_DLL@_WV?$ChTraitsCRT@_W@ATL@@@@@ATL@@HAAHH@Z 0052c4b0 f   WuFenCai.obj
 0001:0012b770       ?InitWanFaMoShi@CWuFenCai@@AAEXXZ 0052c770 f   WuFenCai.obj
 0001:0012bd00       ?OnEventMissionLink@CWuFenCai@@UAE_NHH@Z 0052cd00 f   WuFenCai.obj
 0001:0012d410       ?OnEventMissionRead@CWuFenCai@@UAE_NUTCP_Command@@PAXG@Z 0052e410 f   WuFenCai.obj
 0001:0012de10       ?OnMouseLeave@CFenFenCai@@IAEJIJ@Z 0052ee10 f   FenFenCai.obj
 0001:0012de10       ?OnMouseLeave@CWuFenCai@@IAEJIJ@Z 0052ee10 f   WuFenCai.obj
 0001:0012de40       ?OnBnClickedRioMouseInput@CWuFenCai@@AAEXXZ 0052ee40 f   WuFenCai.obj
 0001:0012e0c0       ?OnBnClickedRioKeyboardInput@CWuFenCai@@AAEXXZ 0052f0c0 f   WuFenCai.obj
 0001:0012e190       ?OnBnClickedBtnLock@CWuFenCai@@AAEXXZ 0052f190 f   WuFenCai.obj
 0001:0012e340       ??_ECWuFenCai@@WHE@AEPAXI@Z 0052f340 f i WuFenCai.obj
 0001:0012e350       ?GetRuntimeClass@CXgfdDlg@@UBEPAUCRuntimeClass@@XZ 0052f350 f   XgfdDlg.obj
 0001:0012e370       ??0CXgfdDlg@@QAE@PAVCWnd@@@Z 0052f370 f   XgfdDlg.obj
 0001:0012e470       ??_GCXgfdDlg@@UAEPAXI@Z    0052f470 f i XgfdDlg.obj
 0001:0012e470       ??_ECXgfdDlg@@UAEPAXI@Z    0052f470 f i XgfdDlg.obj
 0001:0012e4b0       ??1CXgfdDlg@@UAE@XZ        0052f4b0 f   XgfdDlg.obj
 0001:0012e570       ?DoDataExchange@CXgfdDlg@@MAEXPAVCDataExchange@@@Z 0052f570 f   XgfdDlg.obj
 0001:0012e5f0       ?GetMessageMap@CXgfdDlg@@MBEPBUAFX_MSGMAP@@XZ 0052f5f0 f   XgfdDlg.obj
 0001:0012e610       ?GetThisMessageMap@CXgfdDlg@@KGPBUAFX_MSGMAP@@XZ 0052f610 f   XgfdDlg.obj
 0001:0012e630       ?OnPaint@CXgfdDlg@@IAEXXZ  0052f630 f   XgfdDlg.obj
 0001:0012e8d0       ?OnSize@CXgfdDlg@@IAEXIHH@Z 0052f8d0 f   XgfdDlg.obj
 0001:0012e9a0       ?OnInitDialog@CXgfdDlg@@MAEHXZ 0052f9a0 f   XgfdDlg.obj
 0001:0012eb80       ?OnOK@CXgfdDlg@@MAEXXZ     0052fb80 f   XgfdDlg.obj
 0001:0012ec00       ?OnBnClickedOk@CXgfdDlg@@QAEXXZ 0052fc00 f   XgfdDlg.obj
 0001:0012ec00       ?OnBnClickedBtnClose@CMessageDlg@@IAEXXZ 0052fc00 f   MessageDlg.obj
 0001:0012ec30       ?InitFanDianCmb@CXgfdDlg@@AAEXXZ 0052fc30 f   XgfdDlg.obj
 0001:0012ed30       ?GetRuntimeClass@CXinJiangSSC@@UBEPAUCRuntimeClass@@XZ 0052fd30 f   XinJiangSSC.obj
 0001:0012ed50       ??0CXinJiangSSC@@QAE@PAVCWnd@@@Z 0052fd50 f   XinJiangSSC.obj
 0001:0012ff50       ??_GCXinJiangSSC@@UAEPAXI@Z 00530f50 f i XinJiangSSC.obj
 0001:0012ff50       ??_ECXinJiangSSC@@UAEPAXI@Z 00530f50 f i XinJiangSSC.obj
 0001:0012ff90       ??1CXinJiangSSC@@UAE@XZ    00530f90 f   XinJiangSSC.obj
 0001:001311a0       ?SetState@CGridDefaultCell@@UAEXK@Z 005321a0 f   GridCell.obj
 0001:001311a0       ?OnGameItemUpdate@CPlatformFrame@@UAEXPAVCGameListItem@@@Z 005321a0 f   PlatformFrame.obj
 0001:001311a0       ?OnGameItemDelete@CPlatformFrame@@UAEXPAVCGameListItem@@@Z 005321a0 f   PlatformFrame.obj
 0001:001311a0       ?OnUserFaceUpdate@CServerViewItem@@UAEXPAUIClientUserItem@@@Z 005321a0 f   ServerViewItem.obj
 0001:001311a0       ?DoDataExchange@CWnd@@MAEXPAVCDataExchange@@@Z 005321a0 f   ChongQing11X5.obj
 0001:001311a0       ?Serialize@CObject@@UAEXAAVCArchive@@@Z 005321a0 f   ChongQing11X5.obj
 0001:001311a0       ?SetData@CGridDefaultCell@@UAEXJ@Z 005321a0 f   GridCell.obj
 0001:001311a0       ?OnDButtonHitTable@CServerViewItem@@UAEXG@Z 005321a0 f   ServerViewItem.obj
 0001:001311a0       ?OnGameKindFinish@CPlatformFrame@@UAEXG@Z 005321a0 f   PlatformFrame.obj
 0001:001311a0       ?Dump@CObject@@UBEXAAVCDumpContext@@@Z 005321a0 f   ChongQing11X5.obj
 0001:001311a0       ?ConnectMainDlg@CXinJiangSSC@@QAEXPAVCPlazaViewItem@@@Z 005321a0 f   XinJiangSSC.obj
 0001:001311c0       ?DoDataExchange@CXinJiangSSC@@MAEXPAVCDataExchange@@@Z 005321c0 f   XinJiangSSC.obj
 0001:00132580       ?GetMessageMap@CXinJiangSSC@@MBEPBUAFX_MSGMAP@@XZ 00533580 f   XinJiangSSC.obj
 0001:001325a0       ?GetThisMessageMap@CXinJiangSSC@@KGPBUAFX_MSGMAP@@XZ 005335a0 f   XinJiangSSC.obj
 0001:001325c0       ?OnPaint@CXinJiangSSC@@IAEXXZ 005335c0 f   XinJiangSSC.obj
 0001:001327e0       ?OnSize@CXinJiangSSC@@IAEXIHH@Z 005337e0 f   XinJiangSSC.obj
 0001:00132850       ?OnShowWindow@CXinJiangSSC@@IAEXHI@Z 00533850 f   XinJiangSSC.obj
 0001:00132920       ?OnCtlColor@CJiangXi11X5@@IAEPAUHBRUSH__@@PAVCDC@@PAVCWnd@@I@Z 00533920 f   JiangXi11X5.obj
 0001:00132920       ?OnCtlColor@CChongQing11X5@@IAEPAUHBRUSH__@@PAVCDC@@PAVCWnd@@I@Z 00533920 f   ChongQing11X5.obj
 0001:00132920       ?OnCtlColor@CShanDong11X5@@IAEPAUHBRUSH__@@PAVCDC@@PAVCWnd@@I@Z 00533920 f   ShanDong11X5.obj
 0001:00132920       ?OnCtlColor@CFenFenCai@@IAEPAUHBRUSH__@@PAVCDC@@PAVCWnd@@I@Z 00533920 f   FenFenCai.obj
 0001:00132920       ?OnCtlColor@CJiangXiSSC@@IAEPAUHBRUSH__@@PAVCDC@@PAVCWnd@@I@Z 00533920 f   JiangXiSSC.obj
 0001:00132920       ?OnCtlColor@CChongQingSSC@@IAEPAUHBRUSH__@@PAVCDC@@PAVCWnd@@I@Z 00533920 f   ChongQingSSC.obj
 0001:00132920       ?OnCtlColor@CXinJiangSSC@@IAEPAUHBRUSH__@@PAVCDC@@PAVCWnd@@I@Z 00533920 f   XinJiangSSC.obj
 0001:00132920       ?OnCtlColor@CWuFenCai@@IAEPAUHBRUSH__@@PAVCDC@@PAVCWnd@@I@Z 00533920 f   WuFenCai.obj
 0001:00132920       ?OnCtlColor@CGuangDong11X5@@IAEPAUHBRUSH__@@PAVCDC@@PAVCWnd@@I@Z 00533920 f   GuangDong11X5.obj
 0001:00132ae0       ?OnTimer@CXinJiangSSC@@IAEXI@Z 00533ae0 f   XinJiangSSC.obj
 0001:00132da0       ?OnBnClickedBtnHszhx@CXinJiangSSC@@IAEXXZ 00533da0 f   XinJiangSSC.obj
 0001:00132e10       ?OnBnClickedBtnHszx@CXinJiangSSC@@IAEXXZ 00533e10 f   XinJiangSSC.obj
 0001:00132e70       ?OnBnClickedRioYffs@CXinJiangSSC@@IAEXXZ 00533e70 f   XinJiangSSC.obj
 0001:00132f40       ?OnBnClickedRioHscs@CXinJiangSSC@@IAEXXZ 00533f40 f   XinJiangSSC.obj
 0001:00133010       ?OnBnClickedRioSxbx@CXinJiangSSC@@IAEXXZ 00534010 f   XinJiangSSC.obj
 0001:001330e0       ?OnBnClickedRioSjfc@CXinJiangSSC@@IAEXXZ 005340e0 f   XinJiangSSC.obj
 0001:001331b0       ?OnBnClickedRioQsHezhi@CXinJiangSSC@@AAEXXZ 005341b0 f   XinJiangSSC.obj
 0001:00133260       ?OnBnClickedRioHsHezhi@CXinJiangSSC@@AAEXXZ 00534260 f   XinJiangSSC.obj
 0001:00133310       ?OnBnClickedBtnWxhe@CXinJiangSSC@@IAEXXZ 00534310 f   XinJiangSSC.obj
 0001:001333c0       ?OnBnClickedBtnHezx@CXinJiangSSC@@IAEXXZ 005343c0 f   XinJiangSSC.obj
 0001:00133440       ?OnBnClickedBtnDxdsh@CXinJiangSSC@@IAEXXZ 00534440 f   XinJiangSSC.obj
 0001:001334a0       ?OnBnClickedBtnBdw@CXinJiangSSC@@IAEXXZ 005344a0 f   XinJiangSSC.obj
 0001:00133520       ?OnBnClickedBtnQszhx@CXinJiangSSC@@IAEXXZ 00534520 f   XinJiangSSC.obj
 0001:001335a0       ?OnBnClickedBtnQszx@CXinJiangSSC@@IAEXXZ 005345a0 f   XinJiangSSC.obj
 0001:00133610       ?OnBnClickedBtnWxqe@CXinJiangSSC@@IAEXXZ 00534610 f   XinJiangSSC.obj
 0001:00133690       ?OnBnClickedBtnQezx@CXinJiangSSC@@IAEXXZ 00534690 f   XinJiangSSC.obj
 0001:00133710       ?OnBnClickedBtnHszhxhzh@CXinJiangSSC@@IAEXXZ 00534710 f   XinJiangSSC.obj
 0001:00133790       ?OnBnClickedBtnDwd@CXinJiangSSC@@IAEXXZ 00534790 f   XinJiangSSC.obj
 0001:001337f0       ?OnInitDialog@CXinJiangSSC@@MAEHXZ 005347f0 f   XinJiangSSC.obj
 0001:001344a0       ?OnBnClickedBtnWanQuan@CXinJiangSSC@@IAEXXZ 005354a0 f   XinJiangSSC.obj
 0001:00134560       ?OnBnClickedBtnWanDa@CXinJiangSSC@@IAEXXZ 00535560 f   XinJiangSSC.obj
 0001:00134620       ?OnBnClickedBtnWanXiao@CXinJiangSSC@@IAEXXZ 00535620 f   XinJiangSSC.obj
 0001:001346e0       ?OnBnClickedBtnWanDan@CXinJiangSSC@@IAEXXZ 005356e0 f   XinJiangSSC.obj
 0001:001347a0       ?OnBnClickedBtnWanShuang@CXinJiangSSC@@IAEXXZ 005357a0 f   XinJiangSSC.obj
 0001:00134860       ?OnBnClickedBtnWanQing@CXinJiangSSC@@IAEXXZ 00535860 f   XinJiangSSC.obj
 0001:00134920       ?OnBnClickedBtnQianQuan@CXinJiangSSC@@IAEXXZ 00535920 f   XinJiangSSC.obj
 0001:001349e0       ?OnBnClickedBtnQianDa@CXinJiangSSC@@IAEXXZ 005359e0 f   XinJiangSSC.obj
 0001:00134aa0       ?OnBnClickedBtnQianXiao@CXinJiangSSC@@IAEXXZ 00535aa0 f   XinJiangSSC.obj
 0001:00134b60       ?OnBnClickedBtnQianDan@CXinJiangSSC@@IAEXXZ 00535b60 f   XinJiangSSC.obj
 0001:00134c20       ?OnBnClickedBtnQianShuang@CXinJiangSSC@@IAEXXZ 00535c20 f   XinJiangSSC.obj
 0001:00134ce0       ?OnBnClickedBtnQianQing@CXinJiangSSC@@IAEXXZ 00535ce0 f   XinJiangSSC.obj
 0001:00134da0       ?OnBnClickedBtnBaiQuan@CXinJiangSSC@@IAEXXZ 00535da0 f   XinJiangSSC.obj
 0001:00134e60       ?OnBnClickedBtnBaiDa@CXinJiangSSC@@IAEXXZ 00535e60 f   XinJiangSSC.obj
 0001:00134f20       ?OnBnClickedBtnBaiXiao@CXinJiangSSC@@IAEXXZ 00535f20 f   XinJiangSSC.obj
 0001:00134fe0       ?OnBnClickedBtnBaiDan@CXinJiangSSC@@IAEXXZ 00535fe0 f   XinJiangSSC.obj
 0001:001350a0       ?OnBnClickedBtnBaiShuang@CXinJiangSSC@@IAEXXZ 005360a0 f   XinJiangSSC.obj
 0001:00135160       ?OnBnClickedBtnBaiQing@CXinJiangSSC@@IAEXXZ 00536160 f   XinJiangSSC.obj
 0001:00135220       ?OnBnClickedBtnShiQuan@CXinJiangSSC@@IAEXXZ 00536220 f   XinJiangSSC.obj
 0001:001352e0       ?OnBnClickedBtnShiDa@CXinJiangSSC@@IAEXXZ 005362e0 f   XinJiangSSC.obj
 0001:001353a0       ?OnBnClickedBtnShiXiao@CXinJiangSSC@@IAEXXZ 005363a0 f   XinJiangSSC.obj
 0001:00135460       ?OnBnClickedBtnShiDan@CXinJiangSSC@@IAEXXZ 00536460 f   XinJiangSSC.obj
 0001:00135520       ?OnBnClickedBtnShiShuang@CXinJiangSSC@@IAEXXZ 00536520 f   XinJiangSSC.obj
 0001:001355e0       ?OnBnClickedBtnShiQing@CXinJiangSSC@@IAEXXZ 005365e0 f   XinJiangSSC.obj
 0001:001356a0       ?OnBnClickedBtnGeQuan@CXinJiangSSC@@IAEXXZ 005366a0 f   XinJiangSSC.obj
 0001:00135760       ?OnBnClickedBtnGeDa@CXinJiangSSC@@IAEXXZ 00536760 f   XinJiangSSC.obj
 0001:00135820       ?OnBnClickedBtnGeXiao@CXinJiangSSC@@IAEXXZ 00536820 f   XinJiangSSC.obj
 0001:001358e0       ?OnBnClickedBtnGeDan@CXinJiangSSC@@IAEXXZ 005368e0 f   XinJiangSSC.obj
 0001:001359a0       ?OnBnClickedBtnGeShuang@CXinJiangSSC@@IAEXXZ 005369a0 f   XinJiangSSC.obj
 0001:00135a60       ?OnBnClickedBtnGeQing@CXinJiangSSC@@IAEXXZ 00536a60 f   XinJiangSSC.obj
 0001:00135b20       ?OnBnClickedBtnXjAdd@CXinJiangSSC@@IAEXXZ 00536b20 f   XinJiangSSC.obj
 0001:001417a0       ?GetHezhiString@CXinJiangSSC@@QAE?AV?$CStringT@_WV?$StrTraitMFC_DLL@_WV?$ChTraitsCRT@_W@ATL@@@@@ATL@@XZ 005427a0 f   XinJiangSSC.obj
 0001:00141c50       ?InitNumberBtns@CXinJiangSSC@@AAEXXZ 00542c50 f   XinJiangSSC.obj
 0001:00142a80       ?InitListCtrl@CXinJiangSSC@@AAEXXZ 00543a80 f   XinJiangSSC.obj
 0001:00142b20       ?OnBnClickedBtnQw@CXinJiangSSC@@IAEXXZ 00543b20 f   XinJiangSSC.obj
 0001:00142ba0       ?OnBnClickedRioWuXingZhx@CXinJiangSSC@@AAEXXZ 00543ba0 f   XinJiangSSC.obj
 0001:00142cc0       ?OnBnClickedRioWuXingQs@CXinJiangSSC@@AAEXXZ 00543cc0 f   XinJiangSSC.obj
 0001:00142d90       ?OnBnClickedRioWuXingHS@CXinJiangSSC@@AAEXXZ 00543d90 f   XinJiangSSC.obj
 0001:00142e60       ?OnBnClickedRioWuXingZS@CXinJiangSSC@@AAEXXZ 00543e60 f   XinJiangSSC.obj
 0001:00142f40       ?OnBnClickedRioHszhxFushi@CXinJiangSSC@@IAEXXZ 00543f40 f   XinJiangSSC.obj
 0001:00143040       ?OnBnClickedRioHszhxDanshi@CXinJiangSSC@@IAEXXZ 00544040 f   XinJiangSSC.obj
 0001:00143140       ?OnBnClickedRioQszhxFushi@CXinJiangSSC@@IAEXXZ 00544140 f   XinJiangSSC.obj
 0001:00143220       ?OnBnClickedRioQszhxDanshi@CXinJiangSSC@@IAEXXZ 00544220 f   XinJiangSSC.obj
 0001:00143320       ?OnBnClickedRioRenXuan2@CXinJiangSSC@@IAEXXZ 00544320 f   XinJiangSSC.obj
 0001:00143410       ?OnBnClickedRioRenXuan3@CXinJiangSSC@@IAEXXZ 00544410 f   XinJiangSSC.obj
 0001:00143500       ?OnBnClickedRioRenXuan4@CXinJiangSSC@@IAEXXZ 00544500 f   XinJiangSSC.obj
 0001:001435f0       ?OnBnClickedRioHszsFushi@CXinJiangSSC@@IAEXXZ 005445f0 f   XinJiangSSC.obj
 0001:00143700       ?OnBnClickedRioHszsDanshi@CXinJiangSSC@@IAEXXZ 00544700 f   XinJiangSSC.obj
 0001:001437a0       ?OnBnClickedRioHszlFushi@CXinJiangSSC@@IAEXXZ 005447a0 f   XinJiangSSC.obj
 0001:001438b0       ?OnBnClickedRioZszlFushi@CXinJiangSSC@@QAEXXZ 005448b0 f   XinJiangSSC.obj
 0001:001439c0       ?OnBnClickedRioZszsFushi@CXinJiangSSC@@QAEXXZ 005449c0 f   XinJiangSSC.obj
 0001:00143ad0       ?OnBnClickedRioZuXuan120@CXinJiangSSC@@QAEXXZ 00544ad0 f   XinJiangSSC.obj
 0001:00143bf0       ?OnBnClickedRioZuXuan60@CXinJiangSSC@@QAEXXZ 00544bf0 f   XinJiangSSC.obj
 0001:00143d20       ?OnBnClickedRioZuXuan30@CXinJiangSSC@@QAEXXZ 00544d20 f   XinJiangSSC.obj
 0001:00143e50       ?OnBnClickedRioZuXuan20@CXinJiangSSC@@QAEXXZ 00544e50 f   XinJiangSSC.obj
 0001:00143f80       ?OnBnClickedRioZuXuan10@CXinJiangSSC@@QAEXXZ 00544f80 f   XinJiangSSC.obj
 0001:001440b0       ?OnBnClickedRioZuXuan5@CXinJiangSSC@@QAEXXZ 005450b0 f   XinJiangSSC.obj
 0001:001441e0       ?OnBnClickedRioHszlDanshi@CXinJiangSSC@@IAEXXZ 005451e0 f   XinJiangSSC.obj
 0001:00144280       ?OnBnClickedRioQszsFushi@CXinJiangSSC@@IAEXXZ 00545280 f   XinJiangSSC.obj
 0001:00144390       ?OnBnClickedRioQszsDanshi@CXinJiangSSC@@IAEXXZ 00545390 f   XinJiangSSC.obj
 0001:00144430       ?OnBnClickedRioQszlFushi@CXinJiangSSC@@IAEXXZ 00545430 f   XinJiangSSC.obj
 0001:00144540       ?OnBnClickedRioQszlDanshi@CXinJiangSSC@@IAEXXZ 00545540 f   XinJiangSSC.obj
 0001:001445e0       ?OnBnClickedRioHezhxFushi@CXinJiangSSC@@IAEXXZ 005455e0 f   XinJiangSSC.obj
 0001:001446a0       ?OnBnClickedRioHezhxDanshi@CXinJiangSSC@@IAEXXZ 005456a0 f   XinJiangSSC.obj
 0001:00144760       ?OnBnClickedRioHezxFushi@CXinJiangSSC@@IAEXXZ 00545760 f   XinJiangSSC.obj
 0001:00144830       ?OnBnClickedRioHezxDanshi@CXinJiangSSC@@IAEXXZ 00545830 f   XinJiangSSC.obj
 0001:001448f0       ?OnBnClickedRioQezhxFushi@CXinJiangSSC@@IAEXXZ 005458f0 f   XinJiangSSC.obj
 0001:001449b0       ?OnBnClickedRioQezhxDanshi@CXinJiangSSC@@IAEXXZ 005459b0 f   XinJiangSSC.obj
 0001:00144a70       ?OnBnClickedRioQezxFushi@CXinJiangSSC@@IAEXXZ 00545a70 f   XinJiangSSC.obj
 0001:00144b40       ?OnBnClickedRioQezxDanshi@CXinJiangSSC@@IAEXXZ 00545b40 f   XinJiangSSC.obj
 0001:00144c00       ?OnBnClickedRioDxdsh@CXinJiangSSC@@IAEXXZ 00545c00 f   XinJiangSSC.obj
 0001:00144c90       ?OnBnClickedRioQsbdw@CXinJiangSSC@@IAEXXZ 00545c90 f   XinJiangSSC.obj
 0001:00144d60       ?OnBnClickedRioHsbdw@CXinJiangSSC@@IAEXXZ 00545d60 f   XinJiangSSC.obj
 0001:00144e30       ?OnBnClickedRioHebdw@CXinJiangSSC@@IAEXXZ 00545e30 f   XinJiangSSC.obj
 0001:00144f00       ?OnBnClickedRioQebdw@CXinJiangSSC@@IAEXXZ 00545f00 f   XinJiangSSC.obj
 0001:00144fd0       ?OnBnClickedRioQsHunhe@CXinJiangSSC@@IAEXXZ 00545fd0 f   XinJiangSSC.obj
 0001:00145080       ?OnBnClickedRioZsHunhe@CXinJiangSSC@@IAEXXZ 00546080 f   XinJiangSSC.obj
 0001:00145130       ?OnBnClickedRioHsHunhe@CXinJiangSSC@@IAEXXZ 00546130 f   XinJiangSSC.obj
 0001:001451e0       ?OnBnClickedRioDwd@CXinJiangSSC@@IAEXXZ 005461e0 f   XinJiangSSC.obj
 0001:00145270       ?OnBnClickedBtnZhuihao@CXinJiangSSC@@QAEXXZ 00546270 f   XinJiangSSC.obj
 0001:00145630       ?CheckInput@CXinJiangSSC@@QAE_NXZ 00546630 f   XinJiangSSC.obj
 0001:00145f60       ?OnBnClickedBtnTouzhu@CXinJiangSSC@@QAEXXZ 00546f60 f   XinJiangSSC.obj
 0001:001460c0       ?OnBnClickedBtnDelSel@CXinJiangSSC@@IAEXXZ 005470c0 f   XinJiangSSC.obj
 0001:001461e0       ?OnBnClickedBtnClsList@CXinJiangSSC@@QAEXXZ 005471e0 f   XinJiangSSC.obj
 0001:00146290       ?OnEnChangeEditDanshiInput@CXinJiangSSC@@QAEXXZ 00547290 f   XinJiangSSC.obj
 0001:001462c0       ?OnEnChangeEditBeishu@CXinJiangSSC@@QAEXXZ 005472c0 f   XinJiangSSC.obj
 0001:00146470       ?HideCtrl@CWuFenCai@@AAEXH@Z 00547470 f   WuFenCai.obj
 0001:00146470       ?HideCtrl@CShanDong11X5@@AAEXH@Z 00547470 f   ShanDong11X5.obj
 0001:00146470       ?HideCtrl@CJiangXiSSC@@AAEXH@Z 00547470 f   JiangXiSSC.obj
 0001:00146470       ?HideCtrl@CChongQingSSC@@AAEXH@Z 00547470 f   ChongQingSSC.obj
 0001:00146470       ?HideCtrl@CChongQing11X5@@AAEXH@Z 00547470 f   ChongQing11X5.obj
 0001:00146470       ?HideCtrl@CFenFenCai@@AAEXH@Z 00547470 f   FenFenCai.obj
 0001:00146470       ?HideCtrl@CJiangXi11X5@@AAEXH@Z 00547470 f   JiangXi11X5.obj
 0001:00146470       ?HideCtrl@CXinJiangSSC@@AAEXH@Z 00547470 f   XinJiangSSC.obj
 0001:00146470       ?HideCtrl@CGuangDong11X5@@AAEXH@Z 00547470 f   GuangDong11X5.obj
 0001:001464b0       ?HideAllRio@CXinJiangSSC@@AAEXXZ 005474b0 f   XinJiangSSC.obj
 0001:001467d0       ?GetWanString@CXinJiangSSC@@AAE?AV?$CStringT@_WV?$StrTraitMFC_DLL@_WV?$ChTraitsCRT@_W@ATL@@@@@ATL@@XZ 005477d0 f   XinJiangSSC.obj
 0001:001469d0       ?GetQianString@CXinJiangSSC@@AAE?AV?$CStringT@_WV?$StrTraitMFC_DLL@_WV?$ChTraitsCRT@_W@ATL@@@@@ATL@@XZ 005479d0 f   XinJiangSSC.obj
 0001:00146bd0       ?GetBaiString@CXinJiangSSC@@AAE?AV?$CStringT@_WV?$StrTraitMFC_DLL@_WV?$ChTraitsCRT@_W@ATL@@@@@ATL@@XZ 00547bd0 f   XinJiangSSC.obj
 0001:00146dd0       ?GetShiString@CXinJiangSSC@@AAE?AV?$CStringT@_WV?$StrTraitMFC_DLL@_WV?$ChTraitsCRT@_W@ATL@@@@@ATL@@XZ 00547dd0 f   XinJiangSSC.obj
 0001:00146fd0       ?GetGeString@CXinJiangSSC@@AAE?AV?$CStringT@_WV?$StrTraitMFC_DLL@_WV?$ChTraitsCRT@_W@ATL@@@@@ATL@@XZ 00547fd0 f   XinJiangSSC.obj
 0001:001471d0       ?GetShiDxdshString@CXinJiangSSC@@AAE?AV?$CStringT@_WV?$StrTraitMFC_DLL@_WV?$ChTraitsCRT@_W@ATL@@@@@ATL@@XZ 005481d0 f   XinJiangSSC.obj
 0001:001472f0       ?GetGeDxdshString@CXinJiangSSC@@AAE?AV?$CStringT@_WV?$StrTraitMFC_DLL@_WV?$ChTraitsCRT@_W@ATL@@@@@ATL@@XZ 005482f0 f   XinJiangSSC.obj
 0001:00147410       ?GetWanDesc@CXinJiangSSC@@AAE?AV?$CStringT@_WV?$StrTraitMFC_DLL@_WV?$ChTraitsCRT@_W@ATL@@@@@ATL@@XZ 00548410 f   XinJiangSSC.obj
 0001:00147460       ?AdjustWanFa@CXinJiangSSC@@AAEXXZ 00548460 f   XinJiangSSC.obj
 0001:00147850       ?AdjustRadio@CXinJiangSSC@@AAEXXZ 00548850 f   XinJiangSSC.obj
 0001:00148230       ?AdjustNumBtn@CXinJiangSSC@@AAEXXZ 00549230 f   XinJiangSSC.obj
 0001:0014a8a0       ?AdjustNumView@CXinJiangSSC@@AAEXXZ 0054b8a0 f   XinJiangSSC.obj
 0001:0014aa50       ?AdjustDanShi@CXinJiangSSC@@AAEXXZ 0054ba50 f   XinJiangSSC.obj
 0001:0014ab80       ?AdjustAdd@CXinJiangSSC@@AAEXXZ 0054bb80 f   XinJiangSSC.obj
 0001:0014ac30       ?HideHeZhiNums@CXinJiangSSC@@AAEXXZ 0054bc30 f   XinJiangSSC.obj
 0001:0014ae10       ?ShowHeZhiNums@CXinJiangSSC@@AAEXXZ 0054be10 f   XinJiangSSC.obj
 0001:0014aff0       ?HideWanNums@CXinJiangSSC@@AAEXXZ 0054bff0 f   XinJiangSSC.obj
 0001:0014b120       ?HideQianNums@CXinJiangSSC@@AAEXXZ 0054c120 f   XinJiangSSC.obj
 0001:0014b250       ?HideBaiNums@CXinJiangSSC@@AAEXXZ 0054c250 f   XinJiangSSC.obj
 0001:0014b400       ?HideShiNums@CXinJiangSSC@@AAEXXZ 0054c400 f   XinJiangSSC.obj
 0001:0014b540       ?HideGeNums@CXinJiangSSC@@AAEXXZ 0054c540 f   XinJiangSSC.obj
 0001:0014b670       ?ShowWanNums@CXinJiangSSC@@AAEXXZ 0054c670 f   XinJiangSSC.obj
 0001:0014b7a0       ?ShowQianNums@CXinJiangSSC@@AAEXXZ 0054c7a0 f   XinJiangSSC.obj
 0001:0014b8d0       ?ShowBaiNums@CXinJiangSSC@@AAEXXZ 0054c8d0 f   XinJiangSSC.obj
 0001:0014ba80       ?ShowShiNums@CXinJiangSSC@@AAEXXZ 0054ca80 f   XinJiangSSC.obj
 0001:0014bbd0       ?ShowGeNums@CXinJiangSSC@@AAEXXZ 0054cbd0 f   XinJiangSSC.obj
 0001:0014bd00       ?ShowZuXuan@CXinJiangSSC@@AAEXXZ 0054cd00 f   XinJiangSSC.obj
 0001:0014bda0       ?ShowDanHao@CXinJiangSSC@@AAEXXZ 0054cda0 f   XinJiangSSC.obj
 0001:0014bdf0       ?ShowErChong1@CXinJiangSSC@@AAEXXZ 0054cdf0 f   XinJiangSSC.obj
 0001:0014be40       ?ShowXuanHao@CXinJiangSSC@@AAEXXZ 0054ce40 f   XinJiangSSC.obj
 0001:0014bee0       ?ShowZu120@CXinJiangSSC@@AAEXXZ 0054cee0 f   XinJiangSSC.obj
 0001:0014bf80       ?ShowErChong@CXinJiangSSC@@AAEXXZ 0054cf80 f   XinJiangSSC.obj
 0001:0014c020       ?ShowSanChong@CXinJiangSSC@@AAEXXZ 0054d020 f   XinJiangSSC.obj
 0001:0014c0c0       ?ShowSiChong@CXinJiangSSC@@AAEXXZ 0054d0c0 f   XinJiangSSC.obj
 0001:0014c160       ?ShowBuDingWei@CXinJiangSSC@@AAEXXZ 0054d160 f   XinJiangSSC.obj
 0001:0014c200       ?ShowDaXiaoDanShuang@CXinJiangSSC@@AAEXXZ 0054d200 f   XinJiangSSC.obj
 0001:0014c2c0       ?HideDaXiaoDanShuang@CXinJiangSSC@@AAEXXZ 0054d2c0 f   XinJiangSSC.obj
 0001:0014c360       ?HideDanShiEdit@CXinJiangSSC@@AAEXXZ 0054d360 f   XinJiangSSC.obj
 0001:0014c390       ?ShowDanShiEdit@CXinJiangSSC@@AAEXXZ 0054d390 f   XinJiangSSC.obj
 0001:0014c3c0       ?ShowRenxuanWeiShu@CXinJiangSSC@@AAEXXZ 0054d3c0 f   XinJiangSSC.obj
 0001:0014c4a0       ?HideRenxuanWeiShu@CXinJiangSSC@@AAEXXZ 0054d4a0 f   XinJiangSSC.obj
 0001:0014c580       ?CheckWanFaBtn@CXinJiangSSC@@AAEXAAVCTextButton@@@Z 0054d580 f   XinJiangSSC.obj
 0001:0014c670       ?LuckyNumXJSSC@CXinJiangSSC@@AAE_NXZ 0054d670 f   XinJiangSSC.obj
 0001:0014ce00       ?GetKjShjDiff@CXinJiangSSC@@AAEJXZ 0054de00 f   XinJiangSSC.obj
 0001:0014ce50       ?DrawLastKjHaoma@CXinJiangSSC@@AAEXPAVCDC@@AAVGraphics@Gdiplus@@@Z 0054de50 f   XinJiangSSC.obj
 0001:0014d580       ?DrawTopKjHaoma@CXinJiangSSC@@AAEXPAVCDC@@AAVGraphics@Gdiplus@@@Z 0054e580 f   XinJiangSSC.obj
 0001:0014d840       ?DrawBigNum@CXinJiangSSC@@AAEXAAVGraphics@Gdiplus@@PAVBitmap@3@AAVRect@3@H@Z 0054e840 f   XinJiangSSC.obj
 0001:0014d8a0       ?DrawSmallNum@CXinJiangSSC@@AAEXAAVGraphics@Gdiplus@@PAVBitmap@3@AAVRect@3@H@Z 0054e8a0 f   XinJiangSSC.obj
 0001:0014d900       ?DrawZongZhushuJinE@CXinJiangSSC@@AAEXPAVCDC@@@Z 0054e900 f   XinJiangSSC.obj
 0001:0014dae0       ?ResetAllNums@CXinJiangSSC@@AAEXXZ 0054eae0 f   XinJiangSSC.obj
 0001:0014dee0       ?SetLockText@CXinJiangSSC@@AAEXMM@Z 0054eee0 f   XinJiangSSC.obj
 0001:0014dfe0       ?GetZuSanHaoma@CXinJiangSSC@@AAE_NAAVCStringArray@@@Z 0054efe0 f   XinJiangSSC.obj
 0001:0014e180       ?GetZuSanHaoma@CXinJiangSSC@@AAE_NAAV?$CStringT@_WV?$StrTraitMFC_DLL@_WV?$ChTraitsCRT@_W@ATL@@@@@ATL@@AAH@Z 0054f180 f   XinJiangSSC.obj
 0001:0014e280       ?GetDanShiHaoma@CXinJiangSSC@@AAE_NAAV?$CStringT@_WV?$StrTraitMFC_DLL@_WV?$ChTraitsCRT@_W@ATL@@@@@ATL@@HAAHH@Z 0054f280 f   XinJiangSSC.obj
 0001:0014e550       ?GetHaomaStrs@CXinJiangSSC@@AAE_NAAVCStringArray@@V?$CStringT@_WV?$StrTraitMFC_DLL@_WV?$ChTraitsCRT@_W@ATL@@@@@ATL@@H@Z 0054f550 f   XinJiangSSC.obj
 0001:0014e8a0       ?InitWanFaMoShi@CXinJiangSSC@@AAEXXZ 0054f8a0 f   XinJiangSSC.obj
 0001:0014ee30       ?OnBnClickedRioMouseInput@CXinJiangSSC@@AAEXXZ 0054fe30 f   XinJiangSSC.obj
 0001:0014f010       ?OnBnClickedRioKeyboardInput@CXinJiangSSC@@AAEXXZ 00550010 f   XinJiangSSC.obj
 0001:0014f0e0       ?SetCheckRenXuan@CXinJiangSSC@@AAEX_N@Z 005500e0 f   XinJiangSSC.obj
 0001:0014f1b0       ?OnBnClickedChkBai@CXinJiangSSC@@AAEXXZ 005501b0 f   XinJiangSSC.obj
 0001:0014f1b0       ?OnBnClickedChkQian@CXinJiangSSC@@AAEXXZ 005501b0 f   XinJiangSSC.obj
 0001:0014f1b0       ?OnBnClickedChkShi@CXinJiangSSC@@AAEXXZ 005501b0 f   XinJiangSSC.obj
 0001:0014f1b0       ?OnBnClickedChkge@CXinJiangSSC@@AAEXXZ 005501b0 f   XinJiangSSC.obj
 0001:0014f1b0       ?OnBnClickedChkWan@CXinJiangSSC@@AAEXXZ 005501b0 f   XinJiangSSC.obj
 0001:0014f1d0       ?ValidateTips@CXinJiangSSC@@AAEXXZ 005501d0 f   XinJiangSSC.obj
 0001:0014f4b0       ?OnBnClickedBtnLock@CXinJiangSSC@@AAEXXZ 005504b0 f   XinJiangSSC.obj
 0001:0014f5d0       ?SendToServer@CXinJiangSSC@@QAEXH@Z 005505d0 f   XinJiangSSC.obj
 0001:0014f790       ?OnEventMissionLink@CXinJiangSSC@@UAE_NHH@Z 00550790 f   XinJiangSSC.obj
 0001:00150e40       ?OnEventMissionShut@CXinJiangSSC@@UAE_NE@Z 00551e40 f   XinJiangSSC.obj
 0001:00150f70       ?OnEventMissionRead@CXinJiangSSC@@UAE_NUTCP_Command@@PAXG@Z 00551f70 f   XinJiangSSC.obj
 0001:001518b0       ?GetKeyBoardHaoma@CXinJiangSSC@@AAE_NAAV?$CStringT@_WV?$StrTraitMFC_DLL@_WV?$ChTraitsCRT@_W@ATL@@@@@ATL@@HH@Z 005528b0 f   XinJiangSSC.obj
 0001:00151ba0       ?GetKeyHaomaStrs@CXinJiangSSC@@AAE_NAAVCStringArray@@V?$CStringT@_WV?$StrTraitMFC_DLL@_WV?$ChTraitsCRT@_W@ATL@@@@@ATL@@HH@Z 00552ba0 f   XinJiangSSC.obj
 0001:00152e00       ?AfxGetApp@@YGPAVCWinApp@@XZ 00553e00 f i XinJiangSSC.obj
 0001:00152e20       ??_ECXinJiangSSC@@WHE@AEPAXI@Z 00553e20 f i XinJiangSSC.obj
 0001:00152e30       ??0_bstr_t@@QAE@PBD@Z      00553e30 f i XinJiangSSC.obj
 0001:00152ed0       ??1_bstr_t@@QAE@XZ         00553ed0 f i XinJiangSSC.obj
 0001:00152ef0       ??H@YA?AV_bstr_t@@PB_WABV0@@Z 00553ef0 f i XinJiangSSC.obj
 0001:00152f80       ??0_bstr_t@@QAE@ABV0@@Z    00553f80 f i XinJiangSSC.obj
 0001:00152fb0       ??0_bstr_t@@QAE@PB_W@Z     00553fb0 f i XinJiangSSC.obj
 0001:00153050       ??Y_bstr_t@@QAEAAV0@ABV0@@Z 00554050 f i XinJiangSSC.obj
 0001:00153100       ??B_bstr_t@@QBEPB_WXZ      00554100 f i XinJiangSSC.obj
 0001:00153140       ?_AddRef@_bstr_t@@AAEXXZ   00554140 f i XinJiangSSC.obj
 0001:00153170       ?_Free@_bstr_t@@AAEXXZ     00554170 f i XinJiangSSC.obj
 0001:001531a0       ??0Data_t@_bstr_t@@QAE@PBD@Z 005541a0 f i XinJiangSSC.obj
 0001:001531e0       ??0Data_t@_bstr_t@@QAE@PB_W@Z 005541e0 f i XinJiangSSC.obj
 0001:00153240       ??0Data_t@_bstr_t@@QAE@ABV1@0@Z 00554240 f i XinJiangSSC.obj
 0001:00153320       ?length@_bstr_t@@QBEIXZ    00554320 f i XinJiangSSC.obj
 0001:00153360       ?AddRef@Data_t@_bstr_t@@QAEKXZ 00554360 f i XinJiangSSC.obj
 0001:00153390       ?Release@Data_t@_bstr_t@@QAEKXZ 00554390 f i XinJiangSSC.obj
 0001:001533f0       ?Length@Data_t@_bstr_t@@QBEIXZ 005543f0 f i XinJiangSSC.obj
 0001:00153430       ??2Data_t@_bstr_t@@SAPAXI@Z 00554430 f i XinJiangSSC.obj
 0001:00153450       ??_GData_t@_bstr_t@@AAEPAXI@Z 00554450 f i XinJiangSSC.obj
 0001:00153490       ??1Data_t@_bstr_t@@AAE@XZ  00554490 f i XinJiangSSC.obj
 0001:001534b0       ?_Free@Data_t@_bstr_t@@AAEXXZ 005544b0 f i XinJiangSSC.obj
 0001:00153500       ?GetChildData@CMarkup@@QAE?AV?$CStringT@_WV?$StrTraitMFC_DLL@_WV?$ChTraitsCRT@_W@ATL@@@@@ATL@@XZ 00554500 f i XinJiangSSC.obj
 0001:00153540       ?GetRuntimeClass@CZhangHuBaseInfoDlg@@UBEPAUCRuntimeClass@@XZ 00554540 f   ZhangHuBaseInfoDlg.obj
 0001:00153560       ??0CZhangHuBaseInfoDlg@@QAE@PAVCWnd@@@Z 00554560 f   ZhangHuBaseInfoDlg.obj
 0001:00153670       ??_ECZhangHuBaseInfoDlg@@UAEPAXI@Z 00554670 f i ZhangHuBaseInfoDlg.obj
 0001:00153670       ??_GCZhangHuBaseInfoDlg@@UAEPAXI@Z 00554670 f i ZhangHuBaseInfoDlg.obj
 0001:001536b0       ??1CZhangHuBaseInfoDlg@@UAE@XZ 005546b0 f   ZhangHuBaseInfoDlg.obj
 0001:001537d0       ?DoDataExchange@CZhangHuBaseInfoDlg@@MAEXPAVCDataExchange@@@Z 005547d0 f   ZhangHuBaseInfoDlg.obj
 0001:00153820       ?GetMessageMap@CZhangHuBaseInfoDlg@@MBEPBUAFX_MSGMAP@@XZ 00554820 f   ZhangHuBaseInfoDlg.obj
 0001:00153840       ?GetThisMessageMap@CZhangHuBaseInfoDlg@@KGPBUAFX_MSGMAP@@XZ 00554840 f   ZhangHuBaseInfoDlg.obj
 0001:00153860       ?OnInitDialog@CZhangHuBaseInfoDlg@@MAEHXZ 00554860 f   ZhangHuBaseInfoDlg.obj
 0001:001539d0       ?OnPaint@CZhangHuBaseInfoDlg@@IAEXXZ 005549d0 f   ZhangHuBaseInfoDlg.obj
 0001:00154170       ?OnSize@CZhangHuBaseInfoDlg@@IAEXIHH@Z 00555170 f   ZhangHuBaseInfoDlg.obj
 0001:00154230       ?OnShowWindow@CZhangHuBaseInfoDlg@@IAEXHI@Z 00555230 f   ZhangHuBaseInfoDlg.obj
 0001:00154320       ?OnBnClickedBtnXgqq@CZhangHuBaseInfoDlg@@AAEXXZ 00555320 f   ZhangHuBaseInfoDlg.obj
 0001:00154440       ?OnEventMissionLink@CZhangHuBaseInfoDlg@@UAE_NHH@Z 00555440 f   ZhangHuBaseInfoDlg.obj
 0001:00154620       ?OnEventMissionRead@CZhangHuBaseInfoDlg@@UAE_NUTCP_Command@@PAXG@Z 00555620 f   ZhangHuBaseInfoDlg.obj
 0001:00154920       ?SendToServer@CZhangHuBaseInfoDlg@@IAEXH@Z 00555920 f   ZhangHuBaseInfoDlg.obj
 0001:00154a20       ??_ECZhangHuBaseInfoDlg@@WHE@AEPAXI@Z 00555a20 f i ZhangHuBaseInfoDlg.obj
 0001:00154a30       ?GetRuntimeClass@CZhangHuChzhLogDlg@@UBEPAUCRuntimeClass@@XZ 00555a30 f   ZhangHuChzhLogDlg.obj
 0001:00154a50       ??0CZhangHuChzhLogDlg@@QAE@PAVCWnd@@@Z 00555a50 f   ZhangHuChzhLogDlg.obj
 0001:00154be0       ??_ECZhangHuChzhLogDlg@@UAEPAXI@Z 00555be0 f i ZhangHuChzhLogDlg.obj
 0001:00154be0       ??_GCZhangHuChzhLogDlg@@UAEPAXI@Z 00555be0 f i ZhangHuChzhLogDlg.obj
 0001:00154c20       ??1CZhangHuChzhLogDlg@@UAE@XZ 00555c20 f   ZhangHuChzhLogDlg.obj
 0001:00154d80       ?DoDataExchange@CZhangHuQPYkDlg@@MAEXPAVCDataExchange@@@Z 00555d80 f   ZhangHuQPYkDlg.obj
 0001:00154d80       ?DoDataExchange@CZhangHuYkLogDlg@@MAEXPAVCDataExchange@@@Z 00555d80 f   ZhangHuYkLogDlg.obj
 0001:00154d80       ?DoDataExchange@CZhangHuYkMXDlg@@MAEXPAVCDataExchange@@@Z 00555d80 f   ZhangHuYkMXDlg.obj
 0001:00154d80       ?DoDataExchange@CZhangHuChzhLogDlg@@MAEXPAVCDataExchange@@@Z 00555d80 f   ZhangHuChzhLogDlg.obj
 0001:00154e60       ?GetMessageMap@CZhangHuChzhLogDlg@@MBEPBUAFX_MSGMAP@@XZ 00555e60 f   ZhangHuChzhLogDlg.obj
 0001:00154e80       ?GetThisMessageMap@CZhangHuChzhLogDlg@@KGPBUAFX_MSGMAP@@XZ 00555e80 f   ZhangHuChzhLogDlg.obj
 0001:00154ea0       ?OnPaint@CZhangHuChzhLogDlg@@IAEXXZ 00555ea0 f   ZhangHuChzhLogDlg.obj
 0001:001551f0       ?OnBnClickedBtnOk@CZhangHuChzhLogDlg@@IAEXXZ 005561f0 f   ZhangHuChzhLogDlg.obj
 0001:00155330       ?OnBnClickedBtnPrePage@CZhangHuChzhLogDlg@@IAEXXZ 00556330 f   ZhangHuChzhLogDlg.obj
 0001:00155420       ?OnBnClickedBtnNextPage@CZhangHuChzhLogDlg@@IAEXXZ 00556420 f   ZhangHuChzhLogDlg.obj
 0001:00155510       ?OnInitDialog@CZhangHuChzhLogDlg@@MAEHXZ 00556510 f   ZhangHuChzhLogDlg.obj
 0001:00155730       ?InitListCtrl@CZhangHuChzhLogDlg@@AAEXXZ 00556730 f   ZhangHuChzhLogDlg.obj
 0001:00155830       ?OnEventMissionLink@CZhangHuChzhLogDlg@@UAE_NHH@Z 00556830 f   ZhangHuChzhLogDlg.obj
 0001:00155b80       ?OnEventMissionRead@CZhangHuChzhLogDlg@@UAE_NUTCP_Command@@PAXG@Z 00556b80 f   ZhangHuChzhLogDlg.obj
 0001:00155e60       ?SendToServer@CZhangHuTxLogDlg@@IAEXH@Z 00556e60 f   ZhangHuTxLogDlg.obj
 0001:00155e60       ?SendToServer@CZhangHuYkMXDlg@@IAEXH@Z 00556e60 f   ZhangHuYkMXDlg.obj
 0001:00155e60       ?SendToServer@CZhangHuQPYkDlg@@IAEXH@Z 00556e60 f   ZhangHuQPYkDlg.obj
 0001:00155e60       ?SendToServer@CZhangHuYkLogDlg@@IAEXH@Z 00556e60 f   ZhangHuYkLogDlg.obj
 0001:00155e60       ?SendToServer@CZhangHuChzhLogDlg@@IAEXH@Z 00556e60 f   ZhangHuChzhLogDlg.obj
 0001:00155f60       ??_ECZhangHuChzhLogDlg@@WHE@AEPAXI@Z 00556f60 f i ZhangHuChzhLogDlg.obj
 0001:00155f70       ?GetRuntimeClass@CZhangHuDlg@@UBEPAUCRuntimeClass@@XZ 00556f70 f   ZhangHuDlg.obj
 0001:00155f90       ??0CZhangHuDlg@@QAE@PAVCWnd@@@Z 00556f90 f   ZhangHuDlg.obj
 0001:001561d0       ??_ECZhangHuDlg@@UAEPAXI@Z 005571d0 f i ZhangHuDlg.obj
 0001:001561d0       ??_GCZhangHuDlg@@UAEPAXI@Z 005571d0 f i ZhangHuDlg.obj
 0001:00156210       ??1CZhangHuDlg@@UAE@XZ     00557210 f   ZhangHuDlg.obj
 0001:00156430       ?DoDataExchange@CZhangHuDlg@@MAEXPAVCDataExchange@@@Z 00557430 f   ZhangHuDlg.obj
 0001:00156540       ?GetMessageMap@CZhangHuDlg@@MBEPBUAFX_MSGMAP@@XZ 00557540 f   ZhangHuDlg.obj
 0001:00156560       ?GetThisMessageMap@CZhangHuDlg@@KGPBUAFX_MSGMAP@@XZ 00557560 f   ZhangHuDlg.obj
 0001:00156580       ?OnInitDialog@CZhangHuDlg@@MAEHXZ 00557580 f   ZhangHuDlg.obj
 0001:001567d0       ?OnPaint@CZhangHuDlg@@IAEXXZ 005577d0 f   ZhangHuDlg.obj
 0001:001567d0       ?OnPaint@CHuoDongDlg@@IAEXXZ 005577d0 f   HuoDongDlg.obj
 0001:001568d0       ?OnSize@CZhangHuDlg@@IAEXIHH@Z 005578d0 f   ZhangHuDlg.obj
 0001:00156df0       ?OnShowWindow@CZhangHuDlg@@IAEXHI@Z 00557df0 f   ZhangHuDlg.obj
 0001:00156e40       ?ResetDlg@CZhangHuDlg@@AAEXXZ 00557e40 f   ZhangHuDlg.obj
 0001:00156fa0       ?OnBnClickedBtnBaseinfo@CZhangHuDlg@@IAEXXZ 00557fa0 f   ZhangHuDlg.obj
 0001:00157100       ?OnBnClickedBtnModifypwd@CZhangHuDlg@@IAEXXZ 00558100 f   ZhangHuDlg.obj
 0001:00157260       ?OnBnClickedBtnAccountbaohu@CZhangHuDlg@@IAEXXZ 00558260 f   ZhangHuDlg.obj
 0001:001573c0       ?OnBnClickedBtnTikuanact@CZhangHuDlg@@IAEXXZ 005583c0 f   ZhangHuDlg.obj
 0001:00157520       ?OnBnClickedBtnTouzhujilu@CZhangHuDlg@@IAEXXZ 00558520 f   ZhangHuDlg.obj
 0001:00157680       ?OnBnClickedBtnTixianjilu@CZhangHuDlg@@IAEXXZ 00558680 f   ZhangHuDlg.obj
 0001:001577e0       ?OnBnClickedBtnChongzhijilu@CZhangHuDlg@@IAEXXZ 005587e0 f   ZhangHuDlg.obj
 0001:00157940       ?OnBnClickedBtnYingkuijilu@CZhangHuDlg@@IAEXXZ 00558940 f   ZhangHuDlg.obj
 0001:00157aa0       ?OnBnClickedBtnYingkuimingxi@CZhangHuDlg@@IAEXXZ 00558aa0 f   ZhangHuDlg.obj
 0001:00157c00       ?OnBnClickedBtnQipaiYingkui@CZhangHuDlg@@IAEXXZ 00558c00 f   ZhangHuDlg.obj
 0001:00157d60       ?InitBtns@CZhangHuDlg@@AAEXXZ 00558d60 f   ZhangHuDlg.obj
 0001:00157f90       ?GetRuntimeClass@CZhangHuQPYkDlg@@UBEPAUCRuntimeClass@@XZ 00558f90 f   ZhangHuQPYkDlg.obj
 0001:00157fb0       ??0CZhangHuQPYkDlg@@QAE@PAVCWnd@@@Z 00558fb0 f   ZhangHuQPYkDlg.obj
 0001:00158140       ??_ECZhangHuQPYkDlg@@UAEPAXI@Z 00559140 f i ZhangHuQPYkDlg.obj
 0001:00158140       ??_GCZhangHuQPYkDlg@@UAEPAXI@Z 00559140 f i ZhangHuQPYkDlg.obj
 0001:00158180       ??1CZhangHuQPYkDlg@@UAE@XZ 00559180 f   ZhangHuQPYkDlg.obj
 0001:001582e0       ?GetMessageMap@CZhangHuQPYkDlg@@MBEPBUAFX_MSGMAP@@XZ 005592e0 f   ZhangHuQPYkDlg.obj
 0001:00158300       ?GetThisMessageMap@CZhangHuQPYkDlg@@KGPBUAFX_MSGMAP@@XZ 00559300 f   ZhangHuQPYkDlg.obj
 0001:00158320       ?OnPaint@CZhangHuQPYkDlg@@IAEXXZ 00559320 f   ZhangHuQPYkDlg.obj
 0001:00158670       ?OnShowWindow@CZhangHuChzhLogDlg@@IAEXHI@Z 00559670 f   ZhangHuChzhLogDlg.obj
 0001:00158670       ?OnShowWindow@CZhangHuYkLogDlg@@IAEXHI@Z 00559670 f   ZhangHuYkLogDlg.obj
 0001:00158670       ?OnShowWindow@CZhangHuQPYkDlg@@IAEXHI@Z 00559670 f   ZhangHuQPYkDlg.obj
 0001:00158670       ?OnShowWindow@CZhangHuYkMXDlg@@IAEXHI@Z 00559670 f   ZhangHuYkMXDlg.obj
 0001:00158790       ?OnBnClickedBtnOk@CZhangHuQPYkDlg@@IAEXXZ 00559790 f   ZhangHuQPYkDlg.obj
 0001:001588d0       ?OnBnClickedBtnPrePage@CZhangHuQPYkDlg@@IAEXXZ 005598d0 f   ZhangHuQPYkDlg.obj
 0001:001589c0       ?OnBnClickedBtnNextPage@CZhangHuQPYkDlg@@IAEXXZ 005599c0 f   ZhangHuQPYkDlg.obj
 0001:00158ab0       ?OnInitDialog@CZhangHuQPYkDlg@@MAEHXZ 00559ab0 f   ZhangHuQPYkDlg.obj
 0001:00158cd0       ?InitListCtrl@CZhangHuQPYkDlg@@AAEXXZ 00559cd0 f   ZhangHuQPYkDlg.obj
 0001:00158e10       ?OnEventMissionLink@CZhangHuQPYkDlg@@UAE_NHH@Z 00559e10 f   ZhangHuQPYkDlg.obj
 0001:00159180       ?OnEventMissionRead@CZhangHuQPYkDlg@@UAE_NUTCP_Command@@PAXG@Z 0055a180 f   ZhangHuQPYkDlg.obj
 0001:00159480       ??_ECZhangHuQPYkDlg@@WHE@AEPAXI@Z 0055a480 f i ZhangHuQPYkDlg.obj
 0001:00159490       ?GetRuntimeClass@CZhangHuShZhTkZhhDlg@@UBEPAUCRuntimeClass@@XZ 0055a490 f   ZhangHuShZhTkZhhDlg.obj
 0001:001594b0       ??0CZhangHuShZhTkZhhDlg@@QAE@PAVCWnd@@@Z 0055a4b0 f   ZhangHuShZhTkZhhDlg.obj
 0001:00159610       ??_GCZhangHuShZhTkZhhDlg@@UAEPAXI@Z 0055a610 f i ZhangHuShZhTkZhhDlg.obj
 0001:00159610       ??_ECZhangHuShZhTkZhhDlg@@UAEPAXI@Z 0055a610 f i ZhangHuShZhTkZhhDlg.obj
 0001:00159650       ??1CZhangHuShZhTkZhhDlg@@UAE@XZ 0055a650 f   ZhangHuShZhTkZhhDlg.obj
 0001:001597c0       ?DoDataExchange@CZhangHuShZhTkZhhDlg@@MAEXPAVCDataExchange@@@Z 0055a7c0 f   ZhangHuShZhTkZhhDlg.obj
 0001:00159870       ?GetMessageMap@CZhangHuShZhTkZhhDlg@@MBEPBUAFX_MSGMAP@@XZ 0055a870 f   ZhangHuShZhTkZhhDlg.obj
 0001:00159890       ?GetThisMessageMap@CZhangHuShZhTkZhhDlg@@KGPBUAFX_MSGMAP@@XZ 0055a890 f   ZhangHuShZhTkZhhDlg.obj
 0001:001598b0       ?OnPaint@CZhangHuShZhTkZhhDlg@@IAEXXZ 0055a8b0 f   ZhangHuShZhTkZhhDlg.obj
 0001:00159ba0       ?OnSize@CZhangHuShZhTkZhhDlg@@IAEXIHH@Z 0055aba0 f   ZhangHuShZhTkZhhDlg.obj
 0001:00159be0       ?OnShowWindow@CZhangHuShZhTkZhhDlg@@IAEXHI@Z 0055abe0 f   ZhangHuShZhTkZhhDlg.obj
 0001:00159ce0       ?OnBnClickedBtnOk@CZhangHuShZhTkZhhDlg@@IAEXXZ 0055ace0 f   ZhangHuShZhTkZhhDlg.obj
 0001:00159ff0       ?OnInitDialog@CZhangHuShZhTkZhhDlg@@MAEHXZ 0055aff0 f   ZhangHuShZhTkZhhDlg.obj
 0001:0015a310       ?AdjustCtrls@CZhangHuShZhTkZhhDlg@@AAEXXZ 0055b310 f   ZhangHuShZhTkZhhDlg.obj
 0001:0015a450       ?EnableCtrls@CZhangHuShZhTkZhhDlg@@AAEXH@Z 0055b450 f   ZhangHuShZhTkZhhDlg.obj
 0001:0015a540       ?SetYHCmbSel@CZhangHuShZhTkZhhDlg@@AAEXABV?$CStringT@_WV?$StrTraitMFC_DLL@_WV?$ChTraitsCRT@_W@ATL@@@@@ATL@@@Z 0055b540 f   ZhangHuShZhTkZhhDlg.obj
 0001:0015a640       ?OnEventMissionLink@CZhangHuShZhTkZhhDlg@@UAE_NHH@Z 0055b640 f   ZhangHuShZhTkZhhDlg.obj
 0001:0015a830       ?OnEventMissionRead@CZhangHuShZhTkZhhDlg@@UAE_NUTCP_Command@@PAXG@Z 0055b830 f   ZhangHuShZhTkZhhDlg.obj
 0001:0015ac10       ?SendToServer@CZhangHuShZhTkZhhDlg@@IAEXH@Z 0055bc10 f   ZhangHuShZhTkZhhDlg.obj
 0001:0015ad20       ??_ECZhangHuShZhTkZhhDlg@@WHE@AEPAXI@Z 0055bd20 f i ZhangHuShZhTkZhhDlg.obj
 0001:0015ad30       ?_GetBaseClass@CQuKuanDlg@@KGPAUCRuntimeClass@@XZ 0055bd30 f   QuKuanDlg.obj
 0001:0015ad30       ?_GetBaseClass@CHuiYuanHyshjDlg@@KGPAUCRuntimeClass@@XZ 0055bd30 f   HuiYuanHyshjDlg.obj
 0001:0015ad30       ?_GetBaseClass@CQrTzhDlg@@KGPAUCRuntimeClass@@XZ 0055bd30 f   QrTzhDlg.obj
 0001:0015ad30       ?_GetBaseClass@CChongZhiDlg@@KGPAUCRuntimeClass@@XZ 0055bd30 f   ChongZhiDlg.obj
 0001:0015ad30       ?_GetBaseClass@CXinJiangSSC@@KGPAUCRuntimeClass@@XZ 0055bd30 f   XinJiangSSC.obj
 0001:0015ad30       ?_GetBaseClass@CHuoDongZaJinDanDlg@@KGPAUCRuntimeClass@@XZ 0055bd30 f   HuoDongZaJinDanDlg.obj
 0001:0015ad30       ?_GetBaseClass@CZhangHuQPYkDlg@@KGPAUCRuntimeClass@@XZ 0055bd30 f   ZhangHuQPYkDlg.obj
 0001:0015ad30       ?_GetBaseClass@CZhangHuTxLogDlg@@KGPAUCRuntimeClass@@XZ 0055bd30 f   ZhangHuTxLogDlg.obj
 0001:0015ad30       ?_GetBaseClass@CHuiYuanTjxjDlg@@KGPAUCRuntimeClass@@XZ 0055bd30 f   HuiYuanTjxjDlg.obj
 0001:0015ad30       ?_GetBaseClass@CZhangHuTzhLogDlg@@KGPAUCRuntimeClass@@XZ 0055bd30 f   ZhangHuTzhLogDlg.obj
 0001:0015ad30       ?_GetBaseClass@CTzhxxDlg@@KGPAUCRuntimeClass@@XZ 0055bd30 f   TzhxxDlg.obj
 0001:0015ad30       ?_GetBaseClass@CChongQing11X5@@KGPAUCRuntimeClass@@XZ 0055bd30 f   ChongQing11X5.obj
 0001:0015ad30       ?_GetBaseClass@CZhangHuShZhTkZhhDlg@@KGPAUCRuntimeClass@@XZ 0055bd30 f   ZhangHuShZhTkZhhDlg.obj
 0001:0015ad30       ?_GetBaseClass@CDlgFandian@@KGPAUCRuntimeClass@@XZ 0055bd30 f   DlgFandian.obj
 0001:0015ad30       ?_GetBaseClass@CTiShiDlg@@KGPAUCRuntimeClass@@XZ 0055bd30 f   TiShiDlg.obj
 0001:0015ad30       ?_GetBaseClass@CHuoDongDaliBaoDlg@@KGPAUCRuntimeClass@@XZ 0055bd30 f   HuoDongDaliBaoDlg.obj
 0001:0015ad30       ?_GetBaseClass@CHuiYuanChzhLogDlg@@KGPAUCRuntimeClass@@XZ 0055bd30 f   HuiYuanChzhLogDlg.obj
 0001:0015ad30       ?_GetBaseClass@CZhangHuBaseInfoDlg@@KGPAUCRuntimeClass@@XZ 0055bd30 f   ZhangHuBaseInfoDlg.obj
 0001:0015ad30       ?_GetBaseClass@CZhangHuZhhbhDlg@@KGPAUCRuntimeClass@@XZ 0055bd30 f   ZhangHuZhhbhDlg.obj
 0001:0015ad30       ?_GetBaseClass@CJiangXi11X5@@KGPAUCRuntimeClass@@XZ 0055bd30 f   JiangXi11X5.obj
 0001:0015ad30       ?_GetBaseClass@CGuangDong11X5@@KGPAUCRuntimeClass@@XZ 0055bd30 f   GuangDong11X5.obj
 0001:0015ad30       ?_GetBaseClass@CDlgAddtional@@KGPAUCRuntimeClass@@XZ 0055bd30 f   DlgAddtional.obj
 0001:0015ad30       ?_GetBaseClass@CJiangXiSSC@@KGPAUCRuntimeClass@@XZ 0055bd30 f   JiangXiSSC.obj
 0001:0015ad30       ?_GetBaseClass@CHuiYuanDlg@@KGPAUCRuntimeClass@@XZ 0055bd30 f   HuiYuanDlg.obj
 0001:0015ad30       ?_GetBaseClass@CZhangHuYkLogDlg@@KGPAUCRuntimeClass@@XZ 0055bd30 f   ZhangHuYkLogDlg.obj
 0001:0015ad30       ?_GetBaseClass@CXgfdDlg@@KGPAUCRuntimeClass@@XZ 0055bd30 f   XgfdDlg.obj
 0001:0015ad30       ?_GetBaseClass@CZhangHuXgmmDlg@@KGPAUCRuntimeClass@@XZ 0055bd30 f   ZhangHuXgmmDlg.obj
 0001:0015ad30       ?_GetBaseClass@CZhangHuChzhLogDlg@@KGPAUCRuntimeClass@@XZ 0055bd30 f   ZhangHuChzhLogDlg.obj
 0001:0015ad30       ?_GetBaseClass@CZhuanhuanDlg@@KGPAUCRuntimeClass@@XZ 0055bd30 f   ZhuanhuanDlg.obj
 0001:0015ad30       ?_GetBaseClass@CHuiYuanXjtzhtjDlg@@KGPAUCRuntimeClass@@XZ 0055bd30 f   HuiYuanXjtzhtjDlg.obj
 0001:0015ad30       ?_GetBaseClass@CFenFenCai@@KGPAUCRuntimeClass@@XZ 0055bd30 f   FenFenCai.obj
 0001:0015ad30       ?_GetBaseClass@CHuiYuanChkxjtzhDlg@@KGPAUCRuntimeClass@@XZ 0055bd30 f   HuiYuanChkxjtzhDlg.obj
 0001:0015ad30       ?_GetBaseClass@CWuFenCai@@KGPAUCRuntimeClass@@XZ 0055bd30 f   WuFenCai.obj
 0001:0015ad30       ?_GetBaseClass@CMessageDlg@@KGPAUCRuntimeClass@@XZ 0055bd30 f   MessageDlg.obj
 0001:0015ad30       ?_GetBaseClass@CHuiYuanYktjDlg@@KGPAUCRuntimeClass@@XZ 0055bd30 f   HuiYuanYktjDlg.obj
 0001:0015ad30       ?_GetBaseClass@CHuiYuanHyxxDlg@@KGPAUCRuntimeClass@@XZ 0055bd30 f   HuiYuanHyxxDlg.obj
 0001:0015ad30       ?_GetBaseClass@CZhangHuDlg@@KGPAUCRuntimeClass@@XZ 0055bd30 f   ZhangHuDlg.obj
 0001:0015ad30       ?_GetBaseClass@CZhangHuYkMXDlg@@KGPAUCRuntimeClass@@XZ 0055bd30 f   ZhangHuYkMXDlg.obj
 0001:0015ad30       ?_GetBaseClass@CShanDong11X5@@KGPAUCRuntimeClass@@XZ 0055bd30 f   ShanDong11X5.obj
 0001:0015ad30       ?_GetBaseClass@CHuoDongHuanLeSongDlg@@KGPAUCRuntimeClass@@XZ 0055bd30 f   HuoDongHuanLeLingDlg.obj
 0001:0015ad30       ?_GetBaseClass@CHuiYuanYkLogDlg@@KGPAUCRuntimeClass@@XZ 0055bd30 f   HuiYuanYkLogDlg.obj
 0001:0015ad30       ?_GetBaseClass@CHuiYuanTxLogDlg@@KGPAUCRuntimeClass@@XZ 0055bd30 f   HuiYuanTxLogDlg.obj
 0001:0015ad30       ?_GetBaseClass@CHuoDongDlg@@KGPAUCRuntimeClass@@XZ 0055bd30 f   HuoDongDlg.obj
 0001:0015ad30       ?_GetBaseClass@HuodongZhuanzhuan@@KGPAUCRuntimeClass@@XZ 0055bd30 f   HuodongZhuanzhuan.obj
 0001:0015ad30       ?_GetBaseClass@CChongQingSSC@@KGPAUCRuntimeClass@@XZ 0055bd30 f   ChongQingSSC.obj
 0001:0015ad50       ?GetRuntimeClass@CZhangHuTxLogDlg@@UBEPAUCRuntimeClass@@XZ 0055bd50 f   ZhangHuTxLogDlg.obj
 0001:0015ad70       ??0CZhangHuTxLogDlg@@QAE@PAVCWnd@@@Z 0055bd70 f   ZhangHuTxLogDlg.obj
 0001:0015af00       ??_GCZhangHuTxLogDlg@@UAEPAXI@Z 0055bf00 f i ZhangHuTxLogDlg.obj
 0001:0015af00       ??_ECZhangHuTxLogDlg@@UAEPAXI@Z 0055bf00 f i ZhangHuTxLogDlg.obj
 0001:0015af40       ??1CZhangHuTxLogDlg@@UAE@XZ 0055bf40 f   ZhangHuTxLogDlg.obj
 0001:0015b0a0       ?DoDataExchange@CZhangHuTxLogDlg@@MAEXPAVCDataExchange@@@Z 0055c0a0 f   ZhangHuTxLogDlg.obj
 0001:0015b180       ?GetMessageMap@CZhangHuTxLogDlg@@MBEPBUAFX_MSGMAP@@XZ 0055c180 f   ZhangHuTxLogDlg.obj
 0001:0015b1a0       ?GetThisMessageMap@CZhangHuTxLogDlg@@KGPBUAFX_MSGMAP@@XZ 0055c1a0 f   ZhangHuTxLogDlg.obj
 0001:0015b1c0       ?OnPaint@CZhangHuTxLogDlg@@IAEXXZ 0055c1c0 f   ZhangHuTxLogDlg.obj
 0001:0015b510       ?OnSize@CZhangHuTxLogDlg@@IAEXIHH@Z 0055c510 f   ZhangHuTxLogDlg.obj
 0001:0015b550       ?OnShowWindow@CZhangHuTxLogDlg@@IAEXHI@Z 0055c550 f   ZhangHuTxLogDlg.obj
 0001:0015b670       ?OnBnClickedBtnOk@CZhangHuTxLogDlg@@IAEXXZ 0055c670 f   ZhangHuTxLogDlg.obj
 0001:0015b7b0       ?OnBnClickedBtnPrePage@CZhangHuTxLogDlg@@IAEXXZ 0055c7b0 f   ZhangHuTxLogDlg.obj
 0001:0015b8a0       ?OnBnClickedBtnNextPage@CZhangHuTxLogDlg@@IAEXXZ 0055c8a0 f   ZhangHuTxLogDlg.obj
 0001:0015b990       ?OnInitDialog@CZhangHuTxLogDlg@@MAEHXZ 0055c990 f   ZhangHuTxLogDlg.obj
 0001:0015bbb0       ?InitListCtrl@CZhangHuTxLogDlg@@AAEXXZ 0055cbb0 f   ZhangHuTxLogDlg.obj
 0001:0015bcf0       ?AdjustCtrls@CZhangHuTxLogDlg@@AAEXXZ 0055ccf0 f   ZhangHuTxLogDlg.obj
 0001:0015be80       ?OnEventMissionLink@CZhangHuTxLogDlg@@UAE_NHH@Z 0055ce80 f   ZhangHuTxLogDlg.obj
 0001:0015c1d0       ?OnEventMissionRead@CZhangHuTxLogDlg@@UAE_NUTCP_Command@@PAXG@Z 0055d1d0 f   ZhangHuTxLogDlg.obj
 0001:0015c520       ??_ECZhangHuTxLogDlg@@WHE@AEPAXI@Z 0055d520 f i ZhangHuTxLogDlg.obj
 0001:0015c530       ?GetRuntimeClass@CZhangHuTzhLogDlg@@UBEPAUCRuntimeClass@@XZ 0055d530 f   ZhangHuTzhLogDlg.obj
 0001:0015c550       ??0CZhangHuTzhLogDlg@@QAE@PAVCWnd@@@Z 0055d550 f   ZhangHuTzhLogDlg.obj
 0001:0015c790       ??_GCZhangHuTzhLogDlg@@UAEPAXI@Z 0055d790 f i ZhangHuTzhLogDlg.obj
 0001:0015c790       ??_ECZhangHuTzhLogDlg@@UAEPAXI@Z 0055d790 f i ZhangHuTzhLogDlg.obj
 0001:0015c7d0       ??1CZhangHuTzhLogDlg@@UAE@XZ 0055d7d0 f   ZhangHuTzhLogDlg.obj
 0001:0015c9c0       ?DoDataExchange@CZhangHuTzhLogDlg@@MAEXPAVCDataExchange@@@Z 0055d9c0 f   ZhangHuTzhLogDlg.obj
 0001:0015cad0       ?GetMessageMap@CZhangHuTzhLogDlg@@MBEPBUAFX_MSGMAP@@XZ 0055dad0 f   ZhangHuTzhLogDlg.obj
 0001:0015caf0       ?GetThisMessageMap@CZhangHuTzhLogDlg@@KGPBUAFX_MSGMAP@@XZ 0055daf0 f   ZhangHuTzhLogDlg.obj
 0001:0015cb10       ?OnPaint@CZhangHuTzhLogDlg@@IAEXXZ 0055db10 f   ZhangHuTzhLogDlg.obj
 0001:0015ce60       ?OnSize@CZhangHuTzhLogDlg@@IAEXIHH@Z 0055de60 f   ZhangHuTzhLogDlg.obj
 0001:0015cea0       ?OnShowWindow@CZhangHuTzhLogDlg@@IAEXHI@Z 0055dea0 f   ZhangHuTzhLogDlg.obj
 0001:0015cfc0       ?OnBnClickedBtnOk@CZhangHuTzhLogDlg@@IAEXXZ 0055dfc0 f   ZhangHuTzhLogDlg.obj
 0001:0015d100       ?OnBnClickedBtnPrePage@CZhangHuTzhLogDlg@@IAEXXZ 0055e100 f   ZhangHuTzhLogDlg.obj
 0001:0015d1f0       ?OnBnClickedBtnNextPage@CZhangHuTzhLogDlg@@IAEXXZ 0055e1f0 f   ZhangHuTzhLogDlg.obj
 0001:0015d2e0       ?OnNMDblclkListLog@CZhangHuTzhLogDlg@@IAEXPAUtagNMHDR@@PAJ@Z 0055e2e0 f   ZhangHuTzhLogDlg.obj
 0001:0015d3c0       ?OnNMLclickListLog@CZhangHuTzhLogDlg@@IAEXPAUtagNMHDR@@PAJ@Z 0055e3c0 f   ZhangHuTzhLogDlg.obj
 0001:0015d3c0       ?OnNMRclickListLog@CZhangHuTzhLogDlg@@IAEXPAUtagNMHDR@@PAJ@Z 0055e3c0 f   ZhangHuTzhLogDlg.obj
 0001:0015d510       ?OnTouzhuLogChakanxx@CZhangHuTzhLogDlg@@IAEXXZ 0055e510 f   ZhangHuTzhLogDlg.obj
 0001:0015d5e0       ?OnTouzhuLogChexiao@CZhangHuTzhLogDlg@@IAEXXZ 0055e5e0 f   ZhangHuTzhLogDlg.obj
 0001:0015d890       ?OnInitDialog@CZhangHuTzhLogDlg@@MAEHXZ 0055e890 f   ZhangHuTzhLogDlg.obj
 0001:0015dab0       ?InitListCtrl@CZhangHuTzhLogDlg@@AAEXXZ 0055eab0 f   ZhangHuTzhLogDlg.obj
 0001:0015dc20       ?AdjustCtrls@CZhangHuTzhLogDlg@@AAEXXZ 0055ec20 f   ZhangHuTzhLogDlg.obj
 0001:0015ddd0       ?OnEventMissionLink@CZhangHuTzhLogDlg@@UAE_NHH@Z 0055edd0 f   ZhangHuTzhLogDlg.obj
 0001:0015e190       ?OnEventMissionRead@CZhangHuTzhLogDlg@@UAE_NUTCP_Command@@PAXG@Z 0055f190 f   ZhangHuTzhLogDlg.obj
 0001:0015eae0       ?SendToServer@CZhangHuTzhLogDlg@@IAEXH@Z 0055fae0 f   ZhangHuTzhLogDlg.obj
 0001:0015ebf0       ??_ECZhangHuTzhLogDlg@@WHE@AEPAXI@Z 0055fbf0 f i ZhangHuTzhLogDlg.obj
 0001:0015ec00       ?EnableMenuItem@CMenu@@QAEIII@Z 0055fc00 f i ZhangHuTzhLogDlg.obj
 0001:0015ec30       ?GetRuntimeClass@CZhangHuXgmmDlg@@UBEPAUCRuntimeClass@@XZ 0055fc30 f   ZhangHuXgmmDlg.obj
 0001:0015ec50       ??0CZhangHuXgmmDlg@@QAE@PAVCWnd@@@Z 0055fc50 f   ZhangHuXgmmDlg.obj
 0001:0015edc0       ??_GCZhangHuXgmmDlg@@UAEPAXI@Z 0055fdc0 f i ZhangHuXgmmDlg.obj
 0001:0015edc0       ??_ECZhangHuXgmmDlg@@UAEPAXI@Z 0055fdc0 f i ZhangHuXgmmDlg.obj
 0001:0015ee00       ??1CZhangHuXgmmDlg@@UAE@XZ 0055fe00 f   ZhangHuXgmmDlg.obj
 0001:0015efa0       ?DoDataExchange@CZhangHuXgmmDlg@@MAEXPAVCDataExchange@@@Z 0055ffa0 f   ZhangHuXgmmDlg.obj
 0001:0015f080       ?GetMessageMap@CZhangHuXgmmDlg@@MBEPBUAFX_MSGMAP@@XZ 00560080 f   ZhangHuXgmmDlg.obj
 0001:0015f0a0       ?GetThisMessageMap@CZhangHuXgmmDlg@@KGPBUAFX_MSGMAP@@XZ 005600a0 f   ZhangHuXgmmDlg.obj
 0001:0015f0c0       ?OnShowWindow@CZhangHuXgmmDlg@@IAEXHI@Z 005600c0 f   ZhangHuXgmmDlg.obj
 0001:0015f170       ?OnPaint@CZhangHuXgmmDlg@@IAEXXZ 00560170 f   ZhangHuXgmmDlg.obj
 0001:0015f450       ?OnSize@CZhangHuXgmmDlg@@IAEXIHH@Z 00560450 f   ZhangHuXgmmDlg.obj
 0001:0015f490       ?OnInitDialog@CZhangHuXgmmDlg@@MAEHXZ 00560490 f   ZhangHuXgmmDlg.obj
 0001:0015f650       ?OnBnClickedBtnOk@CZhangHuXgmmDlg@@IAEXXZ 00560650 f   ZhangHuXgmmDlg.obj
 0001:0015f8f0       ?OnBnClickedBtnOk2@CZhangHuXgmmDlg@@IAEXXZ 005608f0 f   ZhangHuXgmmDlg.obj
 0001:0015fb90       ?AdjustCtrls@CZhangHuXgmmDlg@@AAEXXZ 00560b90 f   ZhangHuXgmmDlg.obj
 0001:0015fd70       ?OnEventMissionLink@CZhangHuXgmmDlg@@UAE_NHH@Z 00560d70 f   ZhangHuXgmmDlg.obj
 0001:0015ffb0       ?OnEventMissionRead@CZhangHuXgmmDlg@@UAE_NUTCP_Command@@PAXG@Z 00560fb0 f   ZhangHuXgmmDlg.obj
 0001:00160380       ?SendToServer@CZhangHuXgmmDlg@@IAEXH@Z 00561380 f   ZhangHuXgmmDlg.obj
 0001:00160480       ??_ECZhangHuXgmmDlg@@WHE@AEPAXI@Z 00561480 f i ZhangHuXgmmDlg.obj
 0001:00160490       ?GetRuntimeClass@CZhangHuYkLogDlg@@UBEPAUCRuntimeClass@@XZ 00561490 f   ZhangHuYkLogDlg.obj
 0001:001604b0       ??0CZhangHuYkLogDlg@@QAE@PAVCWnd@@@Z 005614b0 f   ZhangHuYkLogDlg.obj
 0001:00160640       ??_ECZhangHuYkLogDlg@@UAEPAXI@Z 00561640 f i ZhangHuYkLogDlg.obj
 0001:00160640       ??_GCZhangHuYkLogDlg@@UAEPAXI@Z 00561640 f i ZhangHuYkLogDlg.obj
 0001:00160680       ??1CZhangHuYkLogDlg@@UAE@XZ 00561680 f   ZhangHuYkLogDlg.obj
 0001:001607e0       ?GetMessageMap@CZhangHuYkLogDlg@@MBEPBUAFX_MSGMAP@@XZ 005617e0 f   ZhangHuYkLogDlg.obj
 0001:00160800       ?GetThisMessageMap@CZhangHuYkLogDlg@@KGPBUAFX_MSGMAP@@XZ 00561800 f   ZhangHuYkLogDlg.obj
 0001:00160820       ?OnPaint@CZhangHuYkLogDlg@@IAEXXZ 00561820 f   ZhangHuYkLogDlg.obj
 0001:00160b70       ?OnBnClickedBtnOk@CZhangHuYkLogDlg@@IAEXXZ 00561b70 f   ZhangHuYkLogDlg.obj
 0001:00160cb0       ?OnBnClickedBtnPrePage@CZhangHuYkLogDlg@@IAEXXZ 00561cb0 f   ZhangHuYkLogDlg.obj
 0001:00160da0       ?OnBnClickedBtnNextPage@CZhangHuYkLogDlg@@IAEXXZ 00561da0 f   ZhangHuYkLogDlg.obj
 0001:00160e90       ?OnInitDialog@CZhangHuYkLogDlg@@MAEHXZ 00561e90 f   ZhangHuYkLogDlg.obj
 0001:001610b0       ?InitListCtrl@CZhangHuYkLogDlg@@AAEXXZ 005620b0 f   ZhangHuYkLogDlg.obj
 0001:00161240       ?OnEventMissionLink@CZhangHuYkLogDlg@@UAE_NHH@Z 00562240 f   ZhangHuYkLogDlg.obj
 0001:00161590       ?OnEventMissionRead@CZhangHuYkLogDlg@@UAE_NUTCP_Command@@PAXG@Z 00562590 f   ZhangHuYkLogDlg.obj
 0001:001619a0       ??_ECZhangHuYkLogDlg@@WHE@AEPAXI@Z 005629a0 f i ZhangHuYkLogDlg.obj
 0001:001619b0       ?GetRuntimeClass@CZhangHuYkMXDlg@@UBEPAUCRuntimeClass@@XZ 005629b0 f   ZhangHuYkMXDlg.obj
 0001:001619d0       ??0CZhangHuYkMXDlg@@QAE@PAVCWnd@@@Z 005629d0 f   ZhangHuYkMXDlg.obj
 0001:00161b60       ??_ECZhangHuYkMXDlg@@UAEPAXI@Z 00562b60 f i ZhangHuYkMXDlg.obj
 0001:00161b60       ??_GCZhangHuYkMXDlg@@UAEPAXI@Z 00562b60 f i ZhangHuYkMXDlg.obj
 0001:00161ba0       ??1CZhangHuYkMXDlg@@UAE@XZ 00562ba0 f   ZhangHuYkMXDlg.obj
 0001:00161d00       ?GetMessageMap@CZhangHuYkMXDlg@@MBEPBUAFX_MSGMAP@@XZ 00562d00 f   ZhangHuYkMXDlg.obj
 0001:00161d20       ?GetThisMessageMap@CZhangHuYkMXDlg@@KGPBUAFX_MSGMAP@@XZ 00562d20 f   ZhangHuYkMXDlg.obj
 0001:00161d40       ?OnPaint@CZhangHuYkMXDlg@@IAEXXZ 00562d40 f   ZhangHuYkMXDlg.obj
 0001:00162090       ?OnSize@CZhangHuChzhLogDlg@@IAEXIHH@Z 00563090 f   ZhangHuChzhLogDlg.obj
 0001:00162090       ?OnSize@CZhangHuYkLogDlg@@IAEXIHH@Z 00563090 f   ZhangHuYkLogDlg.obj
 0001:00162090       ?OnSize@CZhangHuQPYkDlg@@IAEXIHH@Z 00563090 f   ZhangHuQPYkDlg.obj
 0001:00162090       ?OnSize@CZhangHuYkMXDlg@@IAEXIHH@Z 00563090 f   ZhangHuYkMXDlg.obj
 0001:001620d0       ?OnBnClickedBtnOk@CZhangHuYkMXDlg@@IAEXXZ 005630d0 f   ZhangHuYkMXDlg.obj
 0001:00162210       ?OnBnClickedBtnPrePage@CZhangHuYkMXDlg@@IAEXXZ 00563210 f   ZhangHuYkMXDlg.obj
 0001:00162300       ?OnBnClickedBtnNextPage@CZhangHuYkMXDlg@@IAEXXZ 00563300 f   ZhangHuYkMXDlg.obj
 0001:001623f0       ?OnInitDialog@CZhangHuYkMXDlg@@MAEHXZ 005633f0 f   ZhangHuYkMXDlg.obj
 0001:00162610       ?InitListCtrl@CZhangHuYkMXDlg@@AAEXXZ 00563610 f   ZhangHuYkMXDlg.obj
 0001:00162750       ?AdjustCtrls@CZhangHuYkLogDlg@@AAEXXZ 00563750 f   ZhangHuYkLogDlg.obj
 0001:00162750       ?AdjustCtrls@CZhangHuYkMXDlg@@AAEXXZ 00563750 f   ZhangHuYkMXDlg.obj
 0001:00162750       ?AdjustCtrls@CZhangHuQPYkDlg@@AAEXXZ 00563750 f   ZhangHuQPYkDlg.obj
 0001:00162750       ?AdjustCtrls@CZhangHuChzhLogDlg@@AAEXXZ 00563750 f   ZhangHuChzhLogDlg.obj
 0001:001628e0       ?OnEventMissionLink@CZhangHuYkMXDlg@@UAE_NHH@Z 005638e0 f   ZhangHuYkMXDlg.obj
 0001:00162c10       ?OnEventMissionRead@CZhangHuYkMXDlg@@UAE_NUTCP_Command@@PAXG@Z 00563c10 f   ZhangHuYkMXDlg.obj
 0001:00163390       ??_ECZhangHuYkMXDlg@@WHE@AEPAXI@Z 00564390 f i ZhangHuYkMXDlg.obj
 0001:001633a0       ?GetRuntimeClass@CZhangHuZhhbhDlg@@UBEPAUCRuntimeClass@@XZ 005643a0 f   ZhangHuZhhbhDlg.obj
 0001:001633c0       ??0CZhangHuZhhbhDlg@@QAE@PAVCWnd@@@Z 005643c0 f   ZhangHuZhhbhDlg.obj
 0001:001634e0       ??_ECZhangHuZhhbhDlg@@UAEPAXI@Z 005644e0 f i ZhangHuZhhbhDlg.obj
 0001:001634e0       ??_GCZhangHuZhhbhDlg@@UAEPAXI@Z 005644e0 f i ZhangHuZhhbhDlg.obj
 0001:00163520       ??1CZhangHuZhhbhDlg@@UAE@XZ 00564520 f   ZhangHuZhhbhDlg.obj
 0001:00163670       ?DoDataExchange@CZhangHuZhhbhDlg@@MAEXPAVCDataExchange@@@Z 00564670 f   ZhangHuZhhbhDlg.obj
 0001:001636f0       ?GetMessageMap@CZhangHuZhhbhDlg@@MBEPBUAFX_MSGMAP@@XZ 005646f0 f   ZhangHuZhhbhDlg.obj
 0001:00163710       ?GetThisMessageMap@CZhangHuZhhbhDlg@@KGPBUAFX_MSGMAP@@XZ 00564710 f   ZhangHuZhhbhDlg.obj
 0001:00163730       ?OnShowWindow@CZhangHuZhhbhDlg@@IAEXHI@Z 00564730 f   ZhangHuZhhbhDlg.obj
 0001:001637e0       ?OnPaint@CZhangHuZhhbhDlg@@IAEXXZ 005647e0 f   ZhangHuZhhbhDlg.obj
 0001:00163ad0       ?OnSize@CZhangHuZhhbhDlg@@IAEXIHH@Z 00564ad0 f   ZhangHuZhhbhDlg.obj
 0001:00163b10       ?OnBnClickedBtnOk@CZhangHuZhhbhDlg@@IAEXXZ 00564b10 f   ZhangHuZhhbhDlg.obj
 0001:00163d10       ?OnInitDialog@CZhangHuZhhbhDlg@@MAEHXZ 00564d10 f   ZhangHuZhhbhDlg.obj
 0001:00163e80       ?AdjustCtrls@CZhangHuZhhbhDlg@@AAEXXZ 00564e80 f   ZhangHuZhhbhDlg.obj
 0001:00163f80       ?OnEventMissionLink@CZhangHuZhhbhDlg@@UAE_NHH@Z 00564f80 f   ZhangHuZhhbhDlg.obj
 0001:001640c0       ?OnEventMissionRead@CZhangHuZhhbhDlg@@UAE_NUTCP_Command@@PAXG@Z 005650c0 f   ZhangHuZhhbhDlg.obj
 0001:00164370       ?SendToServer@CZhangHuZhhbhDlg@@IAEXH@Z 00565370 f   ZhangHuZhhbhDlg.obj
 0001:00164460       ??_ECZhangHuZhhbhDlg@@WHE@AEPAXI@Z 00565460 f i ZhangHuZhhbhDlg.obj
 0001:00164470       ?GetRuntimeClass@CZhuanhuanDlg@@UBEPAUCRuntimeClass@@XZ 00565470 f   ZhuanhuanDlg.obj
 0001:00164490       ??0CZhuanhuanDlg@@QAE@PAVCWnd@@@Z 00565490 f   ZhuanhuanDlg.obj
 0001:00164580       ??_GCZhuanhuanDlg@@UAEPAXI@Z 00565580 f i ZhuanhuanDlg.obj
 0001:00164580       ??_ECZhuanhuanDlg@@UAEPAXI@Z 00565580 f i ZhuanhuanDlg.obj
 0001:001645c0       ??1CZhuanhuanDlg@@UAE@XZ   005655c0 f   ZhuanhuanDlg.obj
 0001:001646c0       ?DoDataExchange@CZhuanhuanDlg@@MAEXPAVCDataExchange@@@Z 005656c0 f   ZhuanhuanDlg.obj
 0001:00164720       ?GetMessageMap@CZhuanhuanDlg@@MBEPBUAFX_MSGMAP@@XZ 00565720 f   ZhuanhuanDlg.obj
 0001:00164740       ?GetThisMessageMap@CZhuanhuanDlg@@KGPBUAFX_MSGMAP@@XZ 00565740 f   ZhuanhuanDlg.obj
 0001:00164760       ?OnPaint@CZhuanhuanDlg@@IAEXXZ 00565760 f   ZhuanhuanDlg.obj
 0001:00164af0       ?OnLvnItemChangedEdit@CZhuanhuanDlg@@QAEXXZ 00565af0 f   ZhuanhuanDlg.obj
 0001:00164cf0       ?OnOK@CZhuanhuanDlg@@MAEXXZ 00565cf0 f   ZhuanhuanDlg.obj
 0001:00164e00       ?OnCancel@CZhuanhuanDlg@@MAEXXZ 00565e00 f   ZhuanhuanDlg.obj
 0001:00164e20       ?OnInitDialog@CZhuanhuanDlg@@MAEHXZ 00565e20 f   ZhuanhuanDlg.obj
 0001:00165010       ?OnSize@CZhuanhuanDlg@@IAEXIHH@Z 00566010 f   ZhuanhuanDlg.obj
 0001:00165120       ?SetSel@CEdit@@QAEXHHH@Z   00566120 f i ZhuanhuanDlg.obj
 0001:00165170       ?CreateObject@CGridCell@@SGPAVCObject@@XZ 00566170 f   GridCell.obj
 0001:001651f0       ?_GetBaseClass@CGridCell@@KGPAUCRuntimeClass@@XZ 005661f0 f   GridCell.obj
 0001:00165210       ?GetThisClass@CGridCell@@SGPAUCRuntimeClass@@XZ 00566210 f   GridCell.obj
 0001:00165230       ?GetRuntimeClass@CGridCell@@UBEPAUCRuntimeClass@@XZ 00566230 f   GridCell.obj
 0001:00165250       ?CreateObject@CGridDefaultCell@@SGPAVCObject@@XZ 00566250 f   GridCell.obj
 0001:001652d0       ?GetRuntimeClass@CGridDefaultCell@@UBEPAUCRuntimeClass@@XZ 005662d0 f   GridCell.obj
 0001:001652f0       ??0CGridCell@@QAE@XZ       005662f0 f   GridCell.obj
 0001:00165380       ?GetTipText@CGridCellBase@@UBEPB_WXZ 00566380 f i GridCell.obj
 0001:001653a0       ?IsFocused@CGridCellBase@@UBEHXZ 005663a0 f i GridCell.obj
 0001:001653c0       ?IsFixed@CGridCellBase@@UBEHXZ 005663c0 f i GridCell.obj
 0001:001653e0       ?IsFixedCol@CGridCellBase@@UBEHXZ 005663e0 f i GridCell.obj
 0001:00165400       ?IsFixedRow@CGridCellBase@@UBEHXZ 00566400 f i GridCell.obj
 0001:00165420       ?IsSelected@CGridCellBase@@UBEHXZ 00566420 f i GridCell.obj
 0001:00165440       ?IsReadOnly@CGridCellBase@@UBEHXZ 00566440 f i GridCell.obj
 0001:00165460       ?IsModified@CGridCellBase@@UBEHXZ 00566460 f i GridCell.obj
 0001:00165480       ?IsDropHighlighted@CGridCellBase@@UBEHXZ 00566480 f i GridCell.obj
 0001:001654a0       ?GetTipTextRect@CGridCellBase@@UAEHPAUtagRECT@@@Z 005664a0 f i GridCell.obj
 0001:001654d0       ?GetEditWnd@CGridCell@@UBEPAVCWnd@@XZ 005664d0 f i GridCell.obj
 0001:001654f0       ?GetText@CGridCell@@UBEPB_WXZ 005664f0 f i GridCell.obj
 0001:00165540       ?IsPrinting@CDC@@QBEHXZ    00566540 f i ChongQing11X5.obj
 0001:00165540       ?GetData@CGridCell@@UBEJXZ 00566540 f i GridCell.obj
 0001:00165540       ?GetCount@?$CMap@KKVCCellID@@AAV1@@@QBEHXZ 00566540 f i GridCtrl.obj
 0001:00165540       ?GetMaxCol@CCellRange@@QBEHXZ 00566540 f i GridCtrl.obj
 0001:00165560       ?GetGrid@CGridCell@@UBEPAVCGridCtrl@@XZ 00566560 f i GridCell.obj
 0001:00165580       ?GetTextClr@CGridCell@@UBEKXZ 00566580 f i GridCell.obj
 0001:001655a0       ?IsEditing@CGridCell@@UBEHXZ 005665a0 f i GridCell.obj
 0001:001655c0       ?IsDefaultFont@CGridCell@@UBEHXZ 005665c0 f i GridCell.obj
 0001:001655f0       ??_ECGridCell@@UAEPAXI@Z   005665f0 f i GridCell.obj
 0001:001655f0       ??_GCGridCell@@UAEPAXI@Z   005665f0 f i GridCell.obj
 0001:00165630       ??1CGridCell@@UAE@XZ       00566630 f   GridCell.obj
 0001:00165680       ?Reset@CGridCell@@UAEXXZ   00566680 f   GridCell.obj
 0001:00165720       ?SetFont@CGridCell@@UAEXPBUtagLOGFONTW@@@Z 00566720 f   GridCell.obj
 0001:001657a0       ?GetFont@CGridCell@@UBEPAUtagLOGFONTW@@XZ 005667a0 f   GridCell.obj
 0001:001657f0       ?GetFontObject@CGridCell@@UBEPAVCFont@@XZ 005667f0 f   GridCell.obj
 0001:001658c0       ?GetFormat@CGridCell@@UBEKXZ 005668c0 f   GridCell.obj
 0001:00165910       ?GetMargin@CGridCell@@UBEIXZ 00566910 f   GridCell.obj
 0001:00165960       ?Edit@CGridCell@@UAEHHHVCRect@@VCPoint@@II@Z 00566960 f   GridCell.obj
 0001:00165ab0       ?EndEdit@CGridCell@@UAEXXZ 00566ab0 f   GridCell.obj
 0001:00165ae0       ?OnEndEdit@CGridCell@@MAEXXZ 00566ae0 f   GridCell.obj
 0001:00165b10       ??0CGridDefaultCell@@QAE@XZ 00566b10 f   GridCell.obj
 0001:00165c70       ?GetStyle@CGridDefaultCell@@UBEKXZ 00566c70 f i GridCell.obj
 0001:00165c90       ?SetStyle@CGridDefaultCell@@UAEXK@Z 00566c90 f i GridCell.obj
 0001:00165cb0       ?GetHeight@CGridDefaultCell@@UBEHXZ 00566cb0 f i GridCell.obj
 0001:00165cd0       ?SetWidth@CGridDefaultCell@@UAEXH@Z 00566cd0 f i GridCell.obj
 0001:00165cf0       ?SetHeight@CGridDefaultCell@@UAEXH@Z 00566cf0 f i GridCell.obj
 0001:00165d10       ?GetState@CGridDefaultCell@@UBEKXZ 00566d10 f i GridCell.obj
 0001:00165d30       ??_GCGridDefaultCell@@UAEPAXI@Z 00566d30 f i GridCell.obj
 0001:00165d30       ??_ECGridDefaultCell@@UAEPAXI@Z 00566d30 f i GridCell.obj
 0001:00165d70       ??1CGridDefaultCell@@UAE@XZ 00566d70 f   GridCell.obj
 0001:00165df0       ?SetFont@CGridDefaultCell@@UAEXPBUtagLOGFONTW@@@Z 00566df0 f   GridCell.obj
 0001:00165f10       ?GetFont@CGridDefaultCell@@UBEPAUtagLOGFONTW@@XZ 00566f10 f   GridCell.obj
 0001:00165f30       ?GetFontObject@CGridDefaultCell@@UBEPAVCFont@@XZ 00566f30 f   GridCell.obj
 0001:00165f50       ?CreateFontIndirectW@CFont@@QAEHPBUtagLOGFONTW@@@Z 00566f50 f i GridCell.obj
 0001:00165f80       ?GetTextExtent@CDC@@QBE?AVCSize@@PB_WH@Z 00566f80 f i GridCell.obj
 0001:00165fd0       ?_GetBaseClass@CGridCellBase@@KGPAUCRuntimeClass@@XZ 00566fd0 f   GridCellBase.obj
 0001:00165ff0       ?GetThisClass@CGridCellBase@@SGPAUCRuntimeClass@@XZ 00566ff0 f   GridCellBase.obj
 0001:00166010       ?GetRuntimeClass@CGridCellBase@@UBEPAUCRuntimeClass@@XZ 00567010 f   GridCellBase.obj
 0001:00166030       ??0CGridCellBase@@QAE@XZ   00567030 f   GridCellBase.obj
 0001:001660a0       ?Edit@CGridCellBase@@UAEHHHVCRect@@VCPoint@@II@Z 005670a0 f i GridCellBase.obj
 0001:001660c0       ??_ECGridCellBase@@UAEPAXI@Z 005670c0 f i GridCellBase.obj
 0001:001660c0       ??_GCGridCellBase@@UAEPAXI@Z 005670c0 f i GridCellBase.obj
 0001:00166100       ??1CGridCellBase@@UAE@XZ   00567100 f   GridCellBase.obj
 0001:00166130       ?Reset@CGridCellBase@@UAEXXZ 00567130 f   GridCellBase.obj
 0001:00166150       ??4CGridCellBase@@UAEXABV0@@Z 00567150 f   GridCellBase.obj
 0001:001662a0       ?GetDefaultCell@CGridCellBase@@UBEPAV1@XZ 005672a0 f   GridCellBase.obj
 0001:00166300       ?Draw@CGridCellBase@@UAEHPAVCDC@@HHVCRect@@H@Z 00567300 f   GridCellBase.obj
 0001:00166e80       ?GetImageList@CGridCtrl@@QBEPAVCImageList@@XZ 00567e80 f i GridCellBase.obj
 0001:00166ea0       ?GetGridLines@CGridCtrl@@QBEHXZ 00567ea0 f i GridCellBase.obj
 0001:00166ec0       ?GetSortColumn@CGridCtrl@@QBEHXZ 00567ec0 f i GridCellBase.obj
 0001:00166ee0       ?GetSortAscending@CGridCtrl@@QBEHXZ 00567ee0 f i GridCellBase.obj
 0001:00166f00       ?GetTrackFocusCell@CGridCtrl@@QAEHXZ 00567f00 f i GridCellBase.obj
 0001:00166f20       ?GetFrameFocusCell@CGridCtrl@@QAEHXZ 00567f20 f i GridCellBase.obj
 0001:00166f40       ?OnSetCursor@CGridCellBase@@MAEHXZ 00567f40 f   GridCellBase.obj
 0001:00166f70       ?GetTextRect@CGridCellBase@@UAEHPAUtagRECT@@@Z 00567f70 f   GridCellBase.obj
 0001:00167000       ?GetTextExtent@CGridCellBase@@UAE?AVCSize@@PB_WPAVCDC@@@Z 00568000 f   GridCellBase.obj
 0001:00167450       ?GetCellExtent@CGridCellBase@@UAE?AVCSize@@PAVCDC@@@Z 00568450 f   GridCellBase.obj
 0001:001675c0       ?PrintCell@CGridCellBase@@UAEHPAVCDC@@HHVCRect@@@Z 005685c0 f   GridCellBase.obj
 0001:00167cf0       ?GetShadedPrintOut@CGridCtrl@@QAEHXZ 00568cf0 f i GridCellBase.obj
 0001:00167d10       ??1AFX_EXCEPTION_LINK@@QAE@XZ 00568d10 f i GridCellBase.obj
 0001:00167d30       ?Size@CRect@@QBE?AVCSize@@XZ 00568d30 f i GridCellBase.obj
 0001:00167d70       ?DeflateRect@CRect@@QAEXHH@Z 00568d70 f i GridCellBase.obj
 0001:00167da0       ?GetDeviceCaps@CDC@@QBEHH@Z 00568da0 f i GridCellBase.obj
 0001:00167dd0       ?FrameRect@CDC@@QAEXPBUtagRECT@@PAVCBrush@@@Z 00568dd0 f i GridCellBase.obj
 0001:00167e00       ?DrawEdge@CDC@@QAEHPAUtagRECT@@II@Z 00568e00 f i GridCellBase.obj
 0001:00167e30       ?GetCurrentPen@CDC@@QBEPAVCPen@@XZ 00568e30 f i GridCellBase.obj
 0001:00167e60       ?FromHandle@CFont@@SGPAV1@PAUHFONT__@@@Z 00568e60 f i GridCellCombo.obj
 0001:00167e60       ?FromHandle@CPen@@SGPAV1@PAUHPEN__@@@Z 00568e60 f i GridCellBase.obj
 0001:00167e80       ?Draw@CImageList@@QAEHPAVCDC@@HUtagPOINT@@I@Z 00568e80 f i GridCellBase.obj
 0001:00167ec0       ?AfxImageList_Draw@@YGHPAU_IMAGELIST@@HPAUHDC__@@HHI@Z 00568ec0 f i GridCellBase.obj
 0001:00167f00       ?_ImageList_Draw@CComCtlWrapper@@QAEHPAU_IMAGELIST@@HPAUHDC__@@HHI@Z 00568f00 f i GridCellBase.obj
 0001:00168040       ?GetProcAddress_ImageList_Draw@CComCtlWrapper@@QAE?AUImageList_Draw_Type@1@XZ 00569040 f i GridCellBase.obj
 0001:001680a0       ?GetModuleHandleW@CDllIsolationWrapperBase@@QAEPAUHINSTANCE__@@XZ 005690a0 f i GridCellBase.obj
 0001:00168110       ?GetImageInfo@CImageList@@QBEHHPAU_IMAGEINFO@@@Z 00569110 f i GridCellBase.obj
 0001:00168140       ?AfxImageList_GetImageInfo@@YGHPAU_IMAGELIST@@HPAU_IMAGEINFO@@@Z 00569140 f i GridCellBase.obj
 0001:00168170       ?_ImageList_GetImageInfo@CComCtlWrapper@@QAEHPAU_IMAGELIST@@HPAU_IMAGEINFO@@@Z 00569170 f i GridCellBase.obj
 0001:001682a0       ?GetProcAddress_ImageList_GetImageInfo@CComCtlWrapper@@QAE?AUImageList_GetImageInfo_Type@1@XZ 005692a0 f i GridCellBase.obj
 0001:00168300       ?CreateObject@CGridCellCheck@@SGPAVCObject@@XZ 00569300 f   GridCellCheck.obj
 0001:00168380       ?_GetBaseClass@CGridCellCheck@@KGPAUCRuntimeClass@@XZ 00569380 f   GridCellCheck.obj
 0001:00168380       ?_GetBaseClass@CGridDefaultCell@@KGPAUCRuntimeClass@@XZ 00569380 f   GridCell.obj
 0001:001683a0       ?GetThisClass@CGridCellCheck@@SGPAUCRuntimeClass@@XZ 005693a0 f   GridCellCheck.obj
 0001:001683c0       ?GetRuntimeClass@CGridCellCheck@@UBEPAUCRuntimeClass@@XZ 005693c0 f   GridCellCheck.obj
 0001:001683e0       ??0CGridCellCheck@@QAE@XZ  005693e0 f   GridCellCheck.obj
 0001:00168420       ??_ECGridCellCheck@@UAEPAXI@Z 00569420 f i GridCellCheck.obj
 0001:00168420       ??_GCGridCellCheck@@UAEPAXI@Z 00569420 f i GridCellCheck.obj
 0001:00168460       ??1CGridCellCheck@@UAE@XZ  00569460 f i GridCellCheck.obj
 0001:00168480       ?GetCellExtent@CGridCellCheck@@UAE?AVCSize@@PAVCDC@@@Z 00569480 f   GridCellCheck.obj
 0001:00168500       ?GetTextRect@CGridCellCheck@@UAEHPAUtagRECT@@@Z 00569500 f   GridCellCheck.obj
 0001:00168570       ?Draw@CGridCellCheck@@MAEHPAVCDC@@HHVCRect@@H@Z 00569570 f   GridCellCheck.obj
 0001:00168620       ?OnClick@CGridCellCheck@@UAEXVCPoint@@@Z 00569620 f   GridCellCheck.obj
 0001:00168700       ?SetCheck@CGridCellCheck@@QAEHH@Z 00569700 f   GridCellCheck.obj
 0001:00168760       ?GetWidth@CGridDefaultCell@@UBEHXZ 00569760 f   GridCell.obj
 0001:00168760       ?GetCheck@CGridCellCheck@@QAEHXZ 00569760 f   GridCellCheck.obj
 0001:00168780       ?GetCheckPlacement@CGridCellCheck@@IAE?AVCRect@@XZ 00569780 f   GridCellCheck.obj
 0001:00168860       ??YCPoint@@QAEXUtagPOINT@@@Z 00569860 f i GridCellCheck.obj
 0001:00168860       ??YCSize@@QAEXUtagSIZE@@@Z 00569860 f i GridCellBase.obj
 0001:001688a0       ?IsRectEmpty@CRect@@QBEHXZ 005698a0 f i GridCellCheck.obj
 0001:001688c0       ??HCRect@@QBE?AV0@UtagSIZE@@@Z 005698c0 f i GridCellCheck.obj
 0001:00168920       ?DrawFrameControl@CDC@@QAEHPAUtagRECT@@II@Z 00569920 f i GridCellCheck.obj
 0001:00168950       ?OnKillFocus@CComboEdit@@IAEXPAVCWnd@@@Z 00569950 f   GridCellCombo.obj
 0001:00168990       ?OnKeyDown@CComboEdit@@IAEXIII@Z 00569990 f   GridCellCombo.obj
 0001:00168a30       ?OnKeyUp@CComboEdit@@IAEXIII@Z 00569a30 f   GridCellCombo.obj
 0001:00168ad0       ?EndEdit@CInPlaceList@@QAEXXZ 00569ad0 f   GridCellCombo.obj
 0001:00168c40       ?GetCorrectDropWidth@CInPlaceList@@IAEHXZ 00569c40 f   GridCellCombo.obj
 0001:00168df0       ?OnDropdown@CInPlaceList@@IAEXXZ 00569df0 f   GridCellCombo.obj
 0001:00168e20       ?OnKillFocus@CInPlaceList@@IAEXPAVCWnd@@@Z 00569e20 f   GridCellCombo.obj
 0001:00168e80       ?OnKeyDown@CInPlaceList@@IAEXIII@Z 00569e80 f   GridCellCombo.obj
 0001:00168f10       ?OnKeyUp@CInPlaceList@@IAEXIII@Z 00569f10 f   GridCellCombo.obj
 0001:00168f90       ?GetOwner@CWnd@@QBEPAV1@XZ 00569f90 f i GridCellCombo.obj
 0001:00168fd0       ?GetFont@CWnd@@QBEPAVCFont@@XZ 00569fd0 f i GridCellCombo.obj
 0001:00169000       ?OnWindowPosChanging@CWnd@@IAEXPAUtagWINDOWPOS@@@Z 0056a000 f i DlgEnquire.obj
 0001:00169000       ?OnKillFocus@CWnd@@IAEXPAV1@@Z 0056a000 f i GridCellCombo.obj
 0001:00169000       ?OnTimer@CWnd@@IAEXI@Z     0056a000 f i ChongQing11X5.obj
 0001:00169000       ?OnCreate@CWnd@@IAEHPAUtagCREATESTRUCTW@@@Z 0056a000 f i DlgCollocate.obj
 0001:00169020       ?SetDroppedWidth@CComboBox@@QAEHI@Z 0056a020 f i GridCellCombo.obj
 0001:00169050       ?EndEdit@CInPlaceDateTime@@QAEXXZ 0056a050 f   GridCellDateTime.obj
 0001:001691d0       ?OnKillFocus@CInPlaceDateTime@@IAEXPAVCWnd@@@Z 0056a1d0 f   GridCellDateTime.obj
 0001:00169220       ?OnKeyDown@CInPlaceDateTime@@IAEXIII@Z 0056a220 f   GridCellDateTime.obj
 0001:00169220       ?OnKeyDown@CInPlaceEdit@@IAEXIII@Z 0056a220 f   InPlaceEdit.obj
 0001:001692a0       ?OnKeyUp@CInPlaceDateTime@@IAEXIII@Z 0056a2a0 f   GridCellDateTime.obj
 0001:00169300       ?CreateObject@CGridCtrl@@SGPAVCObject@@XZ 0056a300 f   GridCtrl.obj
 0001:00169380       ?_GetBaseClass@CImgStatic@@KGPAUCRuntimeClass@@XZ 0056a380 f   ImgStatic.obj
 0001:00169380       ?_GetBaseClass@CGridCtrl@@KGPAUCRuntimeClass@@XZ 0056a380 f   GridCtrl.obj
 0001:001693a0       ?GetThisClass@CGridCtrl@@SGPAUCRuntimeClass@@XZ 0056a3a0 f   GridCtrl.obj
 0001:001693c0       ?GetRuntimeClass@CGridCtrl@@UBEPAUCRuntimeClass@@XZ 0056a3c0 f   GridCtrl.obj
 0001:001693e0       ?GetMouseScrollLines@@YAIXZ 0056a3e0 f   GridCtrl.obj
 0001:001694d0       ??0CGridCtrl@@QAE@HHHH@Z   0056a4d0 f   GridCtrl.obj
 0001:00169a70       ?SetTitleTipBackClr@CGridCtrl@@QAEXK@Z 0056aa70 f i GridCtrl.obj
 0001:00169a90       ?SetTitleTipTextClr@CGridCtrl@@QAEXK@Z 0056aa90 f i GridCtrl.obj
 0001:00169ab0       ??_GCGridCtrl@@UAEPAXI@Z   0056aab0 f i GridCtrl.obj
 0001:00169ab0       ??_ECGridCtrl@@UAEPAXI@Z   0056aab0 f i GridCtrl.obj
 0001:00169af0       ??0?$CTypedPtrArray@VCObArray@@PAV?$CTypedPtrArray@VCObArray@@PAVCGridCellBase@@@@@@QAE@XZ 0056aaf0 f i GridCtrl.obj
 0001:00169b20       ??_E?$CTypedPtrArray@VCObArray@@PAVCGridCellBase@@@@UAEPAXI@Z 0056ab20 f i GridCtrl.obj
 0001:00169b20       ??_G?$CTypedPtrArray@VCObArray@@PAVCGridCellBase@@@@UAEPAXI@Z 0056ab20 f i GridCtrl.obj
 0001:00169b20       ??_G?$CTypedPtrArray@VCObArray@@PAV?$CTypedPtrArray@VCObArray@@PAVCGridCellBase@@@@@@UAEPAXI@Z 0056ab20 f i GridCtrl.obj
 0001:00169b20       ??_E?$CTypedPtrArray@VCObArray@@PAV?$CTypedPtrArray@VCObArray@@PAVCGridCellBase@@@@@@UAEPAXI@Z 0056ab20 f i GridCtrl.obj
 0001:00169b60       ??1CGridCtrl@@UAE@XZ       0056ab60 f   GridCtrl.obj
 0001:00169d30       ?RegisterWindowClass@CGridCtrl@@IAEHXZ 0056ad30 f   GridCtrl.obj
 0001:00169dd0       ?Initialise@CGridCtrl@@IAEHXZ 0056add0 f   GridCtrl.obj
 0001:00169ec0       ?SetParentWnd@CTitleTip@@QAEXPAVCWnd@@@Z 0056aec0 f i GridCtrl.obj
 0001:00169ee0       ?Create@CGridCtrl@@QAEHABUtagRECT@@PAVCWnd@@IK@Z 0056aee0 f   GridCtrl.obj
 0001:0016a0a0       ?SetupDefaultCells@CGridCtrl@@IAEXXZ 0056b0a0 f   GridCtrl.obj
 0001:0016a210       ?PreSubclassWindow@CGridCtrl@@MAEXXZ 0056b210 f   GridCtrl.obj
 0001:0016a240       ?SendMessageToParent@CGridCtrl@@IBEJHHH@Z 0056b240 f   GridCtrl.obj
 0001:0016a2d0       ?SendDisplayRequestToParent@CGridCtrl@@IBEJPAUtagGV_DISPINFO@@@Z 0056b2d0 f   GridCtrl.obj
 0001:0016a360       ?SendCacheHintToParent@CGridCtrl@@IBEJABVCCellRange@@@Z 0056b360 f   GridCtrl.obj
 0001:0016a400       ??4CCellRange@@QAEXABV0@@Z 0056b400 f i GridCtrl.obj
 0001:0016a440       ?Set@CCellRange@@QAEXHHHH@Z 0056b440 f i GridCtrl.obj
 0001:0016a480       ??0tagGV_CACHEHINT@@QAE@XZ 0056b480 f i GridCtrl.obj
 0001:0016a4b0       ??0CCellRange@@QAE@HHHH@Z  0056b4b0 f i GridCtrl.obj
 0001:0016a4e0       ?GetMessageMap@CGridCtrl@@MBEPBUAFX_MSGMAP@@XZ 0056b4e0 f   GridCtrl.obj
 0001:0016a500       ?GetThisMessageMap@CGridCtrl@@KGPBUAFX_MSGMAP@@XZ 0056b500 f   GridCtrl.obj
 0001:0016a520       ?OnPaint@CGridCtrl@@IAEXXZ 0056b520 f   GridCtrl.obj
 0001:0016a5f0       ??0CMemDC@@QAE@PAVCDC@@@Z  0056b5f0 f i GridCtrl.obj
 0001:0016a760       ?EraseBkgnd@CGridCtrl@@IAEXPAVCDC@@@Z 0056b760 f   GridCtrl.obj
 0001:0016ab30       ?OnSize@CGridCtrl@@IAEXIHH@Z 0056bb30 f   GridCtrl.obj
 0001:0016abc0       ?OnGetDlgCode@CGridCtrl@@IAEIXZ 0056bbc0 f   GridCtrl.obj
 0001:0016ac10       ?OnSysColorChange@CGridCtrl@@IAEXXZ 0056bc10 f   GridCtrl.obj
 0001:0016aed0       ?OnCaptureChanged@CGridCtrl@@IAEXPAVCWnd@@@Z 0056bed0 f   GridCtrl.obj
 0001:0016af50       ?OnTimer@CGridCtrl@@IAEXI@Z 0056bf50 f   GridCtrl.obj
 0001:0016b170       ?OnKeyDown@CGridCtrl@@IAEXIII@Z 0056c170 f   GridCtrl.obj
 0001:0016bc20       ??9CCellID@@QBEHABV0@@Z    0056cc20 f i GridCtrl.obj
 0001:0016bc50       ?EnsureVisible@CGridCtrl@@QAEXAAVCCellID@@@Z 0056cc50 f i GridCtrl.obj
 0001:0016bc80       ?OnSysKeyDown@CGridCtrl@@IAEXIII@Z 0056cc80 f   GridCtrl.obj
 0001:0016bcb0       ?OnChar@CGridCtrl@@IAEXIII@Z 0056ccb0 f   GridCtrl.obj
 0001:0016bd60       ?OnImeChar@CGridCtrl@@IAEJIJ@Z 0056cd60 f   GridCtrl.obj
 0001:0016bde0       ?OnEndInPlaceEdit@CGridCtrl@@IAEXPAUtagNMHDR@@PAJ@Z 0056cde0 f   GridCtrl.obj
 0001:0016bed0       ?OnHScroll@CGridCtrl@@IAEXIIPAVCScrollBar@@@Z 0056ced0 f   GridCtrl.obj
 0001:0016c290       ?OnVScroll@CGridCtrl@@IAEXIIPAVCScrollBar@@@Z 0056d290 f   GridCtrl.obj
 0001:0016c620       ?OnDraw@CGridCtrl@@MAEXPAVCDC@@@Z 0056d620 f   GridCtrl.obj
 0001:0016ce00       ?IsValid@CGridCtrl@@QBEHHH@Z 0056de00 f   GridCtrl.obj
 0001:0016ce50       ?IsValid@CGridCtrl@@QBEHABVCCellID@@@Z 0056de50 f   GridCtrl.obj
 0001:0016ce80       ?IsValid@CGridCtrl@@QBEHABVCCellRange@@@Z 0056de80 f   GridCtrl.obj
 0001:0016cf30       ?RedrawCell@CGridCtrl@@QAEHABVCCellID@@PAVCDC@@@Z 0056df30 f   GridCtrl.obj
 0001:0016cf60       ?RedrawCell@CGridCtrl@@QAEHHHPAVCDC@@@Z 0056df60 f   GridCtrl.obj
 0001:0016d200       ?SetFocusCell@CGridCtrl@@QAE?AVCCellID@@HH@Z 0056e200 f   GridCtrl.obj
 0001:0016d240       ?SetFocusCell@CGridCtrl@@QAE?AVCCellID@@V2@@Z 0056e240 f   GridCtrl.obj
 0001:0016d500       ?SetSelectedRange@CGridCtrl@@QAEXABVCCellRange@@HH@Z 0056e500 f   GridCtrl.obj
 0001:0016d550       ?SetSelectedRange@CGridCtrl@@QAEXHHHHHH@Z 0056e550 f   GridCtrl.obj
 0001:0016daa0       ?IsValid@CCellRange@@QBEHXZ 0056eaa0 f i GridCtrl.obj
 0001:0016db10       ?InRange@CCellRange@@QBEHHH@Z 0056eb10 f i GridCtrl.obj
 0001:0016db70       ?InRange@CCellRange@@QBEHABVCCellID@@@Z 0056eb70 f i GridCtrl.obj
 0001:0016dba0       ?GetSingleRowSelection@CGridCtrl@@QAEHXZ 0056eba0 f i GridCtrl.obj
 0001:0016dbd0       ?SelectAllCells@CGridCtrl@@IAEXXZ 0056ebd0 f   GridCtrl.obj
 0001:0016dc30       ?SelectColumns@CGridCtrl@@IAEXVCCellID@@HH@Z 0056ec30 f   GridCtrl.obj
 0001:0016dd30       ?GetSingleColSelection@CGridCtrl@@QAEHXZ 0056ed30 f i GridCtrl.obj
 0001:0016dd50       ?SelectRows@CGridCtrl@@IAEXVCCellID@@HH@Z 0056ed50 f   GridCtrl.obj
 0001:0016de70       ?SelectCells@CGridCtrl@@IAEXVCCellID@@HH@Z 0056ee70 f   GridCtrl.obj
 0001:0016df80       ?OnSelecting@CGridCtrl@@IAEXABVCCellID@@@Z 0056ef80 f   GridCtrl.obj
 0001:0016e030       ?ValidateAndModifyCellContents@CGridCtrl@@IAEXHHPB_W@Z 0056f030 f   GridCtrl.obj
 0001:0016e180       ?CutSelectedText@CGridCtrl@@UAEXXZ 0056f180 f   GridCtrl.obj
 0001:0016e200       ?IsEditable@CGridCtrl@@QBEHXZ 0056f200 f i GridCtrl.obj
 0001:0016e220       ?CopyTextFromGrid@CGridCtrl@@UAEPAVCOleDataSource@@XZ 0056f220 f   GridCtrl.obj
 0001:0016e610       ?PasteTextToGrid@CGridCtrl@@UAEHVCCellID@@PAVCOleDataObject@@H@Z 0056f610 f   GridCtrl.obj
 0001:0016ecd0       ?SetMaxRow@CCellRange@@QAEXH@Z 0056fcd0 f i GridCtrl.obj
 0001:0016ecd0       ?SetParentWndSink@CControlCheckButton@@QAEXPAVCWnd@@@Z 0056fcd0 f i DlgLogon.obj
 0001:0016ecf0       ?OnBeginDrag@CGridCtrl@@UAEXXZ 0056fcf0 f   GridCtrl.obj
 0001:0016eeb0       ?GetTopLeft@CCellRange@@QBE?AVCCellID@@XZ 0056feb0 f i GridCtrl.obj
 0001:0016eee0       ?OnDragOver@CGridCtrl@@UAEKPAVCOleDataObject@@KVCPoint@@@Z 0056fee0 f   GridCtrl.obj
 0001:0016f160       ?OnDragEnter@CGridCtrl@@UAEKPAVCOleDataObject@@KVCPoint@@@Z 00570160 f   GridCtrl.obj
 0001:0016f2f0       ?OnDragLeave@CGridCtrl@@UAEXXZ 005702f0 f   GridCtrl.obj
 0001:0016f370       ?OnDrop@CGridCtrl@@UAEHPAVCOleDataObject@@KVCPoint@@@Z 00570370 f   GridCtrl.obj
 0001:0016f550       ?OnEditCut@CGridCtrl@@UAEXXZ 00570550 f   GridCtrl.obj
 0001:0016f5b0       ?OnEditCopy@CGridCtrl@@UAEXXZ 005705b0 f   GridCtrl.obj
 0001:0016f5f0       ?OnEditPaste@CGridCtrl@@UAEXXZ 005705f0 f   GridCtrl.obj
 0001:0016f790       ??1COleDataObject@@QAE@XZ  00570790 f i GridCtrl.obj
 0001:0016f7b0       ?OnEditSelectAll@CGridCtrl@@UAEXXZ 005707b0 f   GridCtrl.obj
 0001:0016f810       ?OnUpdateEditCopy@CGridCtrl@@IAEXPAVCCmdUI@@@Z 00570810 f   GridCtrl.obj
 0001:0016f850       ?GetSelectedCount@CGridCtrl@@QBEHXZ 00570850 f i GridCtrl.obj
 0001:0016f880       ?OnUpdateEditCut@CGridCtrl@@IAEXPAVCCmdUI@@@Z 00570880 f   GridCtrl.obj
 0001:0016f8d0       ?OnUpdateEditPaste@CGridCtrl@@IAEXPAVCCmdUI@@@Z 005708d0 f   GridCtrl.obj
 0001:0016f950       ?OnUpdateEditSelectAll@CGridCtrl@@IAEXPAVCCmdUI@@@Z 00570950 f   GridCtrl.obj
 0001:0016f980       ?MouseOverRowResizeArea@CGridCtrl@@IAEHAAVCPoint@@@Z 00570980 f   GridCtrl.obj
 0001:0016fa30       ?MouseOverColumnResizeArea@CGridCtrl@@IAEHAAVCPoint@@@Z 00570a30 f   GridCtrl.obj
 0001:0016fae0       ?GetCellFromPt@CGridCtrl@@QAE?AVCCellID@@VCPoint@@H@Z 00570ae0 f   GridCtrl.obj
 0001:0016fd00       ?GetTopleftNonFixedCell@CGridCtrl@@IAE?AVCCellID@@H@Z 00570d00 f   GridCtrl.obj
 0001:0016fe60       ?IsValid@CCellID@@QBEHXZ   00570e60 f i GridCtrl.obj
 0001:0016fea0       ?GetVisibleNonFixedCellRange@CGridCtrl@@IAE?AVCCellRange@@PAUtagRECT@@H@Z 00570ea0 f   GridCtrl.obj
 0001:00170020       ?GetVisibleFixedCellRange@CGridCtrl@@IAE?AVCCellRange@@PAUtagRECT@@H@Z 00571020 f   GridCtrl.obj
 0001:001701a0       ?GetSelectedCellRange@CGridCtrl@@QBE?AVCCellRange@@XZ 005711a0 f   GridCtrl.obj
 0001:001702f0       ?ResetSelectedRange@CGridCtrl@@IAEXXZ 005712f0 f   GridCtrl.obj
 0001:00170340       ?GetScrollPos32@CGridCtrl@@IAEHHH@Z 00571340 f   GridCtrl.obj
 0001:001703a0       ?SetScrollPos32@CGridCtrl@@IAEHHHH@Z 005713a0 f   GridCtrl.obj
 0001:001703f0       ?EnableScrollBars@CGridCtrl@@IAEXHH@Z 005713f0 f   GridCtrl.obj
 0001:00170500       ?IsVisibleVScroll@CGridCtrl@@IAEHXZ 00571500 f i GridCtrl.obj
 0001:00170530       ?IsVisibleHScroll@CGridCtrl@@IAEHXZ 00571530 f i GridCtrl.obj
 0001:00170560       ?ResetScrollBars@CGridCtrl@@IAEXXZ 00571560 f   GridCtrl.obj
 0001:00170860       ?GetCellOrigin@CGridCtrl@@QAEHHHPAUtagPOINT@@@Z 00571860 f   GridCtrl.obj
 0001:00170a80       ?GetCellOrigin@CGridCtrl@@QAEHABVCCellID@@PAUtagPOINT@@@Z 00571a80 f   GridCtrl.obj
 0001:00170ab0       ?GetCellRect@CGridCtrl@@QAEHABVCCellID@@PAUtagRECT@@@Z 00571ab0 f   GridCtrl.obj
 0001:00170ae0       ?GetCellRect@CGridCtrl@@QAEHHHPAUtagRECT@@@Z 00571ae0 f   GridCtrl.obj
 0001:00170b70       ?OnSetFont@CGridCtrl@@IAEJIJ@Z 00571b70 f   GridCtrl.obj
 0001:00170c40       ?OnGetFont@CGridCtrl@@IAEJIJ@Z 00571c40 f   GridCtrl.obj
 0001:00170c80       ?OnSetCursor@CGridCtrl@@IAEHPAVCWnd@@II@Z 00571c80 f   GridCtrl.obj
 0001:00170db0       ?SetFixedRowCount@CGridCtrl@@QAEHH@Z 00571db0 f   GridCtrl.obj
 0001:00170ff0       ?SetFixedColumnCount@CGridCtrl@@QAEHH@Z 00571ff0 f   GridCtrl.obj
 0001:00171250       ?SetRowCount@CGridCtrl@@QAEHH@Z 00572250 f   GridCtrl.obj
 0001:00171710       ??0?$CTypedPtrArray@VCObArray@@PAVCGridCellBase@@@@QAE@XZ 00572710 f i GridCtrl.obj
 0001:00171740       ??1?$CTypedPtrArray@VCObArray@@PAVCGridCellBase@@@@UAE@XZ 00572740 f i GridCtrl.obj
 0001:00171740       ??1?$CTypedPtrArray@VCObArray@@PAV?$CTypedPtrArray@VCObArray@@PAVCGridCellBase@@@@@@UAE@XZ 00572740 f i GridCtrl.obj
 0001:00171760       ?SetColumnCount@CGridCtrl@@QAEHH@Z 00572760 f   GridCtrl.obj
 0001:00171b10       ?SetCellType@CGridCtrl@@QAEHHHPAUCRuntimeClass@@@Z 00572b10 f   GridCtrl.obj
 0001:00171bf0       ?SetCell@CGridCtrl@@IAEHHHPAVCGridCellBase@@@Z 00572bf0 f i GridCtrl.obj
 0001:00171c90       ?CreateCell@CGridCtrl@@MAEPAVCGridCellBase@@HH@Z 00572c90 f   GridCtrl.obj
 0001:00171da0       ?DestroyCell@CGridCtrl@@MAEXHH@Z 00572da0 f   GridCtrl.obj
 0001:00171e10       ?AddSubVirtualRow@CGridCtrl@@MAEXHH@Z 00572e10 f   GridCtrl.obj
 0001:00171f20       ?DeleteAllItems@CGridCtrl@@QAEHXZ 00572f20 f   GridCtrl.obj
 0001:001720a0       ?SortItems@CGridCtrl@@QAEHHHJ@Z 005730a0 f   GridCtrl.obj
 0001:00172130       ?SetSortAscending@CGridCtrl@@QAEXH@Z 00573130 f i GridCtrl.obj
 0001:00172160       ?SortItems@CGridCtrl@@QAEHP6GHJJJ@ZHHJ@Z 00573160 f   GridCtrl.obj
 0001:001721d0       ?pfnCellTextCompare@CGridCtrl@@SGHJJJ@Z 005731d0 f   GridCtrl.obj
 0001:00172230       ?NotVirtualCompare@CGridCtrl@@CA_NHH@Z 00573230 f   GridCtrl.obj
 0001:00172270       ?SortItems@CGridCtrl@@IAEHP6GHJJJ@ZHHJHH@Z 00573270 f   GridCtrl.obj
 0001:001725f0       ?SetItem@CGridCtrl@@QAEHPBU_GV_ITEM@@@Z 005735f0 f   GridCtrl.obj
 0001:00172790       ?SetItemText@CGridCtrl@@QAEHHHPB_W@Z 00573790 f   GridCtrl.obj
 0001:00172800       ?SetItemState@CGridCtrl@@QAEHHHI@Z 00573800 f   GridCtrl.obj
 0001:00172920       ?GetItemState@CGridCtrl@@QBEIHH@Z 00573920 f   GridCtrl.obj
 0001:00172960       ?SetItemBkColour@CGridCtrl@@QAEHHHK@Z 00573960 f   GridCtrl.obj
 0001:001729c0       ?SetItemFgColour@CGridCtrl@@QAEHHHK@Z 005739c0 f   GridCtrl.obj
 0001:00172a20       ?IsItemEditing@CGridCtrl@@QAEHHH@Z 00573a20 f   GridCtrl.obj
 0001:00172a60       ?GetVirtualWidth@CGridCtrl@@QBEJXZ 00573a60 f   GridCtrl.obj
 0001:00172ac0       ?InflateRect@CRect@@QAEXHH@Z 00573ac0 f i GridCtrl.obj
 0001:00172af0       ?GetVirtualHeight@CGridCtrl@@QBEJXZ 00573af0 f   GridCtrl.obj
 0001:00172b50       ?GetRowHeight@CGridCtrl@@QBEHH@Z 00573b50 f   GridCtrl.obj
 0001:00172b90       ?GetColumnWidth@CGridCtrl@@QBEHH@Z 00573b90 f   GridCtrl.obj
 0001:00172bf0       ?SetRowHeight@CGridCtrl@@QAEHHH@Z 00573bf0 f   GridCtrl.obj
 0001:00172c50       ?SetColumnWidth@CGridCtrl@@QAEHHH@Z 00573c50 f   GridCtrl.obj
 0001:00172cc0       ?GetFixedRowHeight@CGridCtrl@@QBEHXZ 00573cc0 f   GridCtrl.obj
 0001:00172d20       ?IntersectRect@CRect@@QAEHPBUtagRECT@@0@Z 00573d20 f i GridCtrl.obj
 0001:00172d50       ?GetFixedColumnWidth@CGridCtrl@@QBEHXZ 00573d50 f   GridCtrl.obj
 0001:00172db0       ?AutoSizeColumn@CGridCtrl@@QAEHHIH@Z 00573db0 f   GridCtrl.obj
 0001:00172f90       ?GetAutoSizeStyle@CGridCtrl@@QAEHXZ 00573f90 f i GridCtrl.obj
 0001:00172fb0       ?AutoSizeRow@CGridCtrl@@QAEHHH@Z 00573fb0 f   GridCtrl.obj
 0001:00173120       ?AutoSizeColumns@CGridCtrl@@QAEXI@Z 00574120 f   GridCtrl.obj
 0001:00173190       ?SetGridLines@CGridCtrl@@QAEXH@Z 00574190 f   GridCtrl.obj
 0001:001731c0       ?SetSortColumn@CGridCtrl@@QAEXH@Z 005741c0 f   GridCtrl.obj
 0001:00173220       ?SetModified@CGridCtrl@@QAEXHHH@Z 00574220 f   GridCtrl.obj
 0001:00173350       ?Refresh@CGridCtrl@@QAEXXZ 00574350 f   GridCtrl.obj
 0001:00173390       ?EnsureVisible@CGridCtrl@@QAEXHH@Z 00574390 f   GridCtrl.obj
 0001:00173660       ?IsCellEditable@CGridCtrl@@QBEHAAVCCellID@@@Z 00574660 f   GridCtrl.obj
 0001:00173690       ?IsCellEditable@CGridCtrl@@QBEHHH@Z 00574690 f   GridCtrl.obj
 0001:001736e0       ?IsCellSelected@CGridCtrl@@QBEHAAVCCellID@@@Z 005746e0 f   GridCtrl.obj
 0001:00173710       ?IsCellSelected@CGridCtrl@@QBEHHH@Z 00574710 f   GridCtrl.obj
 0001:001737c0       ?IsSelectable@CGridCtrl@@QBEHXZ 005747c0 f i GridCtrl.obj
 0001:001737c0       ?GetServiceStatus@CServerViewItem@@UAE?AW4enServiceStatus@@XZ 005747c0 f i ServerViewItem.obj
 0001:001737e0       ?IsCellVisible@CGridCtrl@@QAEHVCCellID@@@Z 005747e0 f   GridCtrl.obj
 0001:00173810       ?RemoveAll@CUIntArray@@QAEXXZ 00574810 f i GridCtrl.obj
 0001:00173830       ?IsCellVisible@CGridCtrl@@QAEHHH@Z 00574830 f   GridCtrl.obj
 0001:00173a30       ?InvalidateCellRect@CGridCtrl@@IAEHABVCCellID@@@Z 00574a30 f   GridCtrl.obj
 0001:00173a60       ?InvalidateCellRect@CGridCtrl@@IAEHHH@Z 00574a60 f   GridCtrl.obj
 0001:00173b20       ?OnMouseWheel@CGridCtrl@@IAEHIFVCPoint@@@Z 00574b20 f   GridCtrl.obj
 0001:00173c50       ?OnMouseMove@CGridCtrl@@IAEXIVCPoint@@@Z 00574c50 f   GridCtrl.obj
 0001:00174210       ?GetTitleTipBackClr@CGridCtrl@@QAEKXZ 00575210 f i GridCtrl.obj
 0001:00174230       ?GetTitleTipTextClr@CGridCtrl@@QAEKXZ 00575230 f i GridCtrl.obj
 0001:00174250       ?RemoveAll@CObArray@@QAEXXZ 00575250 f i GridCtrl.obj
 0001:00174270       ?GetPointClicked@CGridCtrl@@IAE?AVCPoint@@HHABV2@@Z 00575270 f   GridCtrl.obj
 0001:00174300       ??ZCPoint@@QAEXUtagPOINT@@@Z 00575300 f i GridCtrl.obj
 0001:00174340       ?OnLButtonDblClk@CGridCtrl@@IAEXIVCPoint@@@Z 00575340 f   GridCtrl.obj
 0001:001746f0       ?OnLButtonDown@CGridCtrl@@IAEXIVCPoint@@@Z 005756f0 f   GridCtrl.obj
 0001:001752c0       ?GetListMode@CGridCtrl@@QBEHXZ 005762c0 f i GridCtrl.obj
 0001:001752e0       ?OnLButtonUp@CGridCtrl@@IAEXIVCPoint@@@Z 005762e0 f   GridCtrl.obj
 0001:001758b0       ??9CPoint@@QBEHUtagPOINT@@@Z 005768b0 f i GridCtrl.obj
 0001:001758f0       ?OnRButtonUp@CGridCtrl@@IAEXIVCPoint@@@Z 005768f0 f   GridCtrl.obj
 0001:00175a50       ?SetPrintMarginInfo@CGridCtrl@@QAEXHHHHHHH@Z 00576a50 f   GridCtrl.obj
 0001:00175af0       ?OnBeginPrinting@CGridCtrl@@UAEXPAVCDC@@PAUCPrintInfo@@@Z 00576af0 f   GridCtrl.obj
 0001:00175f80       ?OnPrint@CGridCtrl@@UAEXPAVCDC@@PAUCPrintInfo@@@Z 00576f80 f   GridCtrl.obj
 0001:00176760       ?PrintFixedRowCells@CGridCtrl@@MAEXHHAAHAAVCRect@@PAVCDC@@0@Z 00577760 f   GridCtrl.obj
 0001:00176970       ?PrintColumnHeadings@CGridCtrl@@MAEXPAVCDC@@PAUCPrintInfo@@@Z 00577970 f   GridCtrl.obj
 0001:00176a90       ?PrintRowButtons@CGridCtrl@@MAEXPAVCDC@@PAUCPrintInfo@@@Z 00577a90 f   GridCtrl.obj
 0001:00176cf0       ?PrintHeader@CGridCtrl@@MAEXPAVCDC@@PAUCPrintInfo@@@Z 00577cf0 f   GridCtrl.obj
 0001:00176f10       ?PrintFooter@CGridCtrl@@MAEXPAVCDC@@PAUCPrintInfo@@@Z 00577f10 f   GridCtrl.obj
 0001:00177160       ?OnEndPrinting@CGridCtrl@@UAEXPAVCDC@@PAUCPrintInfo@@@Z 00578160 f   GridCtrl.obj
 0001:00177190       ?CreateDragImage@CGridCtrl@@MAEPAVCImageList@@PAVCPoint@@@Z 00578190 f   GridCtrl.obj
 0001:00177490       ?OnFixedRowClick@CGridCtrl@@MAEXAAVCCellID@@@Z 00578490 f   GridCtrl.obj
 0001:001775b0       ?OnFixedColumnClick@CGridCtrl@@MAEXAAVCCellID@@@Z 005785b0 f   GridCtrl.obj
 0001:00177630       ?GetFixedRowSelection@CGridCtrl@@QAEHXZ 00578630 f i GridCtrl.obj
 0001:00177650       ?OnEditCell@CGridCtrl@@MAEXHHVCPoint@@I@Z 00578650 f   GridCtrl.obj
 0001:00177770       ?EndEditing@CGridCtrl@@MAEXXZ 00578770 f   GridCtrl.obj
 0001:001777d0       ?OnEndEditCell@CGridCtrl@@MAEXHHV?$CStringT@_WV?$StrTraitMFC_DLL@_WV?$ChTraitsCRT@_W@ATL@@@@@ATL@@@Z 005787d0 f   GridCtrl.obj
 0001:00177930       ?ValidateEdit@CGridCtrl@@MAEHHHPB_W@Z 00578930 f   GridCtrl.obj
 0001:00177980       ?GetItemText@CGridCtrl@@QBE?AV?$CStringT@_WV?$StrTraitMFC_DLL@_WV?$ChTraitsCRT@_W@ATL@@@@@ATL@@HH@Z 00578980 f   GridCtrl.obj
 0001:00177a40       ?ResetVirtualOrder@CGridCtrl@@AAEXXZ 00578a40 f   GridCtrl.obj
 0001:00177ab0       ?Reorder@CGridCtrl@@QAEXHH@Z 00578ab0 f   GridCtrl.obj
 0001:00177b80       ??A?$CTypedPtrArray@VCObArray@@PAV?$CTypedPtrArray@VCObArray@@PAVCGridCellBase@@@@@@QAEAAPAV?$CTypedPtrArray@VCObArray@@PAVCGridCellBase@@@@H@Z 00578b80 f i GridCtrl.obj
 0001:00177bb0       ??0?$vector@HV?$allocator@H@std@@@std@@QAE@XZ 00578bb0 f i GridCtrl.obj
 0001:00177be0       ??1?$vector@HV?$allocator@H@std@@@std@@QAE@XZ 00578be0 f i GridCtrl.obj
 0001:00177c00       ?begin@?$vector@HV?$allocator@H@std@@@std@@QAE?AV?$_Vector_iterator@HV?$allocator@H@std@@@2@XZ 00578c00 f i GridCtrl.obj
 0001:00177c00       ?begin@?$vector@V?$basic_string@_WU?$char_traits@_W@std@@V?$allocator@_W@2@@std@@V?$allocator@V?$basic_string@_WU?$char_traits@_W@std@@V?$allocator@_W@2@@std@@@2@@std@@QAE?AV?$_Vector_iterator@V?$basic_string@_WU?$char_traits@_W@std@@V?$allocator@_W@2@@std@@V?$allocator@V?$basic_string@_WU?$char_traits@_W@std@@V?$allocator@_W@2@@std@@@2@@2@XZ 00578c00 f i ChongQingSSC.obj
 0001:00177c30       ?end@?$vector@HV?$allocator@H@std@@@std@@QAE?AV?$_Vector_iterator@HV?$allocator@H@std@@@2@XZ 00578c30 f i GridCtrl.obj
 0001:00177c30       ?end@?$vector@V?$basic_string@_WU?$char_traits@_W@std@@V?$allocator@_W@2@@std@@V?$allocator@V?$basic_string@_WU?$char_traits@_W@std@@V?$allocator@_W@2@@std@@@2@@std@@QAE?AV?$_Vector_iterator@V?$basic_string@_WU?$char_traits@_W@std@@V?$allocator@_W@2@@std@@V?$allocator@V?$basic_string@_WU?$char_traits@_W@std@@V?$allocator@_W@2@@std@@@2@@2@XZ 00578c30 f i ChongQingSSC.obj
 0001:00177c60       ?resize@?$vector@HV?$allocator@H@std@@@std@@QAEXI@Z 00578c60 f i GridCtrl.obj
 0001:00177c90       ??A?$vector@HV?$allocator@H@std@@@std@@QBEABHI@Z 00578c90 f i DlgAddtional.obj
